; ModuleID = '/home/aastabk/lltfi_attempt/axbench/jmeint/llfi/jmeint-llfi_index.ll'
source_filename = "llvm-link"
target datalayout = "e-m:e-p270:32:32-p271:32:32-p272:64:64-i64:64-f80:128-n8:16:32:64-S128"
target triple = "x86_64-pc-linux-gnu"

module asm ".globl _ZSt21ios_base_library_initv"
module asm ".globl _ZSt21ios_base_library_initv"

%"class.std::basic_ostream" = type { i32 (...)**, %"class.std::basic_ios" }
%"class.std::basic_ios" = type { %"class.std::ios_base", %"class.std::basic_ostream"*, i8, i8, %"class.std::basic_streambuf"*, %"class.std::ctype"*, %"class.std::num_put"*, %"class.std::num_put"* }
%"class.std::ios_base" = type { i32 (...)**, i64, i64, i32, i32, i32, %"struct.std::ios_base::_Callback_list"*, %"struct.std::ios_base::_Words", [8 x %"struct.std::ios_base::_Words"], i32, %"struct.std::ios_base::_Words"*, %"class.std::locale" }
%"struct.std::ios_base::_Callback_list" = type { %"struct.std::ios_base::_Callback_list"*, void (i32, %"class.std::ios_base"*, i32)*, i32, i32 }
%"struct.std::ios_base::_Words" = type { i8*, i64 }
%"class.std::locale" = type { %"class.std::locale::_Impl"* }
%"class.std::locale::_Impl" = type { i32, %"class.std::locale::facet"**, i64, %"class.std::locale::facet"**, i8** }
%"class.std::locale::facet" = type <{ i32 (...)**, i32, [4 x i8] }>
%"class.std::basic_streambuf" = type { i32 (...)**, i8*, i8*, i8*, i8*, i8*, i8*, %"class.std::locale" }
%"class.std::ctype" = type <{ %"class.std::locale::facet.base", [4 x i8], %struct.__locale_struct*, i8, [7 x i8], i32*, i32*, i16*, i8, [256 x i8], [256 x i8], i8, [6 x i8] }>
%"class.std::locale::facet.base" = type <{ i32 (...)**, i32 }>
%struct.__locale_struct = type { [13 x %struct.__locale_data*], i16*, i32*, i32*, [13 x i8*] }
%struct.__locale_data = type opaque
%"class.std::num_put" = type { %"class.std::locale::facet.base", [4 x i8] }
%"class.std::__cxx11::basic_string" = type { %"struct.std::__cxx11::basic_string<char>::_Alloc_hider", i64, %union.anon }
%"struct.std::__cxx11::basic_string<char>::_Alloc_hider" = type { i8* }
%union.anon = type { i64, [8 x i8] }
%"class.std::__new_allocator" = type { i8 }
%"class.std::basic_ofstream" = type { %"class.std::basic_ostream.base", %"class.std::basic_filebuf", %"class.std::basic_ios" }
%"class.std::basic_ostream.base" = type { i32 (...)** }
%"class.std::basic_filebuf" = type { %"class.std::basic_streambuf", %union.pthread_mutex_t, %"class.std::__basic_file", i32, %struct.__mbstate_t, %struct.__mbstate_t, %struct.__mbstate_t, i8*, i64, i8, i8, i8, i8, i8*, i8*, i8, %"class.std::codecvt"*, i8*, i64, i8*, i8* }
%union.pthread_mutex_t = type { %struct.__pthread_mutex_s }
%struct.__pthread_mutex_s = type { i32, i32, i32, i32, i32, i16, i16, %struct.__pthread_internal_list }
%struct.__pthread_internal_list = type { %struct.__pthread_internal_list*, %struct.__pthread_internal_list* }
%"class.std::__basic_file" = type <{ %struct._IO_FILE*, i8, [7 x i8] }>
%struct._IO_FILE = type { i32, i8*, i8*, i8*, i8*, i8*, i8*, i8*, i8*, i8*, i8*, i8*, %struct._IO_marker*, %struct._IO_FILE*, i32, i32, i64, i16, i8, [1 x i8], i8*, i64, %struct._IO_codecvt*, %struct._IO_wide_data*, %struct._IO_FILE*, i8*, i64, i32, [20 x i8] }
%struct._IO_marker = type opaque
%struct._IO_codecvt = type opaque
%struct._IO_wide_data = type opaque
%struct.__mbstate_t = type { i32, %union.anon.0 }
%union.anon.0 = type { i32 }
%"class.std::codecvt" = type { %"class.std::__codecvt_abstract_base.base", %struct.__locale_struct* }
%"class.std::__codecvt_abstract_base.base" = type { %"class.std::locale::facet.base" }
%"class.std::basic_ifstream" = type { %"class.std::basic_istream.base", %"class.std::basic_filebuf", %"class.std::basic_ios" }
%"class.std::basic_istream.base" = type { i32 (...)**, i64 }
%class.AxBenchTimer = type { %struct.timespec }
%struct.timespec = type { i64, i64 }
%"class.std::basic_istream" = type { i32 (...)**, i64, %"class.std::basic_ios" }

$_ZNSt8ios_base9precisionEl = comdat any

$_ZNSt15__new_allocatorIcED2Ev = comdat any

$_ZN12AxBenchTimerC2Ev = comdat any

$_ZN12AxBenchTimer20nanosecondsSinceInitEv = comdat any

$_ZN12AxBenchTimer5resetEv = comdat any

@_ZSt4cout = external global %"class.std::basic_ostream", align 8, !taffo.structinfo !0
@.str.2 = private unnamed_addr constant [53 x i8] c"cannot allocate memory for the triangle coordinates!\00", align 1, !taffo.info !1
@.str.5 = private unnamed_addr constant [6 x i8] c" 0 0 \00", align 1, !taffo.info !3
@.str.6 = private unnamed_addr constant [15 x i8] c"kernel time = \00", align 1, !taffo.info !5
@.str.7 = private unnamed_addr constant [3 x i8] c" s\00", align 1, !taffo.info !7
@store_namestr = internal constant [6 x i8] c"store\00"
@call_namestr = internal constant [5 x i8] c"call\00"
@load_namestr = internal constant [5 x i8] c"load\00"
@mul_namestr = internal constant [4 x i8] c"mul\00"
@alloca_namestr = internal constant [7 x i8] c"alloca\00"
@lshr_namestr = internal constant [5 x i8] c"lshr\00"
@sdiv_namestr = internal constant [5 x i8] c"sdiv\00"
@trunc_namestr = internal constant [6 x i8] c"trunc\00"
@getelementptr_namestr = internal constant [14 x i8] c"getelementptr\00"
@fcmp_namestr = internal constant [5 x i8] c"fcmp\00"
@br_namestr = internal constant [3 x i8] c"br\00"
@invoke_namestr = internal constant [7 x i8] c"invoke\00"
@sext_namestr = internal constant [5 x i8] c"sext\00"
@icmp_namestr = internal constant [5 x i8] c"icmp\00"
@extractvalue_namestr = internal constant [13 x i8] c"extractvalue\00"
@phi_namestr = internal constant [4 x i8] c"phi\00"
@add_namestr = internal constant [4 x i8] c"add\00"
@fmul_namestr = internal constant [5 x i8] c"fmul\00"
@fptosi_namestr = internal constant [7 x i8] c"fptosi\00"
@fadd_namestr = internal constant [5 x i8] c"fadd\00"
@ashr_namestr = internal constant [5 x i8] c"ashr\00"
@fsub_namestr = internal constant [5 x i8] c"fsub\00"
@fneg_namestr = internal constant [5 x i8] c"fneg\00"
@uitofp_namestr = internal constant [7 x i8] c"uitofp\00"
@fdiv_namestr = internal constant [5 x i8] c"fdiv\00"
@insertvalue_namestr = internal constant [12 x i8] c"insertvalue\00"
@resume_namestr = internal constant [7 x i8] c"resume\00"
@shl_namestr = internal constant [4 x i8] c"shl\00"
@sub_namestr = internal constant [4 x i8] c"sub\00"
@fpext_namestr = internal constant [6 x i8] c"fpext\00"
@fptrunc_namestr = internal constant [8 x i8] c"fptrunc\00"
@fptoui_namestr = internal constant [7 x i8] c"fptoui\00"
@zext_namestr = internal constant [5 x i8] c"zext\00"
@udiv_namestr = internal constant [5 x i8] c"udiv\00"
@sitofp_namestr = internal constant [7 x i8] c"sitofp\00"

; Function Attrs: noinline norecurse uwtable
define dso_local noundef i32 @main(i32 noundef %0, i8** noundef %1) #0 personality i8* bitcast (i32 (...)* @__gxx_personality_v0 to i8*) !taffo.start !15 !taffo.initweight !16 !taffo.funinfo !17 {
  call void @initInjections()
  %fi7 = call i32 @injectFault1(i64 1, i32 1, i32 31, i32 0, i32 1, i32 1, i8* getelementptr inbounds ([7 x i8], [7 x i8]* @alloca_namestr, i32 0, i32 0)), !llfi_injectfault !18
  %3 = alloca i32, i32 %fi7, align 4, !llfi_index !19
  %fi8 = call i32 @injectFault1(i64 2, i32 1, i32 31, i32 0, i32 1, i32 1, i8* getelementptr inbounds ([7 x i8], [7 x i8]* @alloca_namestr, i32 0, i32 0)), !llfi_injectfault !18
  %4 = alloca %"class.std::__cxx11::basic_string", i32 %fi8, align 8, !taffo.structinfo !0, !llfi_index !20
  %fi9 = call i32 @injectFault1(i64 3, i32 1, i32 31, i32 0, i32 1, i32 1, i8* getelementptr inbounds ([7 x i8], [7 x i8]* @alloca_namestr, i32 0, i32 0)), !llfi_injectfault !18
  %5 = alloca %"class.std::__new_allocator", i32 %fi9, align 1, !taffo.structinfo !0, !llfi_index !21
  %fi10 = call i32 @injectFault1(i64 4, i32 1, i32 31, i32 0, i32 1, i32 1, i8* getelementptr inbounds ([7 x i8], [7 x i8]* @alloca_namestr, i32 0, i32 0)), !llfi_injectfault !18
  %6 = alloca %"class.std::__cxx11::basic_string", i32 %fi10, align 8, !taffo.structinfo !0, !llfi_index !22
  %fi11 = call i32 @injectFault1(i64 5, i32 1, i32 31, i32 0, i32 1, i32 1, i8* getelementptr inbounds ([7 x i8], [7 x i8]* @alloca_namestr, i32 0, i32 0)), !llfi_injectfault !18
  %7 = alloca %"class.std::__new_allocator", i32 %fi11, align 1, !taffo.structinfo !0, !llfi_index !23
  %fi12 = call i32 @injectFault1(i64 6, i32 1, i32 31, i32 0, i32 1, i32 1, i8* getelementptr inbounds ([7 x i8], [7 x i8]* @alloca_namestr, i32 0, i32 0)), !llfi_injectfault !18
  %8 = alloca %"class.std::basic_ofstream", i32 %fi12, align 8, !taffo.structinfo !0, !llfi_index !24
  %fi13 = call i32 @injectFault1(i64 7, i32 1, i32 31, i32 0, i32 1, i32 1, i8* getelementptr inbounds ([7 x i8], [7 x i8]* @alloca_namestr, i32 0, i32 0)), !llfi_injectfault !18
  %9 = alloca %"class.std::basic_ifstream", i32 %fi13, align 8, !taffo.structinfo !0, !llfi_index !25
  %fi14 = call i32 @injectFault1(i64 8, i32 1, i32 31, i32 0, i32 1, i32 1, i8* getelementptr inbounds ([7 x i8], [7 x i8]* @alloca_namestr, i32 0, i32 0)), !llfi_injectfault !18
  %10 = alloca [18 x float], i32 %fi14, align 16, !taffo.info !26, !taffo.initweight !28, !llfi_index !29
  %fi15 = call i32 @injectFault1(i64 9, i32 1, i32 31, i32 0, i32 1, i32 1, i8* getelementptr inbounds ([7 x i8], [7 x i8]* @alloca_namestr, i32 0, i32 0)), !llfi_injectfault !18
  %11 = alloca [6 x i32], i32 %fi15, align 16, !llfi_index !30
  %fi16 = call i32 @injectFault1(i64 10, i32 1, i32 31, i32 0, i32 1, i32 1, i8* getelementptr inbounds ([7 x i8], [7 x i8]* @alloca_namestr, i32 0, i32 0)), !llfi_injectfault !18
  %12 = alloca %class.AxBenchTimer, i32 %fi16, align 8, !taffo.structinfo !0, !llfi_index !31
  %fi17 = call i32 @injectFault1(i64 11, i32 1, i32 31, i32 0, i32 1, i32 1, i8* getelementptr inbounds ([7 x i8], [7 x i8]* @alloca_namestr, i32 0, i32 0)), !llfi_injectfault !18
  %s3_29fixp = alloca [2 x i32], i32 %fi17, align 4, !taffo.info !32, !llfi_index !35, !taffo.target !36
  %fi18 = call i32 @injectFault1(i64 12, i32 1, i32 31, i32 0, i32 1, i32 1, i8* getelementptr inbounds ([7 x i8], [7 x i8]* @alloca_namestr, i32 0, i32 0)), !llfi_injectfault !18
  %13 = alloca i32, i32 %fi18, align 4, !taffo.info !37, !llfi_index !39
  %14 = load i8*, i8** bitcast (%"class.std::basic_ostream"* @_ZSt4cout to i8**), align 8, !llfi_index !40
  %fi19 = call i64 @injectFault0(i64 14, i64 -24, i32 34, i32 0, i32 1, i32 2, i8* getelementptr inbounds ([14 x i8], [14 x i8]* @getelementptr_namestr, i32 0, i32 0)), !llfi_injectfault !18
  %15 = getelementptr i8, i8* %14, i64 %fi19, !llfi_index !41
  %16 = bitcast i8* %15 to i64*, !llfi_index !42
  %17 = load i64, i64* %16, align 8, !llfi_index !43
  %fi20 = call i64 @injectFault0(i64 16, i64 %17, i32 32, i32 0, i32 1, i32 0, i8* getelementptr inbounds ([5 x i8], [5 x i8]* @load_namestr, i32 0, i32 0)), !llfi_injectfault !44
  %fi21 = call i64 @injectFault0(i64 17, i64 %fi20, i32 34, i32 0, i32 1, i32 2, i8* getelementptr inbounds ([14 x i8], [14 x i8]* @getelementptr_namestr, i32 0, i32 0)), !llfi_injectfault !18
  %18 = getelementptr i8, i8* bitcast (%"class.std::basic_ostream"* @_ZSt4cout to i8*), i64 %fi21, !llfi_index !45
  %19 = bitcast i8* %18 to %"class.std::ios_base"*, !llfi_index !46
  %fi23 = call i64 @injectFault0(i64 19, i64 8, i32 56, i32 1, i32 2, i32 2, i8* getelementptr inbounds ([5 x i8], [5 x i8]* @call_namestr, i32 0, i32 0)), !llfi_injectfault !18
  %20 = call noundef i64 @_ZNSt8ios_base9precisionEl(%"class.std::ios_base"* noundef nonnull align 8 dereferenceable(216) %19, i64 noundef %fi23), !llfi_index !47, !taffo.constinfo !48
  %fi22 = call i64 @injectFault0(i64 19, i64 %20, i32 56, i32 0, i32 2, i32 0, i8* getelementptr inbounds ([5 x i8], [5 x i8]* @call_namestr, i32 0, i32 0)), !llfi_injectfault !44
  %fi24 = call i64 @injectFault0(i64 20, i64 1, i32 34, i32 0, i32 1, i32 2, i8* getelementptr inbounds ([14 x i8], [14 x i8]* @getelementptr_namestr, i32 0, i32 0)), !llfi_injectfault !18
  %21 = getelementptr i8*, i8** %1, i64 %fi24, !llfi_index !49
  %22 = load i8*, i8** %21, align 8, !llfi_index !50
  invoke void @_ZNSt7__cxx1112basic_stringIcSt11char_traitsIcESaIcEEC1EPKcRKS3_(%"class.std::__cxx11::basic_string"* noundef nonnull align 8 dereferenceable(32) %4, i8* noundef %22, %"class.std::__new_allocator"* noundef nonnull align 1 dereferenceable(1) %5)
          to label %23 unwind label %57, !llfi_index !51, !taffo.constinfo !52

23:                                               ; preds = %2
  %24 = bitcast %"class.std::__new_allocator"* %5 to %"class.std::__new_allocator"*, !llfi_index !53
  call void @_ZNSt15__new_allocatorIcED2Ev(%"class.std::__new_allocator"* noundef nonnull align 1 dereferenceable(1) %24) #9, !llfi_index !54, !taffo.constinfo !55
  %fi25 = call i64 @injectFault0(i64 25, i64 2, i32 34, i32 0, i32 1, i32 2, i8* getelementptr inbounds ([14 x i8], [14 x i8]* @getelementptr_namestr, i32 0, i32 0)), !llfi_injectfault !18
  %25 = getelementptr i8*, i8** %1, i64 %fi25, !llfi_index !56
  %26 = load i8*, i8** %25, align 8, !llfi_index !57
  invoke void @_ZNSt7__cxx1112basic_stringIcSt11char_traitsIcESaIcEEC1EPKcRKS3_(%"class.std::__cxx11::basic_string"* noundef nonnull align 8 dereferenceable(32) %6, i8* noundef %26, %"class.std::__new_allocator"* noundef nonnull align 1 dereferenceable(1) %7)
          to label %27 unwind label %62, !llfi_index !58, !taffo.constinfo !52

27:                                               ; preds = %23
  %28 = bitcast %"class.std::__new_allocator"* %7 to %"class.std::__new_allocator"*, !llfi_index !59
  call void @_ZNSt15__new_allocatorIcED2Ev(%"class.std::__new_allocator"* noundef nonnull align 1 dereferenceable(1) %28) #9, !llfi_index !60, !taffo.constinfo !55
  invoke void @_ZNSt14basic_ofstreamIcSt11char_traitsIcEEC1Ev(%"class.std::basic_ofstream"* noundef nonnull align 8 dereferenceable(248) %8)
          to label %29 unwind label %67, !llfi_index !61, !taffo.constinfo !62

29:                                               ; preds = %27
  %fi26 = call i32 @injectFault1(i64 31, i32 16, i32 5, i32 0, i32 1, i32 3, i8* getelementptr inbounds ([7 x i8], [7 x i8]* @invoke_namestr, i32 0, i32 0)), !llfi_injectfault !18
  invoke void @_ZNSt14basic_ofstreamIcSt11char_traitsIcEE4openERKNSt7__cxx1112basic_stringIcS1_SaIcEEESt13_Ios_Openmode(%"class.std::basic_ofstream"* noundef nonnull align 8 dereferenceable(248) %8, %"class.std::__cxx11::basic_string"* noundef nonnull align 8 dereferenceable(32) %6, i32 noundef %fi26)
          to label %30 unwind label %71, !llfi_index !63, !taffo.constinfo !52

30:                                               ; preds = %29
  %31 = bitcast %"class.std::basic_ofstream"* %8 to i8**, !llfi_index !64
  %32 = load i8*, i8** %31, align 8, !llfi_index !65
  %fi27 = call i64 @injectFault0(i64 34, i64 -24, i32 34, i32 0, i32 1, i32 2, i8* getelementptr inbounds ([14 x i8], [14 x i8]* @getelementptr_namestr, i32 0, i32 0)), !llfi_injectfault !18
  %33 = getelementptr i8, i8* %32, i64 %fi27, !llfi_index !66
  %34 = bitcast i8* %33 to i64*, !llfi_index !67
  %35 = load i64, i64* %34, align 8, !llfi_index !68
  %fi28 = call i64 @injectFault0(i64 36, i64 %35, i32 32, i32 0, i32 1, i32 0, i8* getelementptr inbounds ([5 x i8], [5 x i8]* @load_namestr, i32 0, i32 0)), !llfi_injectfault !44
  %36 = bitcast %"class.std::basic_ofstream"* %8 to i8*, !llfi_index !69
  %fi29 = call i64 @injectFault0(i64 38, i64 %fi28, i32 34, i32 0, i32 1, i32 2, i8* getelementptr inbounds ([14 x i8], [14 x i8]* @getelementptr_namestr, i32 0, i32 0)), !llfi_injectfault !18
  %37 = getelementptr i8, i8* %36, i64 %fi29, !llfi_index !70
  %38 = bitcast i8* %37 to %"class.std::ios_base"*, !llfi_index !71
  %fi30 = call i64 @injectFault0(i64 40, i64 5, i32 5, i32 0, i32 1, i32 2, i8* getelementptr inbounds ([7 x i8], [7 x i8]* @invoke_namestr, i32 0, i32 0)), !llfi_injectfault !18
  %39 = invoke noundef i64 @_ZNSt8ios_base9precisionEl(%"class.std::ios_base"* noundef nonnull align 8 dereferenceable(216) %38, i64 noundef %fi30)
          to label %40 unwind label %71, !llfi_index !72, !taffo.constinfo !73

40:                                               ; preds = %30
  %fi31 = call i32 @injectFault1(i64 41, i32 8, i32 5, i32 0, i32 1, i32 3, i8* getelementptr inbounds ([7 x i8], [7 x i8]* @invoke_namestr, i32 0, i32 0)), !llfi_injectfault !18
  invoke void @_ZNSt14basic_ifstreamIcSt11char_traitsIcEEC1ERKNSt7__cxx1112basic_stringIcS1_SaIcEEESt13_Ios_Openmode(%"class.std::basic_ifstream"* noundef nonnull align 8 dereferenceable(256) %9, %"class.std::__cxx11::basic_string"* noundef nonnull align 8 dereferenceable(32) %4, i32 noundef %fi31)
          to label %41 unwind label %71, !llfi_index !74, !taffo.constinfo !52

41:                                               ; preds = %40
  %42 = bitcast %"class.std::basic_ifstream"* %9 to %"class.std::basic_istream"*, !llfi_index !75
  %43 = invoke noundef nonnull align 8 dereferenceable(16) %"class.std::basic_istream"* @_ZNSirsERi(%"class.std::basic_istream"* noundef nonnull align 8 dereferenceable(16) %42, i32* noundef nonnull align 4 dereferenceable(4) %3)
          to label %44 unwind label %75, !llfi_index !76, !taffo.constinfo !73

44:                                               ; preds = %41
  %45 = load i32, i32* %3, align 4, !llfi_index !77
  %fi = call i32 @injectFault1(i64 44, i32 %45, i32 32, i32 0, i32 1, i32 0, i8* getelementptr inbounds ([5 x i8], [5 x i8]* @load_namestr, i32 0, i32 0)), !llfi_injectfault !44
  %fi2 = call i32 @injectFault1(i64 45, i32 %fi, i32 17, i32 1, i32 3, i32 1, i8* getelementptr inbounds ([4 x i8], [4 x i8]* @mul_namestr, i32 0, i32 0)), !llfi_injectfault !18
  %fi3 = call i32 @injectFault1(i64 45, i32 6, i32 17, i32 2, i32 3, i32 2, i8* getelementptr inbounds ([4 x i8], [4 x i8]* @mul_namestr, i32 0, i32 0)), !llfi_injectfault !18
  %46 = mul nsw i32 %fi2, %fi3, !llfi_index !78, !taffo.constinfo !55
  %fi1 = call i32 @injectFault1(i64 45, i32 %46, i32 17, i32 0, i32 3, i32 0, i8* getelementptr inbounds ([4 x i8], [4 x i8]* @mul_namestr, i32 0, i32 0)), !llfi_injectfault !44
  %fi5 = call i32 @injectFault1(i64 46, i32 %fi1, i32 17, i32 1, i32 3, i32 1, i8* getelementptr inbounds ([4 x i8], [4 x i8]* @mul_namestr, i32 0, i32 0)), !llfi_injectfault !18
  %fi6 = call i32 @injectFault1(i64 46, i32 3, i32 17, i32 2, i32 3, i32 2, i8* getelementptr inbounds ([4 x i8], [4 x i8]* @mul_namestr, i32 0, i32 0)), !llfi_injectfault !18
  %47 = mul nsw i32 %fi5, %fi6, !llfi_index !79, !taffo.constinfo !55
  %fi4 = call i32 @injectFault1(i64 46, i32 %47, i32 17, i32 0, i32 3, i32 0, i8* getelementptr inbounds ([4 x i8], [4 x i8]* @mul_namestr, i32 0, i32 0)), !llfi_injectfault !44
  %fi37 = call i32 @injectFault1(i64 47, i32 %fi4, i32 40, i32 1, i32 2, i32 1, i8* getelementptr inbounds ([5 x i8], [5 x i8]* @sext_namestr, i32 0, i32 0)), !llfi_injectfault !18
  %48 = sext i32 %fi37 to i64, !llfi_index !80
  %fi36 = call i64 @injectFault0(i64 47, i64 %48, i32 40, i32 0, i32 2, i32 0, i8* getelementptr inbounds ([5 x i8], [5 x i8]* @sext_namestr, i32 0, i32 0)), !llfi_injectfault !44
  %fi39 = call i64 @injectFault0(i64 48, i64 %fi36, i32 17, i32 1, i32 3, i32 1, i8* getelementptr inbounds ([4 x i8], [4 x i8]* @mul_namestr, i32 0, i32 0)), !llfi_injectfault !18
  %fi40 = call i64 @injectFault0(i64 48, i64 4, i32 17, i32 2, i32 3, i32 2, i8* getelementptr inbounds ([4 x i8], [4 x i8]* @mul_namestr, i32 0, i32 0)), !llfi_injectfault !18
  %49 = mul i64 %fi39, %fi40, !llfi_index !81, !taffo.constinfo !55
  %fi38 = call i64 @injectFault0(i64 48, i64 %49, i32 17, i32 0, i32 3, i32 0, i8* getelementptr inbounds ([4 x i8], [4 x i8]* @mul_namestr, i32 0, i32 0)), !llfi_injectfault !44
  %fi41 = call i64 @injectFault0(i64 49, i64 %fi38, i32 56, i32 0, i32 1, i32 1, i8* getelementptr inbounds ([5 x i8], [5 x i8]* @call_namestr, i32 0, i32 0)), !llfi_injectfault !18
  %50 = call noalias i8* @malloc(i64 noundef %fi41) #10, !taffo.info !82, !llfi_index !83, !taffo.constinfo !55
  %s2_30fixp = bitcast i8* %50 to i32*, !taffo.info !84, !llfi_index !87
  %51 = bitcast i32* %s2_30fixp to float*, !taffo.info !84, !llfi_index !88
  %.flt = icmp eq float* %51, null, !taffo.info !89, !taffo.initweight !90, !llfi_index !91
  %fi42 = call i1 @injectFault3(i64 52, i1 %.flt, i32 53, i32 0, i32 1, i32 0, i8* getelementptr inbounds ([5 x i8], [5 x i8]* @icmp_namestr, i32 0, i32 0)), !llfi_injectfault !44
  %fi43 = call i1 @injectFault3(i64 53, i1 %fi42, i32 2, i32 0, i32 1, i32 1, i8* getelementptr inbounds ([3 x i8], [3 x i8]* @br_namestr, i32 0, i32 0)), !llfi_injectfault !18
  br i1 %fi43, label %52, label %79, !taffo.info !92, !taffo.initweight !93, !llfi_index !94

52:                                               ; preds = %44
  %53 = invoke noundef nonnull align 8 dereferenceable(8) %"class.std::basic_ostream"* @_ZStlsISt11char_traitsIcEERSt13basic_ostreamIcT_ES5_PKc(%"class.std::basic_ostream"* noundef nonnull align 8 dereferenceable(8) @_ZSt4cout, i8* noundef getelementptr inbounds ([53 x i8], [53 x i8]* @.str.2, i64 0, i64 0))
          to label %54 unwind label %75, !llfi_index !95, !taffo.constinfo !73

54:                                               ; preds = %52
  %55 = invoke noundef nonnull align 8 dereferenceable(8) %"class.std::basic_ostream"* @_ZNSolsEPFRSoS_E(%"class.std::basic_ostream"* noundef nonnull align 8 dereferenceable(8) %53, %"class.std::basic_ostream"* (%"class.std::basic_ostream"*)* noundef @_ZSt4endlIcSt11char_traitsIcEERSt13basic_ostreamIT_T0_ES6_)
          to label %56 unwind label %75, !llfi_index !96, !taffo.constinfo !73

56:                                               ; preds = %54
  br label %221, !llfi_index !97

57:                                               ; preds = %2
  %58 = landingpad { i8*, i32 }
          cleanup, !llfi_index !98
  %fi44 = call { i8*, i32 } @injectFault6(i64 58, { i8*, i32 } %58, i32 64, i32 0, i32 1, i32 1, i8* getelementptr inbounds ([13 x i8], [13 x i8]* @extractvalue_namestr, i32 0, i32 0)), !llfi_injectfault !18
  %59 = extractvalue { i8*, i32 } %fi44, 0, !llfi_index !99
  %fi46 = call { i8*, i32 } @injectFault6(i64 59, { i8*, i32 } %58, i32 64, i32 1, i32 2, i32 1, i8* getelementptr inbounds ([13 x i8], [13 x i8]* @extractvalue_namestr, i32 0, i32 0)), !llfi_injectfault !18
  %60 = extractvalue { i8*, i32 } %fi46, 1, !llfi_index !100
  %fi45 = call i32 @injectFault1(i64 59, i32 %60, i32 64, i32 0, i32 2, i32 0, i8* getelementptr inbounds ([13 x i8], [13 x i8]* @extractvalue_namestr, i32 0, i32 0)), !llfi_injectfault !44
  %61 = bitcast %"class.std::__new_allocator"* %5 to %"class.std::__new_allocator"*, !llfi_index !101
  call void @_ZNSt15__new_allocatorIcED2Ev(%"class.std::__new_allocator"* noundef nonnull align 1 dereferenceable(1) %61) #9, !llfi_index !102, !taffo.constinfo !55
  br label %225, !llfi_index !103

62:                                               ; preds = %23
  %63 = landingpad { i8*, i32 }
          cleanup, !llfi_index !104
  %fi47 = call { i8*, i32 } @injectFault6(i64 64, { i8*, i32 } %63, i32 64, i32 0, i32 1, i32 1, i8* getelementptr inbounds ([13 x i8], [13 x i8]* @extractvalue_namestr, i32 0, i32 0)), !llfi_injectfault !18
  %64 = extractvalue { i8*, i32 } %fi47, 0, !llfi_index !105
  %fi49 = call { i8*, i32 } @injectFault6(i64 65, { i8*, i32 } %63, i32 64, i32 1, i32 2, i32 1, i8* getelementptr inbounds ([13 x i8], [13 x i8]* @extractvalue_namestr, i32 0, i32 0)), !llfi_injectfault !18
  %65 = extractvalue { i8*, i32 } %fi49, 1, !llfi_index !106
  %fi48 = call i32 @injectFault1(i64 65, i32 %65, i32 64, i32 0, i32 2, i32 0, i8* getelementptr inbounds ([13 x i8], [13 x i8]* @extractvalue_namestr, i32 0, i32 0)), !llfi_injectfault !44
  %66 = bitcast %"class.std::__new_allocator"* %7 to %"class.std::__new_allocator"*, !llfi_index !107
  call void @_ZNSt15__new_allocatorIcED2Ev(%"class.std::__new_allocator"* noundef nonnull align 1 dereferenceable(1) %66) #9, !llfi_index !108, !taffo.constinfo !55
  br label %224, !llfi_index !109

67:                                               ; preds = %27
  %68 = landingpad { i8*, i32 }
          cleanup, !llfi_index !110
  %fi50 = call { i8*, i32 } @injectFault6(i64 70, { i8*, i32 } %68, i32 64, i32 0, i32 1, i32 1, i8* getelementptr inbounds ([13 x i8], [13 x i8]* @extractvalue_namestr, i32 0, i32 0)), !llfi_injectfault !18
  %69 = extractvalue { i8*, i32 } %fi50, 0, !llfi_index !111
  %fi52 = call { i8*, i32 } @injectFault6(i64 71, { i8*, i32 } %68, i32 64, i32 1, i32 2, i32 1, i8* getelementptr inbounds ([13 x i8], [13 x i8]* @extractvalue_namestr, i32 0, i32 0)), !llfi_injectfault !18
  %70 = extractvalue { i8*, i32 } %fi52, 1, !llfi_index !112
  %fi51 = call i32 @injectFault1(i64 71, i32 %70, i32 64, i32 0, i32 2, i32 0, i8* getelementptr inbounds ([13 x i8], [13 x i8]* @extractvalue_namestr, i32 0, i32 0)), !llfi_injectfault !44
  br label %223, !llfi_index !113

71:                                               ; preds = %40, %30, %29
  %72 = landingpad { i8*, i32 }
          cleanup, !llfi_index !114
  %fi53 = call { i8*, i32 } @injectFault6(i64 74, { i8*, i32 } %72, i32 64, i32 0, i32 1, i32 1, i8* getelementptr inbounds ([13 x i8], [13 x i8]* @extractvalue_namestr, i32 0, i32 0)), !llfi_injectfault !18
  %73 = extractvalue { i8*, i32 } %fi53, 0, !llfi_index !115
  %fi55 = call { i8*, i32 } @injectFault6(i64 75, { i8*, i32 } %72, i32 64, i32 1, i32 2, i32 1, i8* getelementptr inbounds ([13 x i8], [13 x i8]* @extractvalue_namestr, i32 0, i32 0)), !llfi_injectfault !18
  %74 = extractvalue { i8*, i32 } %fi55, 1, !llfi_index !116
  %fi54 = call i32 @injectFault1(i64 75, i32 %74, i32 64, i32 0, i32 2, i32 0, i8* getelementptr inbounds ([13 x i8], [13 x i8]* @extractvalue_namestr, i32 0, i32 0)), !llfi_injectfault !44
  br label %222, !llfi_index !117

75:                                               ; preds = %218, %217, %215, %213, %209, %207, %195, %186, %184, %181, %179, %176, %170, %162, %154, %135, %132, %129, %126, %123, %120, %117, %114, %111, %108, %105, %102, %99, %96, %93, %90, %87, %83, %54, %52, %41
  %76 = landingpad { i8*, i32 }
          cleanup, !llfi_index !118
  %fi56 = call { i8*, i32 } @injectFault6(i64 78, { i8*, i32 } %76, i32 64, i32 0, i32 1, i32 1, i8* getelementptr inbounds ([13 x i8], [13 x i8]* @extractvalue_namestr, i32 0, i32 0)), !llfi_injectfault !18
  %77 = extractvalue { i8*, i32 } %fi56, 0, !llfi_index !119
  %fi58 = call { i8*, i32 } @injectFault6(i64 79, { i8*, i32 } %76, i32 64, i32 1, i32 2, i32 1, i8* getelementptr inbounds ([13 x i8], [13 x i8]* @extractvalue_namestr, i32 0, i32 0)), !llfi_injectfault !18
  %78 = extractvalue { i8*, i32 } %fi58, 1, !llfi_index !120
  %fi57 = call i32 @injectFault1(i64 79, i32 %78, i32 64, i32 0, i32 2, i32 0, i8* getelementptr inbounds ([13 x i8], [13 x i8]* @extractvalue_namestr, i32 0, i32 0)), !llfi_injectfault !44
  call void @_ZNSt14basic_ifstreamIcSt11char_traitsIcEED1Ev(%"class.std::basic_ifstream"* noundef nonnull align 8 dereferenceable(256) %9) #9, !llfi_index !121, !taffo.constinfo !55
  br label %222, !llfi_index !122

79:                                               ; preds = %44
  br label %80, !llfi_index !123

80:                                               ; preds = %152, %79
  %.08 = phi i32 [ 0, %79 ], [ %fi145, %152 ], !taffo.info !124, !llfi_index !126
  %fi59 = call i32 @injectFault1(i64 83, i32 %.08, i32 55, i32 0, i32 1, i32 0, i8* getelementptr inbounds ([4 x i8], [4 x i8]* @phi_namestr, i32 0, i32 0)), !llfi_injectfault !44
  %81 = load i32, i32* %3, align 4, !llfi_index !127
  %fi60 = call i32 @injectFault1(i64 84, i32 %81, i32 32, i32 0, i32 1, i32 0, i8* getelementptr inbounds ([5 x i8], [5 x i8]* @load_namestr, i32 0, i32 0)), !llfi_injectfault !44
  %fi62 = call i32 @injectFault1(i64 85, i32 %fi59, i32 53, i32 1, i32 3, i32 1, i8* getelementptr inbounds ([5 x i8], [5 x i8]* @icmp_namestr, i32 0, i32 0)), !llfi_injectfault !18
  %fi63 = call i32 @injectFault1(i64 85, i32 %fi60, i32 53, i32 2, i32 3, i32 2, i8* getelementptr inbounds ([5 x i8], [5 x i8]* @icmp_namestr, i32 0, i32 0)), !llfi_injectfault !18
  %82 = icmp slt i32 %fi62, %fi63, !taffo.info !124, !llfi_index !128
  %fi61 = call i1 @injectFault3(i64 85, i1 %82, i32 53, i32 0, i32 3, i32 0, i8* getelementptr inbounds ([5 x i8], [5 x i8]* @icmp_namestr, i32 0, i32 0)), !llfi_injectfault !44
  %fi64 = call i1 @injectFault3(i64 86, i1 %fi61, i32 2, i32 0, i32 1, i32 1, i8* getelementptr inbounds ([3 x i8], [3 x i8]* @br_namestr, i32 0, i32 0)), !llfi_injectfault !18
  br i1 %fi64, label %83, label %154, !llfi_index !129

83:                                               ; preds = %80
  %84 = bitcast %"class.std::basic_ifstream"* %9 to %"class.std::basic_istream"*, !llfi_index !130
  %fi65 = call i64 @injectFault0(i64 88, i64 0, i32 34, i32 0, i32 2, i32 2, i8* getelementptr inbounds ([14 x i8], [14 x i8]* @getelementptr_namestr, i32 0, i32 0)), !llfi_injectfault !18
  %fi66 = call i64 @injectFault0(i64 88, i64 0, i32 34, i32 1, i32 2, i32 3, i8* getelementptr inbounds ([14 x i8], [14 x i8]* @getelementptr_namestr, i32 0, i32 0)), !llfi_injectfault !18
  %85 = getelementptr [18 x float], [18 x float]* %10, i64 %fi65, i64 %fi66, !taffo.info !26, !taffo.initweight !131, !llfi_index !132
  %86 = invoke noundef nonnull align 8 dereferenceable(16) %"class.std::basic_istream"* @_ZNSirsERf(%"class.std::basic_istream"* noundef nonnull align 8 dereferenceable(16) %84, float* noundef nonnull align 4 dereferenceable(4) %85)
          to label %87 unwind label %75, !taffo.structinfo !48, !taffo.initweight !90, !llfi_index !133, !taffo.constinfo !73

87:                                               ; preds = %83
  %fi67 = call i64 @injectFault0(i64 90, i64 0, i32 34, i32 0, i32 2, i32 2, i8* getelementptr inbounds ([14 x i8], [14 x i8]* @getelementptr_namestr, i32 0, i32 0)), !llfi_injectfault !18
  %fi68 = call i64 @injectFault0(i64 90, i64 1, i32 34, i32 1, i32 2, i32 3, i8* getelementptr inbounds ([14 x i8], [14 x i8]* @getelementptr_namestr, i32 0, i32 0)), !llfi_injectfault !18
  %88 = getelementptr [18 x float], [18 x float]* %10, i64 %fi67, i64 %fi68, !taffo.info !26, !taffo.initweight !131, !llfi_index !134
  %89 = invoke noundef nonnull align 8 dereferenceable(16) %"class.std::basic_istream"* @_ZNSirsERf(%"class.std::basic_istream"* noundef nonnull align 8 dereferenceable(16) %86, float* noundef nonnull align 4 dereferenceable(4) %88)
          to label %90 unwind label %75, !taffo.structinfo !48, !taffo.initweight !90, !llfi_index !135, !taffo.constinfo !73

90:                                               ; preds = %87
  %fi32 = call i64 @injectFault0(i64 92, i64 0, i32 34, i32 0, i32 2, i32 2, i8* getelementptr inbounds ([14 x i8], [14 x i8]* @getelementptr_namestr, i32 0, i32 0)), !llfi_injectfault !18
  %fi33 = call i64 @injectFault0(i64 92, i64 2, i32 34, i32 1, i32 2, i32 3, i8* getelementptr inbounds ([14 x i8], [14 x i8]* @getelementptr_namestr, i32 0, i32 0)), !llfi_injectfault !18
  %91 = getelementptr [18 x float], [18 x float]* %10, i64 %fi32, i64 %fi33, !taffo.info !26, !taffo.initweight !131, !llfi_index !136
  %92 = invoke noundef nonnull align 8 dereferenceable(16) %"class.std::basic_istream"* @_ZNSirsERf(%"class.std::basic_istream"* noundef nonnull align 8 dereferenceable(16) %89, float* noundef nonnull align 4 dereferenceable(4) %91)
          to label %93 unwind label %75, !taffo.structinfo !48, !taffo.initweight !90, !llfi_index !137, !taffo.constinfo !73

93:                                               ; preds = %90
  %fi34 = call i64 @injectFault0(i64 94, i64 0, i32 34, i32 0, i32 2, i32 2, i8* getelementptr inbounds ([14 x i8], [14 x i8]* @getelementptr_namestr, i32 0, i32 0)), !llfi_injectfault !18
  %fi35 = call i64 @injectFault0(i64 94, i64 3, i32 34, i32 1, i32 2, i32 3, i8* getelementptr inbounds ([14 x i8], [14 x i8]* @getelementptr_namestr, i32 0, i32 0)), !llfi_injectfault !18
  %94 = getelementptr [18 x float], [18 x float]* %10, i64 %fi34, i64 %fi35, !taffo.info !26, !taffo.initweight !131, !llfi_index !138
  %95 = invoke noundef nonnull align 8 dereferenceable(16) %"class.std::basic_istream"* @_ZNSirsERf(%"class.std::basic_istream"* noundef nonnull align 8 dereferenceable(16) %92, float* noundef nonnull align 4 dereferenceable(4) %94)
          to label %96 unwind label %75, !taffo.structinfo !48, !taffo.initweight !90, !llfi_index !139, !taffo.constinfo !73

96:                                               ; preds = %93
  %fi89 = call i64 @injectFault0(i64 96, i64 0, i32 34, i32 0, i32 2, i32 2, i8* getelementptr inbounds ([14 x i8], [14 x i8]* @getelementptr_namestr, i32 0, i32 0)), !llfi_injectfault !18
  %fi90 = call i64 @injectFault0(i64 96, i64 4, i32 34, i32 1, i32 2, i32 3, i8* getelementptr inbounds ([14 x i8], [14 x i8]* @getelementptr_namestr, i32 0, i32 0)), !llfi_injectfault !18
  %97 = getelementptr [18 x float], [18 x float]* %10, i64 %fi89, i64 %fi90, !taffo.info !26, !taffo.initweight !131, !llfi_index !140
  %98 = invoke noundef nonnull align 8 dereferenceable(16) %"class.std::basic_istream"* @_ZNSirsERf(%"class.std::basic_istream"* noundef nonnull align 8 dereferenceable(16) %95, float* noundef nonnull align 4 dereferenceable(4) %97)
          to label %99 unwind label %75, !taffo.structinfo !48, !taffo.initweight !90, !llfi_index !141, !taffo.constinfo !73

99:                                               ; preds = %96
  %fi91 = call i64 @injectFault0(i64 98, i64 0, i32 34, i32 0, i32 2, i32 2, i8* getelementptr inbounds ([14 x i8], [14 x i8]* @getelementptr_namestr, i32 0, i32 0)), !llfi_injectfault !18
  %fi92 = call i64 @injectFault0(i64 98, i64 5, i32 34, i32 1, i32 2, i32 3, i8* getelementptr inbounds ([14 x i8], [14 x i8]* @getelementptr_namestr, i32 0, i32 0)), !llfi_injectfault !18
  %100 = getelementptr [18 x float], [18 x float]* %10, i64 %fi91, i64 %fi92, !taffo.info !26, !taffo.initweight !131, !llfi_index !142
  %101 = invoke noundef nonnull align 8 dereferenceable(16) %"class.std::basic_istream"* @_ZNSirsERf(%"class.std::basic_istream"* noundef nonnull align 8 dereferenceable(16) %98, float* noundef nonnull align 4 dereferenceable(4) %100)
          to label %102 unwind label %75, !taffo.structinfo !48, !taffo.initweight !90, !llfi_index !143, !taffo.constinfo !73

102:                                              ; preds = %99
  %fi93 = call i64 @injectFault0(i64 100, i64 0, i32 34, i32 0, i32 2, i32 2, i8* getelementptr inbounds ([14 x i8], [14 x i8]* @getelementptr_namestr, i32 0, i32 0)), !llfi_injectfault !18
  %fi94 = call i64 @injectFault0(i64 100, i64 6, i32 34, i32 1, i32 2, i32 3, i8* getelementptr inbounds ([14 x i8], [14 x i8]* @getelementptr_namestr, i32 0, i32 0)), !llfi_injectfault !18
  %103 = getelementptr [18 x float], [18 x float]* %10, i64 %fi93, i64 %fi94, !taffo.info !26, !taffo.initweight !131, !llfi_index !144
  %104 = invoke noundef nonnull align 8 dereferenceable(16) %"class.std::basic_istream"* @_ZNSirsERf(%"class.std::basic_istream"* noundef nonnull align 8 dereferenceable(16) %101, float* noundef nonnull align 4 dereferenceable(4) %103)
          to label %105 unwind label %75, !taffo.structinfo !48, !taffo.initweight !90, !llfi_index !145, !taffo.constinfo !73

105:                                              ; preds = %102
  %fi95 = call i64 @injectFault0(i64 102, i64 0, i32 34, i32 0, i32 2, i32 2, i8* getelementptr inbounds ([14 x i8], [14 x i8]* @getelementptr_namestr, i32 0, i32 0)), !llfi_injectfault !18
  %fi96 = call i64 @injectFault0(i64 102, i64 7, i32 34, i32 1, i32 2, i32 3, i8* getelementptr inbounds ([14 x i8], [14 x i8]* @getelementptr_namestr, i32 0, i32 0)), !llfi_injectfault !18
  %106 = getelementptr [18 x float], [18 x float]* %10, i64 %fi95, i64 %fi96, !taffo.info !26, !taffo.initweight !131, !llfi_index !146
  %107 = invoke noundef nonnull align 8 dereferenceable(16) %"class.std::basic_istream"* @_ZNSirsERf(%"class.std::basic_istream"* noundef nonnull align 8 dereferenceable(16) %104, float* noundef nonnull align 4 dereferenceable(4) %106)
          to label %108 unwind label %75, !taffo.structinfo !48, !taffo.initweight !90, !llfi_index !147, !taffo.constinfo !73

108:                                              ; preds = %105
  %fi97 = call i64 @injectFault0(i64 104, i64 0, i32 34, i32 0, i32 2, i32 2, i8* getelementptr inbounds ([14 x i8], [14 x i8]* @getelementptr_namestr, i32 0, i32 0)), !llfi_injectfault !18
  %fi98 = call i64 @injectFault0(i64 104, i64 8, i32 34, i32 1, i32 2, i32 3, i8* getelementptr inbounds ([14 x i8], [14 x i8]* @getelementptr_namestr, i32 0, i32 0)), !llfi_injectfault !18
  %109 = getelementptr [18 x float], [18 x float]* %10, i64 %fi97, i64 %fi98, !taffo.info !26, !taffo.initweight !131, !llfi_index !148
  %110 = invoke noundef nonnull align 8 dereferenceable(16) %"class.std::basic_istream"* @_ZNSirsERf(%"class.std::basic_istream"* noundef nonnull align 8 dereferenceable(16) %107, float* noundef nonnull align 4 dereferenceable(4) %109)
          to label %111 unwind label %75, !taffo.structinfo !48, !taffo.initweight !90, !llfi_index !149, !taffo.constinfo !73

111:                                              ; preds = %108
  %fi99 = call i64 @injectFault0(i64 106, i64 0, i32 34, i32 0, i32 2, i32 2, i8* getelementptr inbounds ([14 x i8], [14 x i8]* @getelementptr_namestr, i32 0, i32 0)), !llfi_injectfault !18
  %fi100 = call i64 @injectFault0(i64 106, i64 9, i32 34, i32 1, i32 2, i32 3, i8* getelementptr inbounds ([14 x i8], [14 x i8]* @getelementptr_namestr, i32 0, i32 0)), !llfi_injectfault !18
  %112 = getelementptr [18 x float], [18 x float]* %10, i64 %fi99, i64 %fi100, !taffo.info !26, !taffo.initweight !131, !llfi_index !150
  %113 = invoke noundef nonnull align 8 dereferenceable(16) %"class.std::basic_istream"* @_ZNSirsERf(%"class.std::basic_istream"* noundef nonnull align 8 dereferenceable(16) %110, float* noundef nonnull align 4 dereferenceable(4) %112)
          to label %114 unwind label %75, !taffo.structinfo !48, !taffo.initweight !90, !llfi_index !151, !taffo.constinfo !73

114:                                              ; preds = %111
  %fi101 = call i64 @injectFault0(i64 108, i64 0, i32 34, i32 0, i32 2, i32 2, i8* getelementptr inbounds ([14 x i8], [14 x i8]* @getelementptr_namestr, i32 0, i32 0)), !llfi_injectfault !18
  %fi102 = call i64 @injectFault0(i64 108, i64 10, i32 34, i32 1, i32 2, i32 3, i8* getelementptr inbounds ([14 x i8], [14 x i8]* @getelementptr_namestr, i32 0, i32 0)), !llfi_injectfault !18
  %115 = getelementptr [18 x float], [18 x float]* %10, i64 %fi101, i64 %fi102, !taffo.info !26, !taffo.initweight !131, !llfi_index !152
  %116 = invoke noundef nonnull align 8 dereferenceable(16) %"class.std::basic_istream"* @_ZNSirsERf(%"class.std::basic_istream"* noundef nonnull align 8 dereferenceable(16) %113, float* noundef nonnull align 4 dereferenceable(4) %115)
          to label %117 unwind label %75, !taffo.structinfo !48, !taffo.initweight !90, !llfi_index !153, !taffo.constinfo !73

117:                                              ; preds = %114
  %fi103 = call i64 @injectFault0(i64 110, i64 0, i32 34, i32 0, i32 2, i32 2, i8* getelementptr inbounds ([14 x i8], [14 x i8]* @getelementptr_namestr, i32 0, i32 0)), !llfi_injectfault !18
  %fi104 = call i64 @injectFault0(i64 110, i64 11, i32 34, i32 1, i32 2, i32 3, i8* getelementptr inbounds ([14 x i8], [14 x i8]* @getelementptr_namestr, i32 0, i32 0)), !llfi_injectfault !18
  %118 = getelementptr [18 x float], [18 x float]* %10, i64 %fi103, i64 %fi104, !taffo.info !26, !taffo.initweight !131, !llfi_index !154
  %119 = invoke noundef nonnull align 8 dereferenceable(16) %"class.std::basic_istream"* @_ZNSirsERf(%"class.std::basic_istream"* noundef nonnull align 8 dereferenceable(16) %116, float* noundef nonnull align 4 dereferenceable(4) %118)
          to label %120 unwind label %75, !taffo.structinfo !48, !taffo.initweight !90, !llfi_index !155, !taffo.constinfo !73

120:                                              ; preds = %117
  %fi105 = call i64 @injectFault0(i64 112, i64 0, i32 34, i32 0, i32 2, i32 2, i8* getelementptr inbounds ([14 x i8], [14 x i8]* @getelementptr_namestr, i32 0, i32 0)), !llfi_injectfault !18
  %fi106 = call i64 @injectFault0(i64 112, i64 12, i32 34, i32 1, i32 2, i32 3, i8* getelementptr inbounds ([14 x i8], [14 x i8]* @getelementptr_namestr, i32 0, i32 0)), !llfi_injectfault !18
  %121 = getelementptr [18 x float], [18 x float]* %10, i64 %fi105, i64 %fi106, !taffo.info !26, !taffo.initweight !131, !llfi_index !156
  %122 = invoke noundef nonnull align 8 dereferenceable(16) %"class.std::basic_istream"* @_ZNSirsERf(%"class.std::basic_istream"* noundef nonnull align 8 dereferenceable(16) %119, float* noundef nonnull align 4 dereferenceable(4) %121)
          to label %123 unwind label %75, !taffo.structinfo !48, !taffo.initweight !90, !llfi_index !157, !taffo.constinfo !73

123:                                              ; preds = %120
  %fi107 = call i64 @injectFault0(i64 114, i64 0, i32 34, i32 0, i32 2, i32 2, i8* getelementptr inbounds ([14 x i8], [14 x i8]* @getelementptr_namestr, i32 0, i32 0)), !llfi_injectfault !18
  %fi108 = call i64 @injectFault0(i64 114, i64 13, i32 34, i32 1, i32 2, i32 3, i8* getelementptr inbounds ([14 x i8], [14 x i8]* @getelementptr_namestr, i32 0, i32 0)), !llfi_injectfault !18
  %124 = getelementptr [18 x float], [18 x float]* %10, i64 %fi107, i64 %fi108, !taffo.info !26, !taffo.initweight !131, !llfi_index !158
  %125 = invoke noundef nonnull align 8 dereferenceable(16) %"class.std::basic_istream"* @_ZNSirsERf(%"class.std::basic_istream"* noundef nonnull align 8 dereferenceable(16) %122, float* noundef nonnull align 4 dereferenceable(4) %124)
          to label %126 unwind label %75, !taffo.structinfo !48, !taffo.initweight !90, !llfi_index !159, !taffo.constinfo !73

126:                                              ; preds = %123
  %fi109 = call i64 @injectFault0(i64 116, i64 0, i32 34, i32 0, i32 2, i32 2, i8* getelementptr inbounds ([14 x i8], [14 x i8]* @getelementptr_namestr, i32 0, i32 0)), !llfi_injectfault !18
  %fi110 = call i64 @injectFault0(i64 116, i64 14, i32 34, i32 1, i32 2, i32 3, i8* getelementptr inbounds ([14 x i8], [14 x i8]* @getelementptr_namestr, i32 0, i32 0)), !llfi_injectfault !18
  %127 = getelementptr [18 x float], [18 x float]* %10, i64 %fi109, i64 %fi110, !taffo.info !26, !taffo.initweight !131, !llfi_index !160
  %128 = invoke noundef nonnull align 8 dereferenceable(16) %"class.std::basic_istream"* @_ZNSirsERf(%"class.std::basic_istream"* noundef nonnull align 8 dereferenceable(16) %125, float* noundef nonnull align 4 dereferenceable(4) %127)
          to label %129 unwind label %75, !taffo.structinfo !48, !taffo.initweight !90, !llfi_index !161, !taffo.constinfo !73

129:                                              ; preds = %126
  %fi111 = call i64 @injectFault0(i64 118, i64 0, i32 34, i32 0, i32 2, i32 2, i8* getelementptr inbounds ([14 x i8], [14 x i8]* @getelementptr_namestr, i32 0, i32 0)), !llfi_injectfault !18
  %fi112 = call i64 @injectFault0(i64 118, i64 15, i32 34, i32 1, i32 2, i32 3, i8* getelementptr inbounds ([14 x i8], [14 x i8]* @getelementptr_namestr, i32 0, i32 0)), !llfi_injectfault !18
  %130 = getelementptr [18 x float], [18 x float]* %10, i64 %fi111, i64 %fi112, !taffo.info !26, !taffo.initweight !131, !llfi_index !162
  %131 = invoke noundef nonnull align 8 dereferenceable(16) %"class.std::basic_istream"* @_ZNSirsERf(%"class.std::basic_istream"* noundef nonnull align 8 dereferenceable(16) %128, float* noundef nonnull align 4 dereferenceable(4) %130)
          to label %132 unwind label %75, !taffo.structinfo !48, !taffo.initweight !90, !llfi_index !163, !taffo.constinfo !73

132:                                              ; preds = %129
  %fi113 = call i64 @injectFault0(i64 120, i64 0, i32 34, i32 0, i32 2, i32 2, i8* getelementptr inbounds ([14 x i8], [14 x i8]* @getelementptr_namestr, i32 0, i32 0)), !llfi_injectfault !18
  %fi114 = call i64 @injectFault0(i64 120, i64 16, i32 34, i32 1, i32 2, i32 3, i8* getelementptr inbounds ([14 x i8], [14 x i8]* @getelementptr_namestr, i32 0, i32 0)), !llfi_injectfault !18
  %133 = getelementptr [18 x float], [18 x float]* %10, i64 %fi113, i64 %fi114, !taffo.info !26, !taffo.initweight !131, !llfi_index !164
  %134 = invoke noundef nonnull align 8 dereferenceable(16) %"class.std::basic_istream"* @_ZNSirsERf(%"class.std::basic_istream"* noundef nonnull align 8 dereferenceable(16) %131, float* noundef nonnull align 4 dereferenceable(4) %133)
          to label %135 unwind label %75, !taffo.structinfo !48, !taffo.initweight !90, !llfi_index !165, !taffo.constinfo !73

135:                                              ; preds = %132
  %fi115 = call i64 @injectFault0(i64 122, i64 0, i32 34, i32 0, i32 2, i32 2, i8* getelementptr inbounds ([14 x i8], [14 x i8]* @getelementptr_namestr, i32 0, i32 0)), !llfi_injectfault !18
  %fi116 = call i64 @injectFault0(i64 122, i64 17, i32 34, i32 1, i32 2, i32 3, i8* getelementptr inbounds ([14 x i8], [14 x i8]* @getelementptr_namestr, i32 0, i32 0)), !llfi_injectfault !18
  %136 = getelementptr [18 x float], [18 x float]* %10, i64 %fi115, i64 %fi116, !taffo.info !26, !taffo.initweight !131, !llfi_index !166
  %137 = invoke noundef nonnull align 8 dereferenceable(16) %"class.std::basic_istream"* @_ZNSirsERf(%"class.std::basic_istream"* noundef nonnull align 8 dereferenceable(16) %134, float* noundef nonnull align 4 dereferenceable(4) %136)
          to label %138 unwind label %75, !taffo.structinfo !48, !taffo.initweight !90, !llfi_index !167, !taffo.constinfo !73

138:                                              ; preds = %135
  br label %139, !llfi_index !168

139:                                              ; preds = %150, %138
  %.02 = phi i32 [ 0, %138 ], [ %fi142, %150 ], !taffo.info !124, !llfi_index !169
  %fi117 = call i32 @injectFault1(i64 125, i32 %.02, i32 55, i32 0, i32 1, i32 0, i8* getelementptr inbounds ([4 x i8], [4 x i8]* @phi_namestr, i32 0, i32 0)), !llfi_injectfault !44
  %fi119 = call i32 @injectFault1(i64 126, i32 %fi117, i32 53, i32 1, i32 3, i32 1, i8* getelementptr inbounds ([5 x i8], [5 x i8]* @icmp_namestr, i32 0, i32 0)), !llfi_injectfault !18
  %fi120 = call i32 @injectFault1(i64 126, i32 18, i32 53, i32 2, i32 3, i32 2, i8* getelementptr inbounds ([5 x i8], [5 x i8]* @icmp_namestr, i32 0, i32 0)), !llfi_injectfault !18
  %140 = icmp slt i32 %fi119, %fi120, !taffo.info !170, !llfi_index !172
  %fi118 = call i1 @injectFault3(i64 126, i1 %140, i32 53, i32 0, i32 3, i32 0, i8* getelementptr inbounds ([5 x i8], [5 x i8]* @icmp_namestr, i32 0, i32 0)), !llfi_injectfault !44
  %fi121 = call i1 @injectFault3(i64 127, i1 %fi118, i32 2, i32 0, i32 1, i32 1, i8* getelementptr inbounds ([3 x i8], [3 x i8]* @br_namestr, i32 0, i32 0)), !llfi_injectfault !18
  br i1 %fi121, label %141, label %152, !llfi_index !173

141:                                              ; preds = %139
  %fi123 = call i32 @injectFault1(i64 128, i32 %fi117, i32 40, i32 1, i32 2, i32 1, i8* getelementptr inbounds ([5 x i8], [5 x i8]* @sext_namestr, i32 0, i32 0)), !llfi_injectfault !18
  %142 = sext i32 %fi123 to i64, !taffo.info !174, !llfi_index !176
  %fi122 = call i64 @injectFault0(i64 128, i64 %142, i32 40, i32 0, i32 2, i32 0, i8* getelementptr inbounds ([5 x i8], [5 x i8]* @sext_namestr, i32 0, i32 0)), !llfi_injectfault !44
  %fi124 = call i64 @injectFault0(i64 129, i64 0, i32 34, i32 0, i32 2, i32 2, i8* getelementptr inbounds ([14 x i8], [14 x i8]* @getelementptr_namestr, i32 0, i32 0)), !llfi_injectfault !18
  %fi125 = call i64 @injectFault0(i64 129, i64 %fi122, i32 34, i32 1, i32 2, i32 3, i8* getelementptr inbounds ([14 x i8], [14 x i8]* @getelementptr_namestr, i32 0, i32 0)), !llfi_injectfault !18
  %143 = getelementptr [18 x float], [18 x float]* %10, i64 %fi124, i64 %fi125, !taffo.info !26, !taffo.initweight !131, !llfi_index !177
  %144 = load float, float* %143, align 4, !taffo.info !26, !taffo.initweight !90, !llfi_index !178
  %fi126 = call float @injectFault5(i64 130, float %144, i32 32, i32 0, i32 1, i32 0, i8* getelementptr inbounds ([5 x i8], [5 x i8]* @load_namestr, i32 0, i32 0)), !llfi_injectfault !44
  %fi128 = call float @injectFault5(i64 131, float 0x41D0000000000000, i32 18, i32 1, i32 3, i32 1, i8* getelementptr inbounds ([5 x i8], [5 x i8]* @fmul_namestr, i32 0, i32 0)), !llfi_injectfault !18
  %fi129 = call float @injectFault5(i64 131, float %fi126, i32 18, i32 2, i32 3, i32 2, i8* getelementptr inbounds ([5 x i8], [5 x i8]* @fmul_namestr, i32 0, i32 0)), !llfi_injectfault !18
  %145 = fmul float %fi128, %fi129, !taffo.info !26, !llfi_index !179
  %fi127 = call float @injectFault5(i64 131, float %145, i32 18, i32 0, i32 3, i32 0, i8* getelementptr inbounds ([5 x i8], [5 x i8]* @fmul_namestr, i32 0, i32 0)), !llfi_injectfault !44
  %fi131 = call float @injectFault5(i64 132, float %fi127, i32 42, i32 1, i32 2, i32 1, i8* getelementptr inbounds ([7 x i8], [7 x i8]* @fptosi_namestr, i32 0, i32 0)), !llfi_injectfault !18
  %146 = fptosi float %fi131 to i32, !taffo.info !26, !llfi_index !180
  %fi130 = call i32 @injectFault1(i64 132, i32 %146, i32 42, i32 0, i32 2, i32 0, i8* getelementptr inbounds ([7 x i8], [7 x i8]* @fptosi_namestr, i32 0, i32 0)), !llfi_injectfault !44
  %fi133 = call i32 @injectFault1(i64 133, i32 %fi59, i32 17, i32 1, i32 3, i32 1, i8* getelementptr inbounds ([4 x i8], [4 x i8]* @mul_namestr, i32 0, i32 0)), !llfi_injectfault !18
  %fi134 = call i32 @injectFault1(i64 133, i32 18, i32 17, i32 2, i32 3, i32 2, i8* getelementptr inbounds ([4 x i8], [4 x i8]* @mul_namestr, i32 0, i32 0)), !llfi_injectfault !18
  %147 = mul nsw i32 %fi133, %fi134, !taffo.info !174, !llfi_index !181, !taffo.constinfo !55
  %fi132 = call i32 @injectFault1(i64 133, i32 %147, i32 17, i32 0, i32 3, i32 0, i8* getelementptr inbounds ([4 x i8], [4 x i8]* @mul_namestr, i32 0, i32 0)), !llfi_injectfault !44
  %fi136 = call i32 @injectFault1(i64 134, i32 %fi132, i32 13, i32 1, i32 3, i32 1, i8* getelementptr inbounds ([4 x i8], [4 x i8]* @add_namestr, i32 0, i32 0)), !llfi_injectfault !18
  %fi137 = call i32 @injectFault1(i64 134, i32 %fi117, i32 13, i32 2, i32 3, i32 2, i8* getelementptr inbounds ([4 x i8], [4 x i8]* @add_namestr, i32 0, i32 0)), !llfi_injectfault !18
  %148 = add nsw i32 %fi136, %fi137, !taffo.info !174, !llfi_index !182
  %fi135 = call i32 @injectFault1(i64 134, i32 %148, i32 13, i32 0, i32 3, i32 0, i8* getelementptr inbounds ([4 x i8], [4 x i8]* @add_namestr, i32 0, i32 0)), !llfi_injectfault !44
  %fi139 = call i32 @injectFault1(i64 135, i32 %fi135, i32 40, i32 1, i32 2, i32 1, i8* getelementptr inbounds ([5 x i8], [5 x i8]* @sext_namestr, i32 0, i32 0)), !llfi_injectfault !18
  %149 = sext i32 %fi139 to i64, !taffo.info !174, !llfi_index !183
  %fi138 = call i64 @injectFault0(i64 135, i64 %149, i32 40, i32 0, i32 2, i32 0, i8* getelementptr inbounds ([5 x i8], [5 x i8]* @sext_namestr, i32 0, i32 0)), !llfi_injectfault !44
  %fi140 = call i64 @injectFault0(i64 136, i64 %fi138, i32 34, i32 0, i32 1, i32 2, i8* getelementptr inbounds ([14 x i8], [14 x i8]* @getelementptr_namestr, i32 0, i32 0)), !llfi_injectfault !18
  %s2_30fixp8 = getelementptr i32, i32* %s2_30fixp, i64 %fi140, !taffo.info !84, !llfi_index !184
  %fi141 = call i32 @injectFault1(i64 137, i32 %fi130, i32 33, i32 0, i32 1, i32 1, i8* getelementptr inbounds ([6 x i8], [6 x i8]* @store_namestr, i32 0, i32 0)), !llfi_injectfault !18
  store i32 %fi141, i32* %s2_30fixp8, align 4, !taffo.info !92, !llfi_index !185
  br label %150, !llfi_index !186

150:                                              ; preds = %141
  %fi143 = call i32 @injectFault1(i64 139, i32 %fi117, i32 13, i32 1, i32 3, i32 1, i8* getelementptr inbounds ([4 x i8], [4 x i8]* @add_namestr, i32 0, i32 0)), !llfi_injectfault !18
  %fi144 = call i32 @injectFault1(i64 139, i32 1, i32 13, i32 2, i32 3, i32 2, i8* getelementptr inbounds ([4 x i8], [4 x i8]* @add_namestr, i32 0, i32 0)), !llfi_injectfault !18
  %151 = add nsw i32 %fi143, %fi144, !taffo.info !170, !llfi_index !187, !taffo.constinfo !55
  %fi142 = call i32 @injectFault1(i64 139, i32 %151, i32 13, i32 0, i32 3, i32 0, i8* getelementptr inbounds ([4 x i8], [4 x i8]* @add_namestr, i32 0, i32 0)), !llfi_injectfault !44
  br label %139, !llvm.loop !188, !llfi_index !190

152:                                              ; preds = %139
  %fi146 = call i32 @injectFault1(i64 141, i32 %fi59, i32 13, i32 1, i32 3, i32 1, i8* getelementptr inbounds ([4 x i8], [4 x i8]* @add_namestr, i32 0, i32 0)), !llfi_injectfault !18
  %fi147 = call i32 @injectFault1(i64 141, i32 1, i32 13, i32 2, i32 3, i32 2, i8* getelementptr inbounds ([4 x i8], [4 x i8]* @add_namestr, i32 0, i32 0)), !llfi_injectfault !18
  %153 = add nsw i32 %fi146, %fi147, !taffo.info !170, !llfi_index !191, !taffo.constinfo !55
  %fi145 = call i32 @injectFault1(i64 141, i32 %153, i32 13, i32 0, i32 3, i32 0, i8* getelementptr inbounds ([4 x i8], [4 x i8]* @add_namestr, i32 0, i32 0)), !llfi_injectfault !44
  br label %80, !llvm.loop !192, !llfi_index !193

154:                                              ; preds = %80
  %155 = bitcast [6 x i32]* %11 to i8*, !llfi_index !194
  call void @llvm.memset.p0i8.i64(i8* align 16 %155, i8 0, i64 24, i1 false), !llfi_index !195, !taffo.constinfo !73
  invoke void @_ZN12AxBenchTimerC2Ev(%class.AxBenchTimer* noundef nonnull align 8 dereferenceable(16) %12)
          to label %156 unwind label %75, !llfi_index !196, !taffo.constinfo !62

156:                                              ; preds = %154
  br label %157, !llfi_index !197

157:                                              ; preds = %193, %156
  %.19 = phi i32 [ 0, %156 ], [ %fi78, %193 ], !taffo.info !198, !llfi_index !200
  %.01 = phi i64 [ 0, %156 ], [ %fi188, %193 ], !taffo.info !174, !llfi_index !201
  %fi149 = call i64 @injectFault0(i64 148, i64 %.01, i32 55, i32 0, i32 1, i32 0, i8* getelementptr inbounds ([4 x i8], [4 x i8]* @phi_namestr, i32 0, i32 0)), !llfi_injectfault !44
  %fi148 = call i32 @injectFault1(i64 147, i32 %.19, i32 55, i32 0, i32 1, i32 0, i8* getelementptr inbounds ([4 x i8], [4 x i8]* @phi_namestr, i32 0, i32 0)), !llfi_injectfault !44
  %158 = load i32, i32* %3, align 4, !llfi_index !202
  %fi150 = call i32 @injectFault1(i64 149, i32 %158, i32 32, i32 0, i32 1, i32 0, i8* getelementptr inbounds ([5 x i8], [5 x i8]* @load_namestr, i32 0, i32 0)), !llfi_injectfault !44
  %fi152 = call i32 @injectFault1(i64 150, i32 %fi150, i32 17, i32 1, i32 3, i32 1, i8* getelementptr inbounds ([4 x i8], [4 x i8]* @mul_namestr, i32 0, i32 0)), !llfi_injectfault !18
  %fi153 = call i32 @injectFault1(i64 150, i32 6, i32 17, i32 2, i32 3, i32 2, i8* getelementptr inbounds ([4 x i8], [4 x i8]* @mul_namestr, i32 0, i32 0)), !llfi_injectfault !18
  %159 = mul nsw i32 %fi152, %fi153, !llfi_index !203, !taffo.constinfo !55
  %fi151 = call i32 @injectFault1(i64 150, i32 %159, i32 17, i32 0, i32 3, i32 0, i8* getelementptr inbounds ([4 x i8], [4 x i8]* @mul_namestr, i32 0, i32 0)), !llfi_injectfault !44
  %fi155 = call i32 @injectFault1(i64 151, i32 %fi151, i32 17, i32 1, i32 3, i32 1, i8* getelementptr inbounds ([4 x i8], [4 x i8]* @mul_namestr, i32 0, i32 0)), !llfi_injectfault !18
  %fi156 = call i32 @injectFault1(i64 151, i32 3, i32 17, i32 2, i32 3, i32 2, i8* getelementptr inbounds ([4 x i8], [4 x i8]* @mul_namestr, i32 0, i32 0)), !llfi_injectfault !18
  %160 = mul nsw i32 %fi155, %fi156, !llfi_index !204, !taffo.constinfo !55
  %fi154 = call i32 @injectFault1(i64 151, i32 %160, i32 17, i32 0, i32 3, i32 0, i8* getelementptr inbounds ([4 x i8], [4 x i8]* @mul_namestr, i32 0, i32 0)), !llfi_injectfault !44
  %fi158 = call i32 @injectFault1(i64 152, i32 %fi148, i32 53, i32 1, i32 3, i32 1, i8* getelementptr inbounds ([5 x i8], [5 x i8]* @icmp_namestr, i32 0, i32 0)), !llfi_injectfault !18
  %fi159 = call i32 @injectFault1(i64 152, i32 %fi154, i32 53, i32 2, i32 3, i32 2, i8* getelementptr inbounds ([5 x i8], [5 x i8]* @icmp_namestr, i32 0, i32 0)), !llfi_injectfault !18
  %161 = icmp slt i32 %fi158, %fi159, !taffo.info !124, !llfi_index !205
  %fi157 = call i1 @injectFault3(i64 152, i1 %161, i32 53, i32 0, i32 3, i32 0, i8* getelementptr inbounds ([5 x i8], [5 x i8]* @icmp_namestr, i32 0, i32 0)), !llfi_injectfault !44
  %fi160 = call i1 @injectFault3(i64 153, i1 %fi157, i32 2, i32 0, i32 1, i32 1, i8* getelementptr inbounds ([3 x i8], [3 x i8]* @br_namestr, i32 0, i32 0)), !llfi_injectfault !18
  br i1 %fi160, label %162, label %195, !llfi_index !206

162:                                              ; preds = %157
  %fi161 = call i32 @injectFault1(i64 154, i32 -1, i32 33, i32 0, i32 1, i32 1, i8* getelementptr inbounds ([6 x i8], [6 x i8]* @store_namestr, i32 0, i32 0)), !llfi_injectfault !18
  store i32 %fi161, i32* %13, align 4, !llfi_index !207, !taffo.constinfo !55
  %fi163 = call i32 @injectFault1(i64 155, i32 %fi148, i32 40, i32 1, i32 2, i32 1, i8* getelementptr inbounds ([5 x i8], [5 x i8]* @sext_namestr, i32 0, i32 0)), !llfi_injectfault !18
  %163 = sext i32 %fi163 to i64, !taffo.info !174, !llfi_index !208
  %fi162 = call i64 @injectFault0(i64 155, i64 %163, i32 40, i32 0, i32 2, i32 0, i8* getelementptr inbounds ([5 x i8], [5 x i8]* @sext_namestr, i32 0, i32 0)), !llfi_injectfault !44
  %fi164 = call i64 @injectFault0(i64 156, i64 %fi162, i32 34, i32 0, i32 1, i32 2, i8* getelementptr inbounds ([14 x i8], [14 x i8]* @getelementptr_namestr, i32 0, i32 0)), !llfi_injectfault !18
  %s2_30fixp7 = getelementptr i32, i32* %s2_30fixp, i64 %fi164, !taffo.info !84, !llfi_index !209
  %fi165 = call i64 @injectFault0(i64 157, i64 0, i32 34, i32 0, i32 1, i32 2, i8* getelementptr inbounds ([14 x i8], [14 x i8]* @getelementptr_namestr, i32 0, i32 0)), !llfi_injectfault !18
  %s2_30fixp14 = getelementptr i32, i32* %s2_30fixp7, i64 %fi165, !taffo.info !210, !llfi_index !211
  %fi167 = call i32 @injectFault1(i64 158, i32 %fi148, i32 40, i32 1, i32 2, i32 1, i8* getelementptr inbounds ([5 x i8], [5 x i8]* @sext_namestr, i32 0, i32 0)), !llfi_injectfault !18
  %164 = sext i32 %fi167 to i64, !taffo.info !174, !llfi_index !212
  %fi166 = call i64 @injectFault0(i64 158, i64 %164, i32 40, i32 0, i32 2, i32 0, i8* getelementptr inbounds ([5 x i8], [5 x i8]* @sext_namestr, i32 0, i32 0)), !llfi_injectfault !44
  %fi168 = call i64 @injectFault0(i64 159, i64 %fi166, i32 34, i32 0, i32 1, i32 2, i8* getelementptr inbounds ([14 x i8], [14 x i8]* @getelementptr_namestr, i32 0, i32 0)), !llfi_injectfault !18
  %s2_30fixp6 = getelementptr i32, i32* %s2_30fixp, i64 %fi168, !taffo.info !84, !llfi_index !213
  %fi169 = call i64 @injectFault0(i64 160, i64 3, i32 34, i32 0, i32 1, i32 2, i8* getelementptr inbounds ([14 x i8], [14 x i8]* @getelementptr_namestr, i32 0, i32 0)), !llfi_injectfault !18
  %s2_30fixp13 = getelementptr i32, i32* %s2_30fixp6, i64 %fi169, !taffo.info !210, !llfi_index !214
  %fi171 = call i32 @injectFault1(i64 161, i32 %fi148, i32 40, i32 1, i32 2, i32 1, i8* getelementptr inbounds ([5 x i8], [5 x i8]* @sext_namestr, i32 0, i32 0)), !llfi_injectfault !18
  %165 = sext i32 %fi171 to i64, !taffo.info !174, !llfi_index !215
  %fi170 = call i64 @injectFault0(i64 161, i64 %165, i32 40, i32 0, i32 2, i32 0, i8* getelementptr inbounds ([5 x i8], [5 x i8]* @sext_namestr, i32 0, i32 0)), !llfi_injectfault !44
  %fi172 = call i64 @injectFault0(i64 162, i64 %fi170, i32 34, i32 0, i32 1, i32 2, i8* getelementptr inbounds ([14 x i8], [14 x i8]* @getelementptr_namestr, i32 0, i32 0)), !llfi_injectfault !18
  %s2_30fixp5 = getelementptr i32, i32* %s2_30fixp, i64 %fi172, !taffo.info !84, !llfi_index !216
  %fi173 = call i64 @injectFault0(i64 163, i64 6, i32 34, i32 0, i32 1, i32 2, i8* getelementptr inbounds ([14 x i8], [14 x i8]* @getelementptr_namestr, i32 0, i32 0)), !llfi_injectfault !18
  %s2_30fixp12 = getelementptr i32, i32* %s2_30fixp5, i64 %fi173, !taffo.info !210, !llfi_index !217
  %fi175 = call i32 @injectFault1(i64 164, i32 %fi148, i32 40, i32 1, i32 2, i32 1, i8* getelementptr inbounds ([5 x i8], [5 x i8]* @sext_namestr, i32 0, i32 0)), !llfi_injectfault !18
  %166 = sext i32 %fi175 to i64, !taffo.info !174, !llfi_index !218
  %fi174 = call i64 @injectFault0(i64 164, i64 %166, i32 40, i32 0, i32 2, i32 0, i8* getelementptr inbounds ([5 x i8], [5 x i8]* @sext_namestr, i32 0, i32 0)), !llfi_injectfault !44
  %fi176 = call i64 @injectFault0(i64 165, i64 %fi174, i32 34, i32 0, i32 1, i32 2, i8* getelementptr inbounds ([14 x i8], [14 x i8]* @getelementptr_namestr, i32 0, i32 0)), !llfi_injectfault !18
  %s2_30fixp4 = getelementptr i32, i32* %s2_30fixp, i64 %fi176, !taffo.info !84, !llfi_index !219
  %fi177 = call i64 @injectFault0(i64 166, i64 9, i32 34, i32 0, i32 1, i32 2, i8* getelementptr inbounds ([14 x i8], [14 x i8]* @getelementptr_namestr, i32 0, i32 0)), !llfi_injectfault !18
  %s2_30fixp11 = getelementptr i32, i32* %s2_30fixp4, i64 %fi177, !taffo.info !210, !llfi_index !220
  %fi179 = call i32 @injectFault1(i64 167, i32 %fi148, i32 40, i32 1, i32 2, i32 1, i8* getelementptr inbounds ([5 x i8], [5 x i8]* @sext_namestr, i32 0, i32 0)), !llfi_injectfault !18
  %167 = sext i32 %fi179 to i64, !taffo.info !174, !llfi_index !221
  %fi178 = call i64 @injectFault0(i64 167, i64 %167, i32 40, i32 0, i32 2, i32 0, i8* getelementptr inbounds ([5 x i8], [5 x i8]* @sext_namestr, i32 0, i32 0)), !llfi_injectfault !44
  %fi180 = call i64 @injectFault0(i64 168, i64 %fi178, i32 34, i32 0, i32 1, i32 2, i8* getelementptr inbounds ([14 x i8], [14 x i8]* @getelementptr_namestr, i32 0, i32 0)), !llfi_injectfault !18
  %s2_30fixp3 = getelementptr i32, i32* %s2_30fixp, i64 %fi180, !taffo.info !84, !llfi_index !222
  %fi181 = call i64 @injectFault0(i64 169, i64 12, i32 34, i32 0, i32 1, i32 2, i8* getelementptr inbounds ([14 x i8], [14 x i8]* @getelementptr_namestr, i32 0, i32 0)), !llfi_injectfault !18
  %s2_30fixp10 = getelementptr i32, i32* %s2_30fixp3, i64 %fi181, !taffo.info !210, !llfi_index !223
  %fi183 = call i32 @injectFault1(i64 170, i32 %fi148, i32 40, i32 1, i32 2, i32 1, i8* getelementptr inbounds ([5 x i8], [5 x i8]* @sext_namestr, i32 0, i32 0)), !llfi_injectfault !18
  %168 = sext i32 %fi183 to i64, !taffo.info !174, !llfi_index !224
  %fi182 = call i64 @injectFault0(i64 170, i64 %168, i32 40, i32 0, i32 2, i32 0, i8* getelementptr inbounds ([5 x i8], [5 x i8]* @sext_namestr, i32 0, i32 0)), !llfi_injectfault !44
  %fi184 = call i64 @injectFault0(i64 171, i64 %fi182, i32 34, i32 0, i32 1, i32 2, i8* getelementptr inbounds ([14 x i8], [14 x i8]* @getelementptr_namestr, i32 0, i32 0)), !llfi_injectfault !18
  %s2_30fixp2 = getelementptr i32, i32* %s2_30fixp, i64 %fi184, !taffo.info !84, !llfi_index !225
  %fi185 = call i64 @injectFault0(i64 172, i64 15, i32 34, i32 0, i32 1, i32 2, i8* getelementptr inbounds ([14 x i8], [14 x i8]* @getelementptr_namestr, i32 0, i32 0)), !llfi_injectfault !18
  %s2_30fixp9 = getelementptr i32, i32* %s2_30fixp2, i64 %fi185, !taffo.info !210, !llfi_index !226
  %fi186 = call i64 @injectFault0(i64 173, i64 0, i32 34, i32 0, i32 2, i32 2, i8* getelementptr inbounds ([14 x i8], [14 x i8]* @getelementptr_namestr, i32 0, i32 0)), !llfi_injectfault !18
  %fi187 = call i64 @injectFault0(i64 173, i64 0, i32 34, i32 1, i32 2, i32 3, i8* getelementptr inbounds ([14 x i8], [14 x i8]* @getelementptr_namestr, i32 0, i32 0)), !llfi_injectfault !18
  %s3_29fixp1 = getelementptr [2 x i32], [2 x i32]* %s3_29fixp, i64 %fi186, i64 %fi187, !taffo.info !32, !llfi_index !227, !taffo.target !36
  %169 = invoke i32 @_Z17tri_tri_intersectPfS_S_S_S_S_S_Pi.3_fixp(i32* %s2_30fixp14, i32* %s2_30fixp13, i32* %s2_30fixp12, i32* %s2_30fixp11, i32* %s2_30fixp10, i32* %s2_30fixp9, i32* %s3_29fixp1, i32* %13)
          to label %170 unwind label %75, !taffo.info !228, !llfi_index !229, !taffo.target !36, !taffo.constinfo !230

170:                                              ; preds = %162
  %171 = invoke noundef i64 @_ZN12AxBenchTimer20nanosecondsSinceInitEv(%class.AxBenchTimer* noundef nonnull align 8 dereferenceable(16) %12)
          to label %172 unwind label %75, !llfi_index !231, !taffo.constinfo !62

172:                                              ; preds = %170
  %fi189 = call i64 @injectFault0(i64 176, i64 %fi149, i32 13, i32 1, i32 3, i32 1, i8* getelementptr inbounds ([4 x i8], [4 x i8]* @add_namestr, i32 0, i32 0)), !llfi_injectfault !18
  %fi190 = call i64 @injectFault0(i64 176, i64 %171, i32 13, i32 2, i32 3, i32 2, i8* getelementptr inbounds ([4 x i8], [4 x i8]* @add_namestr, i32 0, i32 0)), !llfi_injectfault !18
  %173 = add i64 %fi189, %fi190, !llfi_index !232
  %fi188 = call i64 @injectFault0(i64 176, i64 %173, i32 13, i32 0, i32 3, i32 0, i8* getelementptr inbounds ([4 x i8], [4 x i8]* @add_namestr, i32 0, i32 0)), !llfi_injectfault !44
  br label %174, !llfi_index !233

174:                                              ; preds = %172
  br label %175, !llfi_index !234

175:                                              ; preds = %174
  br label %176, !llfi_index !235

176:                                              ; preds = %175
  %177 = bitcast %"class.std::basic_ofstream"* %8 to %"class.std::basic_ostream"*, !llfi_index !236
  %fi191 = call i32 @injectFault1(i64 181, i32 %169, i32 5, i32 0, i32 1, i32 2, i8* getelementptr inbounds ([7 x i8], [7 x i8]* @invoke_namestr, i32 0, i32 0)), !llfi_injectfault !18
  %178 = invoke noundef nonnull align 8 dereferenceable(8) %"class.std::basic_ostream"* @_ZNSolsEi(%"class.std::basic_ostream"* noundef nonnull align 8 dereferenceable(8) %177, i32 noundef %fi191)
          to label %179 unwind label %75, !llfi_index !237, !taffo.constinfo !73

179:                                              ; preds = %176
  %180 = invoke noundef nonnull align 8 dereferenceable(8) %"class.std::basic_ostream"* @_ZStlsISt11char_traitsIcEERSt13basic_ostreamIcT_ES5_PKc(%"class.std::basic_ostream"* noundef nonnull align 8 dereferenceable(8) %178, i8* noundef getelementptr inbounds ([6 x i8], [6 x i8]* @.str.5, i64 0, i64 0))
          to label %181 unwind label %75, !llfi_index !238, !taffo.constinfo !73

181:                                              ; preds = %179
  %182 = load i32, i32* %13, align 4, !taffo.info !37, !llfi_index !239
  %fi192 = call i32 @injectFault1(i64 183, i32 %182, i32 32, i32 0, i32 1, i32 0, i8* getelementptr inbounds ([5 x i8], [5 x i8]* @load_namestr, i32 0, i32 0)), !llfi_injectfault !44
  %fi193 = call i32 @injectFault1(i64 184, i32 %fi192, i32 5, i32 0, i32 1, i32 2, i8* getelementptr inbounds ([7 x i8], [7 x i8]* @invoke_namestr, i32 0, i32 0)), !llfi_injectfault !18
  %183 = invoke noundef nonnull align 8 dereferenceable(8) %"class.std::basic_ostream"* @_ZNSolsEi(%"class.std::basic_ostream"* noundef nonnull align 8 dereferenceable(8) %180, i32 noundef %fi193)
          to label %184 unwind label %75, !llfi_index !240, !taffo.constinfo !73

184:                                              ; preds = %181
  %185 = invoke noundef nonnull align 8 dereferenceable(8) %"class.std::basic_ostream"* @_ZNSolsEPFRSoS_E(%"class.std::basic_ostream"* noundef nonnull align 8 dereferenceable(8) %183, %"class.std::basic_ostream"* (%"class.std::basic_ostream"*)* noundef @_ZSt4endlIcSt11char_traitsIcEERSt13basic_ostreamIT_T0_ES6_)
          to label %186 unwind label %75, !llfi_index !241, !taffo.constinfo !73

186:                                              ; preds = %184
  %187 = load i32, i32* %13, align 4, !taffo.info !37, !llfi_index !242
  %fi194 = call i32 @injectFault1(i64 186, i32 %187, i32 32, i32 0, i32 1, i32 0, i8* getelementptr inbounds ([5 x i8], [5 x i8]* @load_namestr, i32 0, i32 0)), !llfi_injectfault !44
  %fi70 = call i32 @injectFault1(i64 187, i32 %fi194, i32 40, i32 1, i32 2, i32 1, i8* getelementptr inbounds ([5 x i8], [5 x i8]* @sext_namestr, i32 0, i32 0)), !llfi_injectfault !18
  %188 = sext i32 %fi70 to i64, !taffo.info !37, !llfi_index !243
  %fi69 = call i64 @injectFault0(i64 187, i64 %188, i32 40, i32 0, i32 2, i32 0, i8* getelementptr inbounds ([5 x i8], [5 x i8]* @sext_namestr, i32 0, i32 0)), !llfi_injectfault !44
  %fi71 = call i64 @injectFault0(i64 188, i64 0, i32 34, i32 0, i32 2, i32 2, i8* getelementptr inbounds ([14 x i8], [14 x i8]* @getelementptr_namestr, i32 0, i32 0)), !llfi_injectfault !18
  %fi72 = call i64 @injectFault0(i64 188, i64 %fi69, i32 34, i32 1, i32 2, i32 3, i8* getelementptr inbounds ([14 x i8], [14 x i8]* @getelementptr_namestr, i32 0, i32 0)), !llfi_injectfault !18
  %189 = getelementptr [6 x i32], [6 x i32]* %11, i64 %fi71, i64 %fi72, !llfi_index !244
  %190 = load i32, i32* %189, align 4, !llfi_index !245
  %fi73 = call i32 @injectFault1(i64 189, i32 %190, i32 32, i32 0, i32 1, i32 0, i8* getelementptr inbounds ([5 x i8], [5 x i8]* @load_namestr, i32 0, i32 0)), !llfi_injectfault !44
  %fi75 = call i32 @injectFault1(i64 190, i32 %fi73, i32 13, i32 1, i32 3, i32 1, i8* getelementptr inbounds ([4 x i8], [4 x i8]* @add_namestr, i32 0, i32 0)), !llfi_injectfault !18
  %fi76 = call i32 @injectFault1(i64 190, i32 1, i32 13, i32 2, i32 3, i32 2, i8* getelementptr inbounds ([4 x i8], [4 x i8]* @add_namestr, i32 0, i32 0)), !llfi_injectfault !18
  %191 = add nsw i32 %fi75, %fi76, !llfi_index !246, !taffo.constinfo !55
  %fi74 = call i32 @injectFault1(i64 190, i32 %191, i32 13, i32 0, i32 3, i32 0, i8* getelementptr inbounds ([4 x i8], [4 x i8]* @add_namestr, i32 0, i32 0)), !llfi_injectfault !44
  %fi77 = call i32 @injectFault1(i64 191, i32 %fi74, i32 33, i32 0, i32 1, i32 1, i8* getelementptr inbounds ([6 x i8], [6 x i8]* @store_namestr, i32 0, i32 0)), !llfi_injectfault !18
  store i32 %fi77, i32* %189, align 4, !llfi_index !247
  invoke void @_ZN12AxBenchTimer5resetEv(%class.AxBenchTimer* noundef nonnull align 8 dereferenceable(16) %12)
          to label %192 unwind label %75, !llfi_index !248, !taffo.constinfo !62

192:                                              ; preds = %186
  br label %193, !llfi_index !249

193:                                              ; preds = %192
  %fi79 = call i32 @injectFault1(i64 194, i32 %fi148, i32 13, i32 1, i32 3, i32 1, i8* getelementptr inbounds ([4 x i8], [4 x i8]* @add_namestr, i32 0, i32 0)), !llfi_injectfault !18
  %fi80 = call i32 @injectFault1(i64 194, i32 18, i32 13, i32 2, i32 3, i32 2, i8* getelementptr inbounds ([4 x i8], [4 x i8]* @add_namestr, i32 0, i32 0)), !llfi_injectfault !18
  %194 = add nsw i32 %fi79, %fi80, !taffo.info !250, !llfi_index !252, !taffo.constinfo !55
  %fi78 = call i32 @injectFault1(i64 194, i32 %194, i32 13, i32 0, i32 3, i32 0, i8* getelementptr inbounds ([4 x i8], [4 x i8]* @add_namestr, i32 0, i32 0)), !llfi_injectfault !44
  br label %157, !llvm.loop !253, !llfi_index !254

195:                                              ; preds = %157
  %196 = invoke noundef i64 @_ZN12AxBenchTimer20nanosecondsSinceInitEv(%class.AxBenchTimer* noundef nonnull align 8 dereferenceable(16) %12)
          to label %197 unwind label %75, !llfi_index !255, !taffo.constinfo !62

197:                                              ; preds = %195
  %fi82 = call i64 @injectFault0(i64 197, i64 %fi149, i32 13, i32 1, i32 3, i32 1, i8* getelementptr inbounds ([4 x i8], [4 x i8]* @add_namestr, i32 0, i32 0)), !llfi_injectfault !18
  %fi83 = call i64 @injectFault0(i64 197, i64 %196, i32 13, i32 2, i32 3, i32 2, i8* getelementptr inbounds ([4 x i8], [4 x i8]* @add_namestr, i32 0, i32 0)), !llfi_injectfault !18
  %198 = add i64 %fi82, %fi83, !llfi_index !256
  %fi81 = call i64 @injectFault0(i64 197, i64 %198, i32 13, i32 0, i32 3, i32 0, i8* getelementptr inbounds ([4 x i8], [4 x i8]* @add_namestr, i32 0, i32 0)), !llfi_injectfault !44
  br label %199, !llfi_index !257

199:                                              ; preds = %205, %197
  %.0 = phi i32 [ 0, %197 ], [ %fi195, %205 ], !taffo.info !124, !llfi_index !258
  %fi84 = call i32 @injectFault1(i64 199, i32 %.0, i32 55, i32 0, i32 1, i32 0, i8* getelementptr inbounds ([4 x i8], [4 x i8]* @phi_namestr, i32 0, i32 0)), !llfi_injectfault !44
  %fi86 = call i32 @injectFault1(i64 200, i32 %fi84, i32 53, i32 1, i32 3, i32 1, i8* getelementptr inbounds ([5 x i8], [5 x i8]* @icmp_namestr, i32 0, i32 0)), !llfi_injectfault !18
  %fi87 = call i32 @injectFault1(i64 200, i32 6, i32 53, i32 2, i32 3, i32 2, i8* getelementptr inbounds ([5 x i8], [5 x i8]* @icmp_namestr, i32 0, i32 0)), !llfi_injectfault !18
  %200 = icmp slt i32 %fi86, %fi87, !taffo.info !170, !llfi_index !259
  %fi85 = call i1 @injectFault3(i64 200, i1 %200, i32 53, i32 0, i32 3, i32 0, i8* getelementptr inbounds ([5 x i8], [5 x i8]* @icmp_namestr, i32 0, i32 0)), !llfi_injectfault !44
  %fi88 = call i1 @injectFault3(i64 201, i1 %fi85, i32 2, i32 0, i32 1, i32 1, i8* getelementptr inbounds ([3 x i8], [3 x i8]* @br_namestr, i32 0, i32 0)), !llfi_injectfault !18
  br i1 %fi88, label %201, label %207, !llfi_index !260

201:                                              ; preds = %199
  br label %202, !llfi_index !261

202:                                              ; preds = %201
  br label %203, !llfi_index !262

203:                                              ; preds = %202
  br label %204, !llfi_index !263

204:                                              ; preds = %203
  br label %205, !llfi_index !264

205:                                              ; preds = %204
  %fi196 = call i32 @injectFault1(i64 206, i32 %fi84, i32 13, i32 1, i32 3, i32 1, i8* getelementptr inbounds ([4 x i8], [4 x i8]* @add_namestr, i32 0, i32 0)), !llfi_injectfault !18
  %fi197 = call i32 @injectFault1(i64 206, i32 1, i32 13, i32 2, i32 3, i32 2, i8* getelementptr inbounds ([4 x i8], [4 x i8]* @add_namestr, i32 0, i32 0)), !llfi_injectfault !18
  %206 = add nsw i32 %fi196, %fi197, !taffo.info !170, !llfi_index !265, !taffo.constinfo !55
  %fi195 = call i32 @injectFault1(i64 206, i32 %206, i32 13, i32 0, i32 3, i32 0, i8* getelementptr inbounds ([4 x i8], [4 x i8]* @add_namestr, i32 0, i32 0)), !llfi_injectfault !44
  br label %199, !llvm.loop !266, !llfi_index !267

207:                                              ; preds = %199
  %208 = invoke noundef nonnull align 8 dereferenceable(8) %"class.std::basic_ostream"* @_ZStlsISt11char_traitsIcEERSt13basic_ostreamIcT_ES5_PKc(%"class.std::basic_ostream"* noundef nonnull align 8 dereferenceable(8) @_ZSt4cout, i8* noundef getelementptr inbounds ([15 x i8], [15 x i8]* @.str.6, i64 0, i64 0))
          to label %209 unwind label %75, !llfi_index !268, !taffo.constinfo !73

209:                                              ; preds = %207
  %fi199 = call i64 @injectFault0(i64 209, i64 %fi81, i32 43, i32 1, i32 2, i32 1, i8* getelementptr inbounds ([7 x i8], [7 x i8]* @uitofp_namestr, i32 0, i32 0)), !llfi_injectfault !18
  %210 = uitofp i64 %fi199 to double, !llfi_index !269
  %fi198 = call double @injectFault4(i64 209, double %210, i32 43, i32 0, i32 2, i32 0, i8* getelementptr inbounds ([7 x i8], [7 x i8]* @uitofp_namestr, i32 0, i32 0)), !llfi_injectfault !44
  %fi201 = call double @injectFault4(i64 210, double %fi198, i32 21, i32 1, i32 3, i32 1, i8* getelementptr inbounds ([5 x i8], [5 x i8]* @fdiv_namestr, i32 0, i32 0)), !llfi_injectfault !18
  %fi202 = call double @injectFault4(i64 210, double 1.000000e+09, i32 21, i32 2, i32 3, i32 2, i8* getelementptr inbounds ([5 x i8], [5 x i8]* @fdiv_namestr, i32 0, i32 0)), !llfi_injectfault !18
  %211 = fdiv double %fi201, %fi202, !llfi_index !270, !taffo.constinfo !271
  %fi200 = call double @injectFault4(i64 210, double %211, i32 21, i32 0, i32 3, i32 0, i8* getelementptr inbounds ([5 x i8], [5 x i8]* @fdiv_namestr, i32 0, i32 0)), !llfi_injectfault !44
  %fi203 = call double @injectFault4(i64 211, double %fi200, i32 5, i32 0, i32 1, i32 2, i8* getelementptr inbounds ([7 x i8], [7 x i8]* @invoke_namestr, i32 0, i32 0)), !llfi_injectfault !18
  %212 = invoke noundef nonnull align 8 dereferenceable(8) %"class.std::basic_ostream"* @_ZNSolsEd(%"class.std::basic_ostream"* noundef nonnull align 8 dereferenceable(8) %208, double noundef %fi203)
          to label %213 unwind label %75, !llfi_index !274, !taffo.constinfo !73

213:                                              ; preds = %209
  %214 = invoke noundef nonnull align 8 dereferenceable(8) %"class.std::basic_ostream"* @_ZStlsISt11char_traitsIcEERSt13basic_ostreamIcT_ES5_PKc(%"class.std::basic_ostream"* noundef nonnull align 8 dereferenceable(8) %212, i8* noundef getelementptr inbounds ([3 x i8], [3 x i8]* @.str.7, i64 0, i64 0))
          to label %215 unwind label %75, !llfi_index !275, !taffo.constinfo !73

215:                                              ; preds = %213
  %216 = invoke noundef nonnull align 8 dereferenceable(8) %"class.std::basic_ostream"* @_ZNSolsEPFRSoS_E(%"class.std::basic_ostream"* noundef nonnull align 8 dereferenceable(8) %214, %"class.std::basic_ostream"* (%"class.std::basic_ostream"*)* noundef @_ZSt4endlIcSt11char_traitsIcEERSt13basic_ostreamIT_T0_ES6_)
          to label %217 unwind label %75, !llfi_index !276, !taffo.constinfo !73

217:                                              ; preds = %215
  invoke void @_ZNSt14basic_ofstreamIcSt11char_traitsIcEE5closeEv(%"class.std::basic_ofstream"* noundef nonnull align 8 dereferenceable(248) %8)
          to label %218 unwind label %75, !llfi_index !277, !taffo.constinfo !62

218:                                              ; preds = %217
  invoke void @_ZNSt14basic_ifstreamIcSt11char_traitsIcEE5closeEv(%"class.std::basic_ifstream"* noundef nonnull align 8 dereferenceable(256) %9)
          to label %219 unwind label %75, !llfi_index !278, !taffo.constinfo !62

219:                                              ; preds = %218
  %220 = bitcast i32* %s2_30fixp to i8*, !taffo.info !89, !llfi_index !279
  call void @free(i8* noundef %220) #9, !taffo.info !92, !taffo.initweight !93, !llfi_index !280, !taffo.constinfo !55
  br label %221, !llfi_index !281

221:                                              ; preds = %219, %56
  %.010 = phi i32 [ -1, %56 ], [ 0, %219 ], !taffo.info !282, !llfi_index !284
  %fi204 = call i32 @injectFault1(i64 219, i32 %.010, i32 55, i32 0, i32 1, i32 0, i8* getelementptr inbounds ([4 x i8], [4 x i8]* @phi_namestr, i32 0, i32 0)), !llfi_injectfault !44
  call void @_ZNSt14basic_ifstreamIcSt11char_traitsIcEED1Ev(%"class.std::basic_ifstream"* noundef nonnull align 8 dereferenceable(256) %9) #9, !llfi_index !285, !taffo.constinfo !55
  call void @_ZNSt14basic_ofstreamIcSt11char_traitsIcEED1Ev(%"class.std::basic_ofstream"* noundef nonnull align 8 dereferenceable(248) %8) #9, !llfi_index !286, !taffo.constinfo !55
  call void @_ZNSt7__cxx1112basic_stringIcSt11char_traitsIcESaIcEED1Ev(%"class.std::__cxx11::basic_string"* noundef nonnull align 8 dereferenceable(32) %6) #9, !llfi_index !287, !taffo.constinfo !55
  call void @_ZNSt7__cxx1112basic_stringIcSt11char_traitsIcESaIcEED1Ev(%"class.std::__cxx11::basic_string"* noundef nonnull align 8 dereferenceable(32) %4) #9, !llfi_index !288, !taffo.constinfo !55
  call void @postInjections()
  ret i32 %fi204, !llfi_index !289

222:                                              ; preds = %75, %71
  %.04 = phi i8* [ %77, %75 ], [ %73, %71 ], !llfi_index !290
  %.03 = phi i32 [ %fi57, %75 ], [ %fi54, %71 ], !llfi_index !291
  %fi205 = call i32 @injectFault1(i64 226, i32 %.03, i32 55, i32 0, i32 1, i32 0, i8* getelementptr inbounds ([4 x i8], [4 x i8]* @phi_namestr, i32 0, i32 0)), !llfi_injectfault !44
  call void @_ZNSt14basic_ofstreamIcSt11char_traitsIcEED1Ev(%"class.std::basic_ofstream"* noundef nonnull align 8 dereferenceable(248) %8) #9, !llfi_index !292, !taffo.constinfo !55
  br label %223, !llfi_index !293

223:                                              ; preds = %222, %67
  %.15 = phi i8* [ %.04, %222 ], [ %69, %67 ], !llfi_index !294
  %.1 = phi i32 [ %fi205, %222 ], [ %fi51, %67 ], !llfi_index !295
  %fi206 = call i32 @injectFault1(i64 230, i32 %.1, i32 55, i32 0, i32 1, i32 0, i8* getelementptr inbounds ([4 x i8], [4 x i8]* @phi_namestr, i32 0, i32 0)), !llfi_injectfault !44
  call void @_ZNSt7__cxx1112basic_stringIcSt11char_traitsIcESaIcEED1Ev(%"class.std::__cxx11::basic_string"* noundef nonnull align 8 dereferenceable(32) %6) #9, !llfi_index !296, !taffo.constinfo !55
  br label %224, !llfi_index !297

224:                                              ; preds = %223, %62
  %.26 = phi i8* [ %.15, %223 ], [ %64, %62 ], !llfi_index !298
  %.2 = phi i32 [ %fi206, %223 ], [ %fi48, %62 ], !llfi_index !299
  %fi207 = call i32 @injectFault1(i64 234, i32 %.2, i32 55, i32 0, i32 1, i32 0, i8* getelementptr inbounds ([4 x i8], [4 x i8]* @phi_namestr, i32 0, i32 0)), !llfi_injectfault !44
  call void @_ZNSt7__cxx1112basic_stringIcSt11char_traitsIcESaIcEED1Ev(%"class.std::__cxx11::basic_string"* noundef nonnull align 8 dereferenceable(32) %4) #9, !llfi_index !300, !taffo.constinfo !55
  br label %225, !llfi_index !301

225:                                              ; preds = %224, %57
  %.37 = phi i8* [ %.26, %224 ], [ %59, %57 ], !llfi_index !302
  %.3 = phi i32 [ %fi207, %224 ], [ %fi45, %57 ], !llfi_index !303
  %fi208 = call i32 @injectFault1(i64 238, i32 %.3, i32 55, i32 0, i32 1, i32 0, i8* getelementptr inbounds ([4 x i8], [4 x i8]* @phi_namestr, i32 0, i32 0)), !llfi_injectfault !44
  %fi210 = call { i8*, i32 } @injectFault6(i64 239, { i8*, i32 } undef, i32 65, i32 1, i32 2, i32 1, i8* getelementptr inbounds ([12 x i8], [12 x i8]* @insertvalue_namestr, i32 0, i32 0)), !llfi_injectfault !18
  %226 = insertvalue { i8*, i32 } %fi210, i8* %.37, 0, !llfi_index !304
  %fi209 = call { i8*, i32 } @injectFault6(i64 239, { i8*, i32 } %226, i32 65, i32 0, i32 2, i32 0, i8* getelementptr inbounds ([12 x i8], [12 x i8]* @insertvalue_namestr, i32 0, i32 0)), !llfi_injectfault !44
  %fi212 = call { i8*, i32 } @injectFault6(i64 240, { i8*, i32 } %fi209, i32 65, i32 1, i32 3, i32 1, i8* getelementptr inbounds ([12 x i8], [12 x i8]* @insertvalue_namestr, i32 0, i32 0)), !llfi_injectfault !18
  %fi213 = call i32 @injectFault1(i64 240, i32 %fi208, i32 65, i32 2, i32 3, i32 2, i8* getelementptr inbounds ([12 x i8], [12 x i8]* @insertvalue_namestr, i32 0, i32 0)), !llfi_injectfault !18
  %227 = insertvalue { i8*, i32 } %fi212, i32 %fi213, 1, !llfi_index !305
  %fi211 = call { i8*, i32 } @injectFault6(i64 240, { i8*, i32 } %227, i32 65, i32 0, i32 3, i32 0, i8* getelementptr inbounds ([12 x i8], [12 x i8]* @insertvalue_namestr, i32 0, i32 0)), !llfi_injectfault !44
  %fi214 = call { i8*, i32 } @injectFault6(i64 241, { i8*, i32 } %fi211, i32 6, i32 0, i32 1, i32 1, i8* getelementptr inbounds ([7 x i8], [7 x i8]* @resume_namestr, i32 0, i32 0)), !llfi_injectfault !18
  call void @postInjections()
  resume { i8*, i32 } %fi214, !llfi_index !306
}

declare !taffo.initweight !0 !taffo.funinfo !0 i32 @__gxx_personality_v0(...)

; Function Attrs: mustprogress noinline nounwind uwtable
define linkonce_odr dso_local noundef i64 @_ZNSt8ios_base9precisionEl(%"class.std::ios_base"* noundef nonnull align 8 dereferenceable(216) %0, i64 noundef %1) #1 comdat align 2 !taffo.initweight !16 !taffo.funinfo !307 {
  %3 = getelementptr inbounds %"class.std::ios_base", %"class.std::ios_base"* %0, i32 0, i32 1, !llfi_index !310
  %4 = load i64, i64* %3, align 8, !llfi_index !311
  %fi1 = call i64 @injectFault0(i64 243, i64 %4, i32 32, i32 0, i32 1, i32 0, i8* getelementptr inbounds ([5 x i8], [5 x i8]* @load_namestr, i32 0, i32 0)), !llfi_injectfault !44
  %5 = getelementptr inbounds %"class.std::ios_base", %"class.std::ios_base"* %0, i32 0, i32 1, !llfi_index !312
  %fi = call i64 @injectFault0(i64 245, i64 %1, i32 33, i32 0, i32 1, i32 1, i8* getelementptr inbounds ([6 x i8], [6 x i8]* @store_namestr, i32 0, i32 0)), !llfi_injectfault !18
  store i64 %fi, i64* %5, align 8, !llfi_index !313
  ret i64 %fi1, !llfi_index !314
}

declare !taffo.initweight !315 !taffo.funinfo !316 void @_ZNSt7__cxx1112basic_stringIcSt11char_traitsIcESaIcEEC1EPKcRKS3_(%"class.std::__cxx11::basic_string"* noundef nonnull align 8 dereferenceable(32), i8* noundef, %"class.std::__new_allocator"* noundef nonnull align 1 dereferenceable(1)) unnamed_addr #2

; Function Attrs: noinline nounwind uwtable
define linkonce_odr dso_local void @_ZNSt15__new_allocatorIcED2Ev(%"class.std::__new_allocator"* noundef nonnull align 1 dereferenceable(1) %0) unnamed_addr #3 comdat align 2 !taffo.initweight !317 !taffo.funinfo !318 {
  ret void, !llfi_index !319
}

declare !taffo.initweight !317 !taffo.funinfo !318 void @_ZNSt14basic_ofstreamIcSt11char_traitsIcEEC1Ev(%"class.std::basic_ofstream"* noundef nonnull align 8 dereferenceable(248)) unnamed_addr #2

declare !taffo.initweight !315 !taffo.funinfo !316 void @_ZNSt14basic_ofstreamIcSt11char_traitsIcEE4openERKNSt7__cxx1112basic_stringIcS1_SaIcEEESt13_Ios_Openmode(%"class.std::basic_ofstream"* noundef nonnull align 8 dereferenceable(248), %"class.std::__cxx11::basic_string"* noundef nonnull align 8 dereferenceable(32), i32 noundef) #2

declare !taffo.initweight !315 !taffo.funinfo !316 void @_ZNSt14basic_ifstreamIcSt11char_traitsIcEEC1ERKNSt7__cxx1112basic_stringIcS1_SaIcEEESt13_Ios_Openmode(%"class.std::basic_ifstream"* noundef nonnull align 8 dereferenceable(256), %"class.std::__cxx11::basic_string"* noundef nonnull align 8 dereferenceable(32), i32 noundef) unnamed_addr #2

declare !taffo.initweight !16 !taffo.funinfo !17 noundef nonnull align 8 dereferenceable(16) %"class.std::basic_istream"* @_ZNSirsERi(%"class.std::basic_istream"* noundef nonnull align 8 dereferenceable(16), i32* noundef nonnull align 4 dereferenceable(4)) #2

; Function Attrs: nounwind allocsize(0)
declare !taffo.initweight !317 !taffo.funinfo !318 noalias i8* @malloc(i64 noundef) #4

declare !taffo.initweight !16 !taffo.funinfo !17 noundef nonnull align 8 dereferenceable(8) %"class.std::basic_ostream"* @_ZStlsISt11char_traitsIcEERSt13basic_ostreamIcT_ES5_PKc(%"class.std::basic_ostream"* noundef nonnull align 8 dereferenceable(8), i8* noundef) #2

declare !taffo.initweight !317 !taffo.funinfo !318 noundef nonnull align 8 dereferenceable(8) %"class.std::basic_ostream"* @_ZSt4endlIcSt11char_traitsIcEERSt13basic_ostreamIT_T0_ES6_(%"class.std::basic_ostream"* noundef nonnull align 8 dereferenceable(8)) #2

declare !taffo.initweight !16 !taffo.funinfo !17 noundef nonnull align 8 dereferenceable(8) %"class.std::basic_ostream"* @_ZNSolsEPFRSoS_E(%"class.std::basic_ostream"* noundef nonnull align 8 dereferenceable(8), %"class.std::basic_ostream"* (%"class.std::basic_ostream"*)* noundef) #2

; Function Attrs: nounwind
declare !taffo.initweight !317 !taffo.funinfo !318 void @_ZNSt14basic_ifstreamIcSt11char_traitsIcEED1Ev(%"class.std::basic_ifstream"* noundef nonnull align 8 dereferenceable(256)) unnamed_addr #5

declare !taffo.initweight !16 !taffo.funinfo !17 noundef nonnull align 8 dereferenceable(16) %"class.std::basic_istream"* @_ZNSirsERf(%"class.std::basic_istream"* noundef nonnull align 8 dereferenceable(16), float* noundef nonnull align 4 dereferenceable(4)) #2

; Function Attrs: argmemonly nofree nounwind willreturn writeonly
declare !taffo.initweight !320 !taffo.funinfo !321 void @llvm.memset.p0i8.i64(i8* nocapture writeonly, i8, i64, i1 immarg) #6

; Function Attrs: noinline uwtable
define linkonce_odr dso_local void @_ZN12AxBenchTimerC2Ev(%class.AxBenchTimer* noundef nonnull align 8 dereferenceable(16) %0) unnamed_addr #7 comdat align 2 !taffo.initweight !317 !taffo.funinfo !322 {
  call void @_ZN12AxBenchTimer5resetEv(%class.AxBenchTimer* noundef nonnull align 8 dereferenceable(16) %0), !llfi_index !323, !taffo.constinfo !55
  ret void, !llfi_index !324
}

; Function Attrs: mustprogress noinline nounwind uwtable
define linkonce_odr dso_local noundef i64 @_ZN12AxBenchTimer20nanosecondsSinceInitEv(%class.AxBenchTimer* noundef nonnull align 8 dereferenceable(16) %0) #1 comdat align 2 !taffo.initweight !317 !taffo.funinfo !322 {
  %fi1 = call i32 @injectFault1(i64 250, i32 1, i32 31, i32 0, i32 1, i32 1, i8* getelementptr inbounds ([7 x i8], [7 x i8]* @alloca_namestr, i32 0, i32 0)), !llfi_injectfault !18
  %2 = alloca %struct.timespec, i32 %fi1, align 8, !taffo.structinfo !0, !llfi_index !325
  %fi3 = call i32 @injectFault1(i64 251, i32 4, i32 56, i32 1, i32 2, i32 1, i8* getelementptr inbounds ([5 x i8], [5 x i8]* @call_namestr, i32 0, i32 0)), !llfi_injectfault !18
  %3 = call i32 @clock_gettime(i32 noundef %fi3, %struct.timespec* noundef %2) #9, !llfi_index !326, !taffo.constinfo !48
  %fi2 = call i32 @injectFault1(i64 251, i32 %3, i32 56, i32 0, i32 2, i32 0, i8* getelementptr inbounds ([5 x i8], [5 x i8]* @call_namestr, i32 0, i32 0)), !llfi_injectfault !44
  %4 = getelementptr inbounds %class.AxBenchTimer, %class.AxBenchTimer* %0, i32 0, i32 0, !llfi_index !327
  %5 = getelementptr inbounds %struct.timespec, %struct.timespec* %4, i32 0, i32 1, !llfi_index !328
  %6 = load i64, i64* %5, align 8, !llfi_index !329
  %fi = call i64 @injectFault0(i64 254, i64 %6, i32 32, i32 0, i32 1, i32 0, i8* getelementptr inbounds ([5 x i8], [5 x i8]* @load_namestr, i32 0, i32 0)), !llfi_injectfault !44
  %7 = getelementptr inbounds %class.AxBenchTimer, %class.AxBenchTimer* %0, i32 0, i32 0, !llfi_index !330
  %8 = getelementptr inbounds %struct.timespec, %struct.timespec* %7, i32 0, i32 0, !llfi_index !331
  %9 = load i64, i64* %8, align 8, !llfi_index !332
  %fi7 = call i64 @injectFault0(i64 257, i64 %9, i32 32, i32 0, i32 1, i32 0, i8* getelementptr inbounds ([5 x i8], [5 x i8]* @load_namestr, i32 0, i32 0)), !llfi_injectfault !44
  %fi9 = call i64 @injectFault0(i64 258, i64 %fi7, i32 17, i32 1, i32 3, i32 1, i8* getelementptr inbounds ([4 x i8], [4 x i8]* @mul_namestr, i32 0, i32 0)), !llfi_injectfault !18
  %fi10 = call i64 @injectFault0(i64 258, i64 1000000000, i32 17, i32 2, i32 3, i32 2, i8* getelementptr inbounds ([4 x i8], [4 x i8]* @mul_namestr, i32 0, i32 0)), !llfi_injectfault !18
  %10 = mul nsw i64 %fi9, %fi10, !llfi_index !333, !taffo.constinfo !55
  %fi8 = call i64 @injectFault0(i64 258, i64 %10, i32 17, i32 0, i32 3, i32 0, i8* getelementptr inbounds ([4 x i8], [4 x i8]* @mul_namestr, i32 0, i32 0)), !llfi_injectfault !44
  %fi12 = call i64 @injectFault0(i64 259, i64 %fi, i32 13, i32 1, i32 3, i32 1, i8* getelementptr inbounds ([4 x i8], [4 x i8]* @add_namestr, i32 0, i32 0)), !llfi_injectfault !18
  %fi13 = call i64 @injectFault0(i64 259, i64 %fi8, i32 13, i32 2, i32 3, i32 2, i8* getelementptr inbounds ([4 x i8], [4 x i8]* @add_namestr, i32 0, i32 0)), !llfi_injectfault !18
  %11 = add nsw i64 %fi12, %fi13, !llfi_index !334
  %fi11 = call i64 @injectFault0(i64 259, i64 %11, i32 13, i32 0, i32 3, i32 0, i8* getelementptr inbounds ([4 x i8], [4 x i8]* @add_namestr, i32 0, i32 0)), !llfi_injectfault !44
  %12 = getelementptr inbounds %struct.timespec, %struct.timespec* %2, i32 0, i32 1, !llfi_index !335
  %13 = load i64, i64* %12, align 8, !llfi_index !336
  %fi14 = call i64 @injectFault0(i64 261, i64 %13, i32 32, i32 0, i32 1, i32 0, i8* getelementptr inbounds ([5 x i8], [5 x i8]* @load_namestr, i32 0, i32 0)), !llfi_injectfault !44
  %14 = getelementptr inbounds %struct.timespec, %struct.timespec* %2, i32 0, i32 0, !llfi_index !337
  %15 = load i64, i64* %14, align 8, !llfi_index !338
  %fi15 = call i64 @injectFault0(i64 263, i64 %15, i32 32, i32 0, i32 1, i32 0, i8* getelementptr inbounds ([5 x i8], [5 x i8]* @load_namestr, i32 0, i32 0)), !llfi_injectfault !44
  %fi17 = call i64 @injectFault0(i64 264, i64 %fi15, i32 17, i32 1, i32 3, i32 1, i8* getelementptr inbounds ([4 x i8], [4 x i8]* @mul_namestr, i32 0, i32 0)), !llfi_injectfault !18
  %fi18 = call i64 @injectFault0(i64 264, i64 1000000000, i32 17, i32 2, i32 3, i32 2, i8* getelementptr inbounds ([4 x i8], [4 x i8]* @mul_namestr, i32 0, i32 0)), !llfi_injectfault !18
  %16 = mul nsw i64 %fi17, %fi18, !llfi_index !339, !taffo.constinfo !55
  %fi16 = call i64 @injectFault0(i64 264, i64 %16, i32 17, i32 0, i32 3, i32 0, i8* getelementptr inbounds ([4 x i8], [4 x i8]* @mul_namestr, i32 0, i32 0)), !llfi_injectfault !44
  %fi5 = call i64 @injectFault0(i64 265, i64 %fi14, i32 13, i32 1, i32 3, i32 1, i8* getelementptr inbounds ([4 x i8], [4 x i8]* @add_namestr, i32 0, i32 0)), !llfi_injectfault !18
  %fi6 = call i64 @injectFault0(i64 265, i64 %fi16, i32 13, i32 2, i32 3, i32 2, i8* getelementptr inbounds ([4 x i8], [4 x i8]* @add_namestr, i32 0, i32 0)), !llfi_injectfault !18
  %17 = add nsw i64 %fi5, %fi6, !llfi_index !340
  %fi4 = call i64 @injectFault0(i64 265, i64 %17, i32 13, i32 0, i32 3, i32 0, i8* getelementptr inbounds ([4 x i8], [4 x i8]* @add_namestr, i32 0, i32 0)), !llfi_injectfault !44
  %fi20 = call i64 @injectFault0(i64 266, i64 %fi4, i32 15, i32 1, i32 3, i32 1, i8* getelementptr inbounds ([4 x i8], [4 x i8]* @sub_namestr, i32 0, i32 0)), !llfi_injectfault !18
  %fi21 = call i64 @injectFault0(i64 266, i64 %fi11, i32 15, i32 2, i32 3, i32 2, i8* getelementptr inbounds ([4 x i8], [4 x i8]* @sub_namestr, i32 0, i32 0)), !llfi_injectfault !18
  %18 = sub i64 %fi20, %fi21, !llfi_index !341
  %fi19 = call i64 @injectFault0(i64 266, i64 %18, i32 15, i32 0, i32 3, i32 0, i8* getelementptr inbounds ([4 x i8], [4 x i8]* @sub_namestr, i32 0, i32 0)), !llfi_injectfault !44
  ret i64 %fi19, !llfi_index !342
}

declare !taffo.initweight !16 !taffo.funinfo !17 noundef nonnull align 8 dereferenceable(8) %"class.std::basic_ostream"* @_ZNSolsEi(%"class.std::basic_ostream"* noundef nonnull align 8 dereferenceable(8), i32 noundef) #2

; Function Attrs: mustprogress noinline nounwind uwtable
define linkonce_odr dso_local void @_ZN12AxBenchTimer5resetEv(%class.AxBenchTimer* noundef nonnull align 8 dereferenceable(16) %0) #1 comdat align 2 !taffo.initweight !317 !taffo.funinfo !322 {
  %2 = getelementptr inbounds %class.AxBenchTimer, %class.AxBenchTimer* %0, i32 0, i32 0, !llfi_index !343
  %fi1 = call i32 @injectFault1(i64 269, i32 4, i32 56, i32 1, i32 2, i32 1, i8* getelementptr inbounds ([5 x i8], [5 x i8]* @call_namestr, i32 0, i32 0)), !llfi_injectfault !18
  %3 = call i32 @clock_gettime(i32 noundef %fi1, %struct.timespec* noundef %2) #9, !llfi_index !344, !taffo.constinfo !48
  %fi = call i32 @injectFault1(i64 269, i32 %3, i32 56, i32 0, i32 2, i32 0, i8* getelementptr inbounds ([5 x i8], [5 x i8]* @call_namestr, i32 0, i32 0)), !llfi_injectfault !44
  ret void, !llfi_index !345
}

declare !taffo.initweight !16 !taffo.funinfo !17 noundef nonnull align 8 dereferenceable(8) %"class.std::basic_ostream"* @_ZNSolsEd(%"class.std::basic_ostream"* noundef nonnull align 8 dereferenceable(8), double noundef) #2

declare !taffo.initweight !317 !taffo.funinfo !318 void @_ZNSt14basic_ofstreamIcSt11char_traitsIcEE5closeEv(%"class.std::basic_ofstream"* noundef nonnull align 8 dereferenceable(248)) #2

declare !taffo.initweight !317 !taffo.funinfo !318 void @_ZNSt14basic_ifstreamIcSt11char_traitsIcEE5closeEv(%"class.std::basic_ifstream"* noundef nonnull align 8 dereferenceable(256)) #2

; Function Attrs: nounwind
declare !taffo.initweight !317 !taffo.funinfo !318 void @free(i8* noundef) #5

; Function Attrs: nounwind
declare !taffo.initweight !317 !taffo.funinfo !318 void @_ZNSt14basic_ofstreamIcSt11char_traitsIcEED1Ev(%"class.std::basic_ofstream"* noundef nonnull align 8 dereferenceable(248)) unnamed_addr #5

; Function Attrs: nounwind
declare !taffo.initweight !317 !taffo.funinfo !318 void @_ZNSt7__cxx1112basic_stringIcSt11char_traitsIcESaIcEED1Ev(%"class.std::__cxx11::basic_string"* noundef nonnull align 8 dereferenceable(32)) unnamed_addr #5

; Function Attrs: nounwind
declare !taffo.initweight !16 !taffo.funinfo !17 i32 @clock_gettime(i32 noundef, %struct.timespec* noundef) #5

; Function Attrs: mustprogress noinline nounwind uwtable
define dso_local noundef i32 @_Z16coplanar_tri_triPfS_S_S_S_S_S_(float* noundef %0, float* noundef %1, float* noundef %2, float* noundef %3, float* noundef %4, float* noundef %5, float* noundef %6) #1 !taffo.initweight !346 !taffo.funinfo !347 !taffo.equivalentChild !348 {
  %fi66 = call i32 @injectFault1(i64 271, i32 1, i32 31, i32 0, i32 1, i32 1, i8* getelementptr inbounds ([7 x i8], [7 x i8]* @alloca_namestr, i32 0, i32 0)), !llfi_injectfault !18
  %8 = alloca [3 x float], i32 %fi66, align 4, !taffo.info !349, !taffo.initweight !28, !llfi_index !350
  %fi68 = call i64 @injectFault0(i64 272, i64 0, i32 34, i32 0, i32 1, i32 2, i8* getelementptr inbounds ([14 x i8], [14 x i8]* @getelementptr_namestr, i32 0, i32 0)), !llfi_injectfault !18
  %9 = getelementptr float, float* %0, i64 %fi68, !llfi_index !351
  %10 = load float, float* %9, align 4, !llfi_index !352
  %fi69 = call float @injectFault5(i64 273, float %10, i32 32, i32 0, i32 1, i32 0, i8* getelementptr inbounds ([5 x i8], [5 x i8]* @load_namestr, i32 0, i32 0)), !llfi_injectfault !44
  %fi71 = call float @injectFault5(i64 274, float %fi69, i32 46, i32 1, i32 2, i32 1, i8* getelementptr inbounds ([6 x i8], [6 x i8]* @fpext_namestr, i32 0, i32 0)), !llfi_injectfault !18
  %11 = fpext float %fi71 to double, !llfi_index !353
  %fi70 = call double @injectFault4(i64 274, double %11, i32 46, i32 0, i32 2, i32 0, i8* getelementptr inbounds ([6 x i8], [6 x i8]* @fpext_namestr, i32 0, i32 0)), !llfi_injectfault !44
  %12 = call double @llvm.fabs.f64(double %fi70), !llfi_index !354, !taffo.constinfo !55
  %fi73 = call double @injectFault4(i64 276, double %12, i32 45, i32 1, i32 2, i32 1, i8* getelementptr inbounds ([8 x i8], [8 x i8]* @fptrunc_namestr, i32 0, i32 0)), !llfi_injectfault !18
  %13 = fptrunc double %fi73 to float, !taffo.info !349, !taffo.initweight !93, !llfi_index !355
  %fi72 = call float @injectFault5(i64 276, float %13, i32 45, i32 0, i32 2, i32 0, i8* getelementptr inbounds ([8 x i8], [8 x i8]* @fptrunc_namestr, i32 0, i32 0)), !llfi_injectfault !44
  %fi78 = call i64 @injectFault0(i64 277, i64 0, i32 34, i32 0, i32 2, i32 2, i8* getelementptr inbounds ([14 x i8], [14 x i8]* @getelementptr_namestr, i32 0, i32 0)), !llfi_injectfault !18
  %fi79 = call i64 @injectFault0(i64 277, i64 0, i32 34, i32 1, i32 2, i32 3, i8* getelementptr inbounds ([14 x i8], [14 x i8]* @getelementptr_namestr, i32 0, i32 0)), !llfi_injectfault !18
  %14 = getelementptr [3 x float], [3 x float]* %8, i64 %fi78, i64 %fi79, !taffo.info !349, !taffo.initweight !131, !llfi_index !356
  %fi80 = call float @injectFault5(i64 278, float %fi72, i32 33, i32 0, i32 1, i32 1, i8* getelementptr inbounds ([6 x i8], [6 x i8]* @store_namestr, i32 0, i32 0)), !llfi_injectfault !18
  store float %fi80, float* %14, align 4, !taffo.info !349, !llfi_index !357
  %fi81 = call i64 @injectFault0(i64 279, i64 1, i32 34, i32 0, i32 1, i32 2, i8* getelementptr inbounds ([14 x i8], [14 x i8]* @getelementptr_namestr, i32 0, i32 0)), !llfi_injectfault !18
  %15 = getelementptr float, float* %0, i64 %fi81, !llfi_index !358
  %16 = load float, float* %15, align 4, !llfi_index !359
  %fi82 = call float @injectFault5(i64 280, float %16, i32 32, i32 0, i32 1, i32 0, i8* getelementptr inbounds ([5 x i8], [5 x i8]* @load_namestr, i32 0, i32 0)), !llfi_injectfault !44
  %fi84 = call float @injectFault5(i64 281, float %fi82, i32 46, i32 1, i32 2, i32 1, i8* getelementptr inbounds ([6 x i8], [6 x i8]* @fpext_namestr, i32 0, i32 0)), !llfi_injectfault !18
  %17 = fpext float %fi84 to double, !llfi_index !360
  %fi83 = call double @injectFault4(i64 281, double %17, i32 46, i32 0, i32 2, i32 0, i8* getelementptr inbounds ([6 x i8], [6 x i8]* @fpext_namestr, i32 0, i32 0)), !llfi_injectfault !44
  %18 = call double @llvm.fabs.f64(double %fi83), !llfi_index !361, !taffo.constinfo !55
  %fi86 = call double @injectFault4(i64 283, double %18, i32 45, i32 1, i32 2, i32 1, i8* getelementptr inbounds ([8 x i8], [8 x i8]* @fptrunc_namestr, i32 0, i32 0)), !llfi_injectfault !18
  %19 = fptrunc double %fi86 to float, !taffo.info !349, !taffo.initweight !93, !llfi_index !362
  %fi85 = call float @injectFault5(i64 283, float %19, i32 45, i32 0, i32 2, i32 0, i8* getelementptr inbounds ([8 x i8], [8 x i8]* @fptrunc_namestr, i32 0, i32 0)), !llfi_injectfault !44
  %fi87 = call i64 @injectFault0(i64 284, i64 0, i32 34, i32 0, i32 2, i32 2, i8* getelementptr inbounds ([14 x i8], [14 x i8]* @getelementptr_namestr, i32 0, i32 0)), !llfi_injectfault !18
  %fi88 = call i64 @injectFault0(i64 284, i64 1, i32 34, i32 1, i32 2, i32 3, i8* getelementptr inbounds ([14 x i8], [14 x i8]* @getelementptr_namestr, i32 0, i32 0)), !llfi_injectfault !18
  %20 = getelementptr [3 x float], [3 x float]* %8, i64 %fi87, i64 %fi88, !taffo.info !349, !taffo.initweight !131, !llfi_index !363
  %fi67 = call float @injectFault5(i64 285, float %fi85, i32 33, i32 0, i32 1, i32 1, i8* getelementptr inbounds ([6 x i8], [6 x i8]* @store_namestr, i32 0, i32 0)), !llfi_injectfault !18
  store float %fi67, float* %20, align 4, !taffo.info !349, !llfi_index !364
  %fi89 = call i64 @injectFault0(i64 286, i64 2, i32 34, i32 0, i32 1, i32 2, i8* getelementptr inbounds ([14 x i8], [14 x i8]* @getelementptr_namestr, i32 0, i32 0)), !llfi_injectfault !18
  %21 = getelementptr float, float* %0, i64 %fi89, !llfi_index !365
  %22 = load float, float* %21, align 4, !llfi_index !366
  %fi90 = call float @injectFault5(i64 287, float %22, i32 32, i32 0, i32 1, i32 0, i8* getelementptr inbounds ([5 x i8], [5 x i8]* @load_namestr, i32 0, i32 0)), !llfi_injectfault !44
  %fi92 = call float @injectFault5(i64 288, float %fi90, i32 46, i32 1, i32 2, i32 1, i8* getelementptr inbounds ([6 x i8], [6 x i8]* @fpext_namestr, i32 0, i32 0)), !llfi_injectfault !18
  %23 = fpext float %fi92 to double, !llfi_index !367
  %fi91 = call double @injectFault4(i64 288, double %23, i32 46, i32 0, i32 2, i32 0, i8* getelementptr inbounds ([6 x i8], [6 x i8]* @fpext_namestr, i32 0, i32 0)), !llfi_injectfault !44
  %24 = call double @llvm.fabs.f64(double %fi91), !llfi_index !368, !taffo.constinfo !55
  %fi94 = call double @injectFault4(i64 290, double %24, i32 45, i32 1, i32 2, i32 1, i8* getelementptr inbounds ([8 x i8], [8 x i8]* @fptrunc_namestr, i32 0, i32 0)), !llfi_injectfault !18
  %25 = fptrunc double %fi94 to float, !taffo.info !349, !taffo.initweight !93, !llfi_index !369
  %fi93 = call float @injectFault5(i64 290, float %25, i32 45, i32 0, i32 2, i32 0, i8* getelementptr inbounds ([8 x i8], [8 x i8]* @fptrunc_namestr, i32 0, i32 0)), !llfi_injectfault !44
  %fi95 = call i64 @injectFault0(i64 291, i64 0, i32 34, i32 0, i32 2, i32 2, i8* getelementptr inbounds ([14 x i8], [14 x i8]* @getelementptr_namestr, i32 0, i32 0)), !llfi_injectfault !18
  %fi96 = call i64 @injectFault0(i64 291, i64 2, i32 34, i32 1, i32 2, i32 3, i8* getelementptr inbounds ([14 x i8], [14 x i8]* @getelementptr_namestr, i32 0, i32 0)), !llfi_injectfault !18
  %26 = getelementptr [3 x float], [3 x float]* %8, i64 %fi95, i64 %fi96, !taffo.info !349, !taffo.initweight !131, !llfi_index !370
  %fi97 = call float @injectFault5(i64 292, float %fi93, i32 33, i32 0, i32 1, i32 1, i8* getelementptr inbounds ([6 x i8], [6 x i8]* @store_namestr, i32 0, i32 0)), !llfi_injectfault !18
  store float %fi97, float* %26, align 4, !taffo.info !349, !llfi_index !371
  %fi98 = call i64 @injectFault0(i64 293, i64 0, i32 34, i32 0, i32 2, i32 2, i8* getelementptr inbounds ([14 x i8], [14 x i8]* @getelementptr_namestr, i32 0, i32 0)), !llfi_injectfault !18
  %fi99 = call i64 @injectFault0(i64 293, i64 0, i32 34, i32 1, i32 2, i32 3, i8* getelementptr inbounds ([14 x i8], [14 x i8]* @getelementptr_namestr, i32 0, i32 0)), !llfi_injectfault !18
  %27 = getelementptr [3 x float], [3 x float]* %8, i64 %fi98, i64 %fi99, !taffo.info !349, !taffo.initweight !131, !llfi_index !372
  %28 = load float, float* %27, align 4, !taffo.info !349, !taffo.initweight !90, !llfi_index !373
  %fi100 = call float @injectFault5(i64 294, float %28, i32 32, i32 0, i32 1, i32 0, i8* getelementptr inbounds ([5 x i8], [5 x i8]* @load_namestr, i32 0, i32 0)), !llfi_injectfault !44
  %fi101 = call i64 @injectFault0(i64 295, i64 0, i32 34, i32 0, i32 2, i32 2, i8* getelementptr inbounds ([14 x i8], [14 x i8]* @getelementptr_namestr, i32 0, i32 0)), !llfi_injectfault !18
  %fi102 = call i64 @injectFault0(i64 295, i64 1, i32 34, i32 1, i32 2, i32 3, i8* getelementptr inbounds ([14 x i8], [14 x i8]* @getelementptr_namestr, i32 0, i32 0)), !llfi_injectfault !18
  %29 = getelementptr [3 x float], [3 x float]* %8, i64 %fi101, i64 %fi102, !taffo.info !349, !taffo.initweight !131, !llfi_index !374
  %30 = load float, float* %29, align 4, !taffo.info !349, !taffo.initweight !90, !llfi_index !375
  %fi103 = call float @injectFault5(i64 296, float %30, i32 32, i32 0, i32 1, i32 0, i8* getelementptr inbounds ([5 x i8], [5 x i8]* @load_namestr, i32 0, i32 0)), !llfi_injectfault !44
  %fi105 = call float @injectFault5(i64 297, float %fi100, i32 54, i32 1, i32 3, i32 1, i8* getelementptr inbounds ([5 x i8], [5 x i8]* @fcmp_namestr, i32 0, i32 0)), !llfi_injectfault !18
  %fi106 = call float @injectFault5(i64 297, float %fi103, i32 54, i32 2, i32 3, i32 2, i8* getelementptr inbounds ([5 x i8], [5 x i8]* @fcmp_namestr, i32 0, i32 0)), !llfi_injectfault !18
  %31 = fcmp ogt float %fi105, %fi106, !taffo.info !349, !taffo.initweight !93, !llfi_index !376
  %fi104 = call i1 @injectFault3(i64 297, i1 %31, i32 54, i32 0, i32 3, i32 0, i8* getelementptr inbounds ([5 x i8], [5 x i8]* @fcmp_namestr, i32 0, i32 0)), !llfi_injectfault !44
  %fi107 = call i1 @injectFault3(i64 298, i1 %fi104, i32 2, i32 0, i32 1, i32 1, i8* getelementptr inbounds ([3 x i8], [3 x i8]* @br_namestr, i32 0, i32 0)), !llfi_injectfault !18
  br i1 %fi107, label %32, label %41, !taffo.info !349, !taffo.initweight !377, !llfi_index !378

32:                                               ; preds = %7
  %fi108 = call i64 @injectFault0(i64 299, i64 0, i32 34, i32 0, i32 2, i32 2, i8* getelementptr inbounds ([14 x i8], [14 x i8]* @getelementptr_namestr, i32 0, i32 0)), !llfi_injectfault !18
  %fi109 = call i64 @injectFault0(i64 299, i64 0, i32 34, i32 1, i32 2, i32 3, i8* getelementptr inbounds ([14 x i8], [14 x i8]* @getelementptr_namestr, i32 0, i32 0)), !llfi_injectfault !18
  %33 = getelementptr [3 x float], [3 x float]* %8, i64 %fi108, i64 %fi109, !taffo.info !349, !taffo.initweight !131, !llfi_index !379
  %34 = load float, float* %33, align 4, !taffo.info !349, !taffo.initweight !90, !llfi_index !380
  %fi110 = call float @injectFault5(i64 300, float %34, i32 32, i32 0, i32 1, i32 0, i8* getelementptr inbounds ([5 x i8], [5 x i8]* @load_namestr, i32 0, i32 0)), !llfi_injectfault !44
  %fi111 = call i64 @injectFault0(i64 301, i64 0, i32 34, i32 0, i32 2, i32 2, i8* getelementptr inbounds ([14 x i8], [14 x i8]* @getelementptr_namestr, i32 0, i32 0)), !llfi_injectfault !18
  %fi112 = call i64 @injectFault0(i64 301, i64 2, i32 34, i32 1, i32 2, i32 3, i8* getelementptr inbounds ([14 x i8], [14 x i8]* @getelementptr_namestr, i32 0, i32 0)), !llfi_injectfault !18
  %35 = getelementptr [3 x float], [3 x float]* %8, i64 %fi111, i64 %fi112, !taffo.info !349, !taffo.initweight !131, !llfi_index !381
  %36 = load float, float* %35, align 4, !taffo.info !349, !taffo.initweight !90, !llfi_index !382
  %fi113 = call float @injectFault5(i64 302, float %36, i32 32, i32 0, i32 1, i32 0, i8* getelementptr inbounds ([5 x i8], [5 x i8]* @load_namestr, i32 0, i32 0)), !llfi_injectfault !44
  %fi115 = call float @injectFault5(i64 303, float %fi110, i32 54, i32 1, i32 3, i32 1, i8* getelementptr inbounds ([5 x i8], [5 x i8]* @fcmp_namestr, i32 0, i32 0)), !llfi_injectfault !18
  %fi116 = call float @injectFault5(i64 303, float %fi113, i32 54, i32 2, i32 3, i32 2, i8* getelementptr inbounds ([5 x i8], [5 x i8]* @fcmp_namestr, i32 0, i32 0)), !llfi_injectfault !18
  %37 = fcmp ogt float %fi115, %fi116, !taffo.info !349, !taffo.initweight !93, !llfi_index !383
  %fi114 = call i1 @injectFault3(i64 303, i1 %37, i32 54, i32 0, i32 3, i32 0, i8* getelementptr inbounds ([5 x i8], [5 x i8]* @fcmp_namestr, i32 0, i32 0)), !llfi_injectfault !44
  %fi117 = call i1 @injectFault3(i64 304, i1 %fi114, i32 2, i32 0, i32 1, i32 1, i8* getelementptr inbounds ([3 x i8], [3 x i8]* @br_namestr, i32 0, i32 0)), !llfi_injectfault !18
  br i1 %fi117, label %38, label %39, !taffo.info !349, !taffo.initweight !377, !llfi_index !384

38:                                               ; preds = %32
  br label %40, !llfi_index !385

39:                                               ; preds = %32
  br label %40, !llfi_index !386

40:                                               ; preds = %39, %38
  %.02 = phi i16 [ 2, %38 ], [ 1, %39 ], !llfi_index !387
  %.01 = phi i16 [ 1, %38 ], [ 0, %39 ], !llfi_index !388
  %fi119 = call i16 @injectFault7(i64 308, i16 %.01, i32 55, i32 0, i32 1, i32 0, i8* getelementptr inbounds ([4 x i8], [4 x i8]* @phi_namestr, i32 0, i32 0)), !llfi_injectfault !44
  %fi118 = call i16 @injectFault7(i64 307, i16 %.02, i32 55, i32 0, i32 1, i32 0, i8* getelementptr inbounds ([4 x i8], [4 x i8]* @phi_namestr, i32 0, i32 0)), !llfi_injectfault !44
  br label %50, !llfi_index !389

41:                                               ; preds = %7
  %fi120 = call i64 @injectFault0(i64 310, i64 0, i32 34, i32 0, i32 2, i32 2, i8* getelementptr inbounds ([14 x i8], [14 x i8]* @getelementptr_namestr, i32 0, i32 0)), !llfi_injectfault !18
  %fi121 = call i64 @injectFault0(i64 310, i64 2, i32 34, i32 1, i32 2, i32 3, i8* getelementptr inbounds ([14 x i8], [14 x i8]* @getelementptr_namestr, i32 0, i32 0)), !llfi_injectfault !18
  %42 = getelementptr [3 x float], [3 x float]* %8, i64 %fi120, i64 %fi121, !taffo.info !349, !taffo.initweight !131, !llfi_index !390
  %43 = load float, float* %42, align 4, !taffo.info !349, !taffo.initweight !90, !llfi_index !391
  %fi122 = call float @injectFault5(i64 311, float %43, i32 32, i32 0, i32 1, i32 0, i8* getelementptr inbounds ([5 x i8], [5 x i8]* @load_namestr, i32 0, i32 0)), !llfi_injectfault !44
  %fi123 = call i64 @injectFault0(i64 312, i64 0, i32 34, i32 0, i32 2, i32 2, i8* getelementptr inbounds ([14 x i8], [14 x i8]* @getelementptr_namestr, i32 0, i32 0)), !llfi_injectfault !18
  %fi124 = call i64 @injectFault0(i64 312, i64 1, i32 34, i32 1, i32 2, i32 3, i8* getelementptr inbounds ([14 x i8], [14 x i8]* @getelementptr_namestr, i32 0, i32 0)), !llfi_injectfault !18
  %44 = getelementptr [3 x float], [3 x float]* %8, i64 %fi123, i64 %fi124, !taffo.info !349, !taffo.initweight !131, !llfi_index !392
  %45 = load float, float* %44, align 4, !taffo.info !349, !taffo.initweight !90, !llfi_index !393
  %fi125 = call float @injectFault5(i64 313, float %45, i32 32, i32 0, i32 1, i32 0, i8* getelementptr inbounds ([5 x i8], [5 x i8]* @load_namestr, i32 0, i32 0)), !llfi_injectfault !44
  %fi127 = call float @injectFault5(i64 314, float %fi122, i32 54, i32 1, i32 3, i32 1, i8* getelementptr inbounds ([5 x i8], [5 x i8]* @fcmp_namestr, i32 0, i32 0)), !llfi_injectfault !18
  %fi128 = call float @injectFault5(i64 314, float %fi125, i32 54, i32 2, i32 3, i32 2, i8* getelementptr inbounds ([5 x i8], [5 x i8]* @fcmp_namestr, i32 0, i32 0)), !llfi_injectfault !18
  %46 = fcmp ogt float %fi127, %fi128, !taffo.info !349, !taffo.initweight !93, !llfi_index !394
  %fi126 = call i1 @injectFault3(i64 314, i1 %46, i32 54, i32 0, i32 3, i32 0, i8* getelementptr inbounds ([5 x i8], [5 x i8]* @fcmp_namestr, i32 0, i32 0)), !llfi_injectfault !44
  %fi129 = call i1 @injectFault3(i64 315, i1 %fi126, i32 2, i32 0, i32 1, i32 1, i8* getelementptr inbounds ([3 x i8], [3 x i8]* @br_namestr, i32 0, i32 0)), !llfi_injectfault !18
  br i1 %fi129, label %47, label %48, !taffo.info !349, !taffo.initweight !377, !llfi_index !395

47:                                               ; preds = %41
  br label %49, !llfi_index !396

48:                                               ; preds = %41
  br label %49, !llfi_index !397

49:                                               ; preds = %48, %47
  %.13 = phi i16 [ 1, %47 ], [ 2, %48 ], !llfi_index !398
  %fi130 = call i16 @injectFault7(i64 318, i16 %.13, i32 55, i32 0, i32 1, i32 0, i8* getelementptr inbounds ([4 x i8], [4 x i8]* @phi_namestr, i32 0, i32 0)), !llfi_injectfault !44
  br label %50, !llfi_index !399

50:                                               ; preds = %49, %40
  %.24 = phi i16 [ %fi118, %40 ], [ %fi130, %49 ], !llfi_index !400
  %.2 = phi i16 [ %fi119, %40 ], [ 0, %49 ], !llfi_index !401
  %fi132 = call i16 @injectFault7(i64 321, i16 %.2, i32 55, i32 0, i32 1, i32 0, i8* getelementptr inbounds ([4 x i8], [4 x i8]* @phi_namestr, i32 0, i32 0)), !llfi_injectfault !44
  %fi131 = call i16 @injectFault7(i64 320, i16 %.24, i32 55, i32 0, i32 1, i32 0, i8* getelementptr inbounds ([4 x i8], [4 x i8]* @phi_namestr, i32 0, i32 0)), !llfi_injectfault !44
  %fi134 = call i16 @injectFault7(i64 322, i16 %fi132, i32 40, i32 1, i32 2, i32 1, i8* getelementptr inbounds ([5 x i8], [5 x i8]* @sext_namestr, i32 0, i32 0)), !llfi_injectfault !18
  %51 = sext i16 %fi134 to i64, !llfi_index !402
  %fi133 = call i64 @injectFault0(i64 322, i64 %51, i32 40, i32 0, i32 2, i32 0, i8* getelementptr inbounds ([5 x i8], [5 x i8]* @sext_namestr, i32 0, i32 0)), !llfi_injectfault !44
  %fi135 = call i64 @injectFault0(i64 323, i64 %fi133, i32 34, i32 0, i32 1, i32 2, i8* getelementptr inbounds ([14 x i8], [14 x i8]* @getelementptr_namestr, i32 0, i32 0)), !llfi_injectfault !18
  %52 = getelementptr float, float* %2, i64 %fi135, !llfi_index !403
  %53 = load float, float* %52, align 4, !llfi_index !404
  %fi136 = call float @injectFault5(i64 324, float %53, i32 32, i32 0, i32 1, i32 0, i8* getelementptr inbounds ([5 x i8], [5 x i8]* @load_namestr, i32 0, i32 0)), !llfi_injectfault !44
  %fi138 = call i16 @injectFault7(i64 325, i16 %fi132, i32 40, i32 1, i32 2, i32 1, i8* getelementptr inbounds ([5 x i8], [5 x i8]* @sext_namestr, i32 0, i32 0)), !llfi_injectfault !18
  %54 = sext i16 %fi138 to i64, !llfi_index !405
  %fi137 = call i64 @injectFault0(i64 325, i64 %54, i32 40, i32 0, i32 2, i32 0, i8* getelementptr inbounds ([5 x i8], [5 x i8]* @sext_namestr, i32 0, i32 0)), !llfi_injectfault !44
  %fi139 = call i64 @injectFault0(i64 326, i64 %fi137, i32 34, i32 0, i32 1, i32 2, i8* getelementptr inbounds ([14 x i8], [14 x i8]* @getelementptr_namestr, i32 0, i32 0)), !llfi_injectfault !18
  %55 = getelementptr float, float* %1, i64 %fi139, !llfi_index !406
  %56 = load float, float* %55, align 4, !llfi_index !407
  %fi140 = call float @injectFault5(i64 327, float %56, i32 32, i32 0, i32 1, i32 0, i8* getelementptr inbounds ([5 x i8], [5 x i8]* @load_namestr, i32 0, i32 0)), !llfi_injectfault !44
  %fi142 = call float @injectFault5(i64 328, float %fi136, i32 16, i32 1, i32 3, i32 1, i8* getelementptr inbounds ([5 x i8], [5 x i8]* @fsub_namestr, i32 0, i32 0)), !llfi_injectfault !18
  %fi143 = call float @injectFault5(i64 328, float %fi140, i32 16, i32 2, i32 3, i32 2, i8* getelementptr inbounds ([5 x i8], [5 x i8]* @fsub_namestr, i32 0, i32 0)), !llfi_injectfault !18
  %57 = fsub float %fi142, %fi143, !taffo.info !349, !taffo.initweight !90, !llfi_index !408
  %fi141 = call float @injectFault5(i64 328, float %57, i32 16, i32 0, i32 3, i32 0, i8* getelementptr inbounds ([5 x i8], [5 x i8]* @fsub_namestr, i32 0, i32 0)), !llfi_injectfault !44
  %fi145 = call i16 @injectFault7(i64 329, i16 %fi131, i32 40, i32 1, i32 2, i32 1, i8* getelementptr inbounds ([5 x i8], [5 x i8]* @sext_namestr, i32 0, i32 0)), !llfi_injectfault !18
  %58 = sext i16 %fi145 to i64, !llfi_index !409
  %fi144 = call i64 @injectFault0(i64 329, i64 %58, i32 40, i32 0, i32 2, i32 0, i8* getelementptr inbounds ([5 x i8], [5 x i8]* @sext_namestr, i32 0, i32 0)), !llfi_injectfault !44
  %fi146 = call i64 @injectFault0(i64 330, i64 %fi144, i32 34, i32 0, i32 1, i32 2, i8* getelementptr inbounds ([14 x i8], [14 x i8]* @getelementptr_namestr, i32 0, i32 0)), !llfi_injectfault !18
  %59 = getelementptr float, float* %2, i64 %fi146, !llfi_index !410
  %60 = load float, float* %59, align 4, !llfi_index !411
  %fi147 = call float @injectFault5(i64 331, float %60, i32 32, i32 0, i32 1, i32 0, i8* getelementptr inbounds ([5 x i8], [5 x i8]* @load_namestr, i32 0, i32 0)), !llfi_injectfault !44
  %fi149 = call i16 @injectFault7(i64 332, i16 %fi131, i32 40, i32 1, i32 2, i32 1, i8* getelementptr inbounds ([5 x i8], [5 x i8]* @sext_namestr, i32 0, i32 0)), !llfi_injectfault !18
  %61 = sext i16 %fi149 to i64, !llfi_index !412
  %fi148 = call i64 @injectFault0(i64 332, i64 %61, i32 40, i32 0, i32 2, i32 0, i8* getelementptr inbounds ([5 x i8], [5 x i8]* @sext_namestr, i32 0, i32 0)), !llfi_injectfault !44
  %fi150 = call i64 @injectFault0(i64 333, i64 %fi148, i32 34, i32 0, i32 1, i32 2, i8* getelementptr inbounds ([14 x i8], [14 x i8]* @getelementptr_namestr, i32 0, i32 0)), !llfi_injectfault !18
  %62 = getelementptr float, float* %1, i64 %fi150, !llfi_index !413
  %63 = load float, float* %62, align 4, !llfi_index !414
  %fi151 = call float @injectFault5(i64 334, float %63, i32 32, i32 0, i32 1, i32 0, i8* getelementptr inbounds ([5 x i8], [5 x i8]* @load_namestr, i32 0, i32 0)), !llfi_injectfault !44
  %fi153 = call float @injectFault5(i64 335, float %fi147, i32 16, i32 1, i32 3, i32 1, i8* getelementptr inbounds ([5 x i8], [5 x i8]* @fsub_namestr, i32 0, i32 0)), !llfi_injectfault !18
  %fi154 = call float @injectFault5(i64 335, float %fi151, i32 16, i32 2, i32 3, i32 2, i8* getelementptr inbounds ([5 x i8], [5 x i8]* @fsub_namestr, i32 0, i32 0)), !llfi_injectfault !18
  %64 = fsub float %fi153, %fi154, !taffo.info !349, !taffo.initweight !90, !llfi_index !415
  %fi152 = call float @injectFault5(i64 335, float %64, i32 16, i32 0, i32 3, i32 0, i8* getelementptr inbounds ([5 x i8], [5 x i8]* @fsub_namestr, i32 0, i32 0)), !llfi_injectfault !44
  %fi156 = call i16 @injectFault7(i64 336, i16 %fi132, i32 40, i32 1, i32 2, i32 1, i8* getelementptr inbounds ([5 x i8], [5 x i8]* @sext_namestr, i32 0, i32 0)), !llfi_injectfault !18
  %65 = sext i16 %fi156 to i64, !llfi_index !416
  %fi155 = call i64 @injectFault0(i64 336, i64 %65, i32 40, i32 0, i32 2, i32 0, i8* getelementptr inbounds ([5 x i8], [5 x i8]* @sext_namestr, i32 0, i32 0)), !llfi_injectfault !44
  %fi157 = call i64 @injectFault0(i64 337, i64 %fi155, i32 34, i32 0, i32 1, i32 2, i8* getelementptr inbounds ([14 x i8], [14 x i8]* @getelementptr_namestr, i32 0, i32 0)), !llfi_injectfault !18
  %66 = getelementptr float, float* %4, i64 %fi157, !llfi_index !417
  %67 = load float, float* %66, align 4, !llfi_index !418
  %fi158 = call float @injectFault5(i64 338, float %67, i32 32, i32 0, i32 1, i32 0, i8* getelementptr inbounds ([5 x i8], [5 x i8]* @load_namestr, i32 0, i32 0)), !llfi_injectfault !44
  %fi160 = call i16 @injectFault7(i64 339, i16 %fi132, i32 40, i32 1, i32 2, i32 1, i8* getelementptr inbounds ([5 x i8], [5 x i8]* @sext_namestr, i32 0, i32 0)), !llfi_injectfault !18
  %68 = sext i16 %fi160 to i64, !llfi_index !419
  %fi159 = call i64 @injectFault0(i64 339, i64 %68, i32 40, i32 0, i32 2, i32 0, i8* getelementptr inbounds ([5 x i8], [5 x i8]* @sext_namestr, i32 0, i32 0)), !llfi_injectfault !44
  %fi161 = call i64 @injectFault0(i64 340, i64 %fi159, i32 34, i32 0, i32 1, i32 2, i8* getelementptr inbounds ([14 x i8], [14 x i8]* @getelementptr_namestr, i32 0, i32 0)), !llfi_injectfault !18
  %69 = getelementptr float, float* %5, i64 %fi161, !llfi_index !420
  %70 = load float, float* %69, align 4, !llfi_index !421
  %fi162 = call float @injectFault5(i64 341, float %70, i32 32, i32 0, i32 1, i32 0, i8* getelementptr inbounds ([5 x i8], [5 x i8]* @load_namestr, i32 0, i32 0)), !llfi_injectfault !44
  %fi164 = call float @injectFault5(i64 342, float %fi158, i32 16, i32 1, i32 3, i32 1, i8* getelementptr inbounds ([5 x i8], [5 x i8]* @fsub_namestr, i32 0, i32 0)), !llfi_injectfault !18
  %fi165 = call float @injectFault5(i64 342, float %fi162, i32 16, i32 2, i32 3, i32 2, i8* getelementptr inbounds ([5 x i8], [5 x i8]* @fsub_namestr, i32 0, i32 0)), !llfi_injectfault !18
  %71 = fsub float %fi164, %fi165, !taffo.info !349, !taffo.initweight !90, !llfi_index !422
  %fi163 = call float @injectFault5(i64 342, float %71, i32 16, i32 0, i32 3, i32 0, i8* getelementptr inbounds ([5 x i8], [5 x i8]* @fsub_namestr, i32 0, i32 0)), !llfi_injectfault !44
  %fi167 = call i16 @injectFault7(i64 343, i16 %fi131, i32 40, i32 1, i32 2, i32 1, i8* getelementptr inbounds ([5 x i8], [5 x i8]* @sext_namestr, i32 0, i32 0)), !llfi_injectfault !18
  %72 = sext i16 %fi167 to i64, !llfi_index !423
  %fi166 = call i64 @injectFault0(i64 343, i64 %72, i32 40, i32 0, i32 2, i32 0, i8* getelementptr inbounds ([5 x i8], [5 x i8]* @sext_namestr, i32 0, i32 0)), !llfi_injectfault !44
  %fi168 = call i64 @injectFault0(i64 344, i64 %fi166, i32 34, i32 0, i32 1, i32 2, i8* getelementptr inbounds ([14 x i8], [14 x i8]* @getelementptr_namestr, i32 0, i32 0)), !llfi_injectfault !18
  %73 = getelementptr float, float* %4, i64 %fi168, !llfi_index !424
  %74 = load float, float* %73, align 4, !llfi_index !425
  %fi169 = call float @injectFault5(i64 345, float %74, i32 32, i32 0, i32 1, i32 0, i8* getelementptr inbounds ([5 x i8], [5 x i8]* @load_namestr, i32 0, i32 0)), !llfi_injectfault !44
  %fi171 = call i16 @injectFault7(i64 346, i16 %fi131, i32 40, i32 1, i32 2, i32 1, i8* getelementptr inbounds ([5 x i8], [5 x i8]* @sext_namestr, i32 0, i32 0)), !llfi_injectfault !18
  %75 = sext i16 %fi171 to i64, !llfi_index !426
  %fi170 = call i64 @injectFault0(i64 346, i64 %75, i32 40, i32 0, i32 2, i32 0, i8* getelementptr inbounds ([5 x i8], [5 x i8]* @sext_namestr, i32 0, i32 0)), !llfi_injectfault !44
  %fi172 = call i64 @injectFault0(i64 347, i64 %fi170, i32 34, i32 0, i32 1, i32 2, i8* getelementptr inbounds ([14 x i8], [14 x i8]* @getelementptr_namestr, i32 0, i32 0)), !llfi_injectfault !18
  %76 = getelementptr float, float* %5, i64 %fi172, !llfi_index !427
  %77 = load float, float* %76, align 4, !llfi_index !428
  %fi173 = call float @injectFault5(i64 348, float %77, i32 32, i32 0, i32 1, i32 0, i8* getelementptr inbounds ([5 x i8], [5 x i8]* @load_namestr, i32 0, i32 0)), !llfi_injectfault !44
  %fi175 = call float @injectFault5(i64 349, float %fi169, i32 16, i32 1, i32 3, i32 1, i8* getelementptr inbounds ([5 x i8], [5 x i8]* @fsub_namestr, i32 0, i32 0)), !llfi_injectfault !18
  %fi176 = call float @injectFault5(i64 349, float %fi173, i32 16, i32 2, i32 3, i32 2, i8* getelementptr inbounds ([5 x i8], [5 x i8]* @fsub_namestr, i32 0, i32 0)), !llfi_injectfault !18
  %78 = fsub float %fi175, %fi176, !taffo.info !349, !taffo.initweight !90, !llfi_index !429
  %fi174 = call float @injectFault5(i64 349, float %78, i32 16, i32 0, i32 3, i32 0, i8* getelementptr inbounds ([5 x i8], [5 x i8]* @fsub_namestr, i32 0, i32 0)), !llfi_injectfault !44
  %fi178 = call i16 @injectFault7(i64 350, i16 %fi132, i32 40, i32 1, i32 2, i32 1, i8* getelementptr inbounds ([5 x i8], [5 x i8]* @sext_namestr, i32 0, i32 0)), !llfi_injectfault !18
  %79 = sext i16 %fi178 to i64, !llfi_index !430
  %fi177 = call i64 @injectFault0(i64 350, i64 %79, i32 40, i32 0, i32 2, i32 0, i8* getelementptr inbounds ([5 x i8], [5 x i8]* @sext_namestr, i32 0, i32 0)), !llfi_injectfault !44
  %fi179 = call i64 @injectFault0(i64 351, i64 %fi177, i32 34, i32 0, i32 1, i32 2, i8* getelementptr inbounds ([14 x i8], [14 x i8]* @getelementptr_namestr, i32 0, i32 0)), !llfi_injectfault !18
  %80 = getelementptr float, float* %1, i64 %fi179, !llfi_index !431
  %81 = load float, float* %80, align 4, !llfi_index !432
  %fi8 = call float @injectFault5(i64 352, float %81, i32 32, i32 0, i32 1, i32 0, i8* getelementptr inbounds ([5 x i8], [5 x i8]* @load_namestr, i32 0, i32 0)), !llfi_injectfault !44
  %fi10 = call i16 @injectFault7(i64 353, i16 %fi132, i32 40, i32 1, i32 2, i32 1, i8* getelementptr inbounds ([5 x i8], [5 x i8]* @sext_namestr, i32 0, i32 0)), !llfi_injectfault !18
  %82 = sext i16 %fi10 to i64, !llfi_index !433
  %fi9 = call i64 @injectFault0(i64 353, i64 %82, i32 40, i32 0, i32 2, i32 0, i8* getelementptr inbounds ([5 x i8], [5 x i8]* @sext_namestr, i32 0, i32 0)), !llfi_injectfault !44
  %fi11 = call i64 @injectFault0(i64 354, i64 %fi9, i32 34, i32 0, i32 1, i32 2, i8* getelementptr inbounds ([14 x i8], [14 x i8]* @getelementptr_namestr, i32 0, i32 0)), !llfi_injectfault !18
  %83 = getelementptr float, float* %4, i64 %fi11, !llfi_index !434
  %84 = load float, float* %83, align 4, !llfi_index !435
  %fi12 = call float @injectFault5(i64 355, float %84, i32 32, i32 0, i32 1, i32 0, i8* getelementptr inbounds ([5 x i8], [5 x i8]* @load_namestr, i32 0, i32 0)), !llfi_injectfault !44
  %fi14 = call float @injectFault5(i64 356, float %fi8, i32 16, i32 1, i32 3, i32 1, i8* getelementptr inbounds ([5 x i8], [5 x i8]* @fsub_namestr, i32 0, i32 0)), !llfi_injectfault !18
  %fi15 = call float @injectFault5(i64 356, float %fi12, i32 16, i32 2, i32 3, i32 2, i8* getelementptr inbounds ([5 x i8], [5 x i8]* @fsub_namestr, i32 0, i32 0)), !llfi_injectfault !18
  %85 = fsub float %fi14, %fi15, !taffo.info !349, !taffo.initweight !90, !llfi_index !436
  %fi13 = call float @injectFault5(i64 356, float %85, i32 16, i32 0, i32 3, i32 0, i8* getelementptr inbounds ([5 x i8], [5 x i8]* @fsub_namestr, i32 0, i32 0)), !llfi_injectfault !44
  %fi17 = call i16 @injectFault7(i64 357, i16 %fi131, i32 40, i32 1, i32 2, i32 1, i8* getelementptr inbounds ([5 x i8], [5 x i8]* @sext_namestr, i32 0, i32 0)), !llfi_injectfault !18
  %86 = sext i16 %fi17 to i64, !llfi_index !437
  %fi16 = call i64 @injectFault0(i64 357, i64 %86, i32 40, i32 0, i32 2, i32 0, i8* getelementptr inbounds ([5 x i8], [5 x i8]* @sext_namestr, i32 0, i32 0)), !llfi_injectfault !44
  %fi18 = call i64 @injectFault0(i64 358, i64 %fi16, i32 34, i32 0, i32 1, i32 2, i8* getelementptr inbounds ([14 x i8], [14 x i8]* @getelementptr_namestr, i32 0, i32 0)), !llfi_injectfault !18
  %87 = getelementptr float, float* %1, i64 %fi18, !llfi_index !438
  %88 = load float, float* %87, align 4, !llfi_index !439
  %fi19 = call float @injectFault5(i64 359, float %88, i32 32, i32 0, i32 1, i32 0, i8* getelementptr inbounds ([5 x i8], [5 x i8]* @load_namestr, i32 0, i32 0)), !llfi_injectfault !44
  %fi21 = call i16 @injectFault7(i64 360, i16 %fi131, i32 40, i32 1, i32 2, i32 1, i8* getelementptr inbounds ([5 x i8], [5 x i8]* @sext_namestr, i32 0, i32 0)), !llfi_injectfault !18
  %89 = sext i16 %fi21 to i64, !llfi_index !440
  %fi20 = call i64 @injectFault0(i64 360, i64 %89, i32 40, i32 0, i32 2, i32 0, i8* getelementptr inbounds ([5 x i8], [5 x i8]* @sext_namestr, i32 0, i32 0)), !llfi_injectfault !44
  %fi22 = call i64 @injectFault0(i64 361, i64 %fi20, i32 34, i32 0, i32 1, i32 2, i8* getelementptr inbounds ([14 x i8], [14 x i8]* @getelementptr_namestr, i32 0, i32 0)), !llfi_injectfault !18
  %90 = getelementptr float, float* %4, i64 %fi22, !llfi_index !441
  %91 = load float, float* %90, align 4, !llfi_index !442
  %fi23 = call float @injectFault5(i64 362, float %91, i32 32, i32 0, i32 1, i32 0, i8* getelementptr inbounds ([5 x i8], [5 x i8]* @load_namestr, i32 0, i32 0)), !llfi_injectfault !44
  %fi25 = call float @injectFault5(i64 363, float %fi19, i32 16, i32 1, i32 3, i32 1, i8* getelementptr inbounds ([5 x i8], [5 x i8]* @fsub_namestr, i32 0, i32 0)), !llfi_injectfault !18
  %fi26 = call float @injectFault5(i64 363, float %fi23, i32 16, i32 2, i32 3, i32 2, i8* getelementptr inbounds ([5 x i8], [5 x i8]* @fsub_namestr, i32 0, i32 0)), !llfi_injectfault !18
  %92 = fsub float %fi25, %fi26, !taffo.info !349, !taffo.initweight !90, !llfi_index !443
  %fi24 = call float @injectFault5(i64 363, float %92, i32 16, i32 0, i32 3, i32 0, i8* getelementptr inbounds ([5 x i8], [5 x i8]* @fsub_namestr, i32 0, i32 0)), !llfi_injectfault !44
  %fi28 = call float @injectFault5(i64 364, float %fi141, i32 18, i32 1, i32 3, i32 1, i8* getelementptr inbounds ([5 x i8], [5 x i8]* @fmul_namestr, i32 0, i32 0)), !llfi_injectfault !18
  %fi29 = call float @injectFault5(i64 364, float %fi174, i32 18, i32 2, i32 3, i32 2, i8* getelementptr inbounds ([5 x i8], [5 x i8]* @fmul_namestr, i32 0, i32 0)), !llfi_injectfault !18
  %93 = fmul float %fi28, %fi29, !taffo.info !349, !taffo.initweight !90, !llfi_index !444
  %fi27 = call float @injectFault5(i64 364, float %93, i32 18, i32 0, i32 3, i32 0, i8* getelementptr inbounds ([5 x i8], [5 x i8]* @fmul_namestr, i32 0, i32 0)), !llfi_injectfault !44
  %fi31 = call float @injectFault5(i64 365, float %fi27, i32 12, i32 1, i32 2, i32 1, i8* getelementptr inbounds ([5 x i8], [5 x i8]* @fneg_namestr, i32 0, i32 0)), !llfi_injectfault !18
  %94 = fneg float %fi31, !taffo.info !349, !taffo.initweight !93, !llfi_index !445
  %fi30 = call float @injectFault5(i64 365, float %94, i32 12, i32 0, i32 2, i32 0, i8* getelementptr inbounds ([5 x i8], [5 x i8]* @fneg_namestr, i32 0, i32 0)), !llfi_injectfault !44
  %95 = call float @llvm.fmuladd.f32(float %fi152, float %fi163, float %fi30), !taffo.info !349, !taffo.initweight !90, !llfi_index !446, !taffo.constinfo !62
  %fi33 = call float @injectFault5(i64 367, float %fi163, i32 18, i32 1, i32 3, i32 1, i8* getelementptr inbounds ([5 x i8], [5 x i8]* @fmul_namestr, i32 0, i32 0)), !llfi_injectfault !18
  %fi34 = call float @injectFault5(i64 367, float %fi24, i32 18, i32 2, i32 3, i32 2, i8* getelementptr inbounds ([5 x i8], [5 x i8]* @fmul_namestr, i32 0, i32 0)), !llfi_injectfault !18
  %96 = fmul float %fi33, %fi34, !taffo.info !349, !taffo.initweight !90, !llfi_index !447
  %fi32 = call float @injectFault5(i64 367, float %96, i32 18, i32 0, i32 3, i32 0, i8* getelementptr inbounds ([5 x i8], [5 x i8]* @fmul_namestr, i32 0, i32 0)), !llfi_injectfault !44
  %fi36 = call float @injectFault5(i64 368, float %fi32, i32 12, i32 1, i32 2, i32 1, i8* getelementptr inbounds ([5 x i8], [5 x i8]* @fneg_namestr, i32 0, i32 0)), !llfi_injectfault !18
  %97 = fneg float %fi36, !taffo.info !349, !taffo.initweight !93, !llfi_index !448
  %fi35 = call float @injectFault5(i64 368, float %97, i32 12, i32 0, i32 2, i32 0, i8* getelementptr inbounds ([5 x i8], [5 x i8]* @fneg_namestr, i32 0, i32 0)), !llfi_injectfault !44
  %98 = call float @llvm.fmuladd.f32(float %fi174, float %fi13, float %fi35), !taffo.info !349, !taffo.initweight !90, !llfi_index !449, !taffo.constinfo !62
  br label %99, !llfi_index !450

99:                                               ; preds = %50
  br label %100, !llfi_index !451

100:                                              ; preds = %99
  %fi38 = call float @injectFault5(i64 372, float %95, i32 54, i32 1, i32 3, i32 1, i8* getelementptr inbounds ([5 x i8], [5 x i8]* @fcmp_namestr, i32 0, i32 0)), !llfi_injectfault !18
  %fi39 = call float @injectFault5(i64 372, float 0.000000e+00, i32 54, i32 2, i32 3, i32 2, i8* getelementptr inbounds ([5 x i8], [5 x i8]* @fcmp_namestr, i32 0, i32 0)), !llfi_injectfault !18
  %101 = fcmp ogt float %fi38, %fi39, !taffo.info !349, !taffo.initweight !90, !llfi_index !452, !taffo.target !453
  %fi37 = call i1 @injectFault3(i64 372, i1 %101, i32 54, i32 0, i32 3, i32 0, i8* getelementptr inbounds ([5 x i8], [5 x i8]* @fcmp_namestr, i32 0, i32 0)), !llfi_injectfault !44
  %fi40 = call i1 @injectFault3(i64 373, i1 %fi37, i32 2, i32 0, i32 1, i32 1, i8* getelementptr inbounds ([3 x i8], [3 x i8]* @br_namestr, i32 0, i32 0)), !llfi_injectfault !18
  br i1 %fi40, label %102, label %106, !taffo.info !349, !taffo.initweight !93, !llfi_index !454, !taffo.target !453

102:                                              ; preds = %100
  %fi46 = call float @injectFault5(i64 374, float %98, i32 54, i32 1, i32 3, i32 1, i8* getelementptr inbounds ([5 x i8], [5 x i8]* @fcmp_namestr, i32 0, i32 0)), !llfi_injectfault !18
  %fi47 = call float @injectFault5(i64 374, float 0.000000e+00, i32 54, i32 2, i32 3, i32 2, i8* getelementptr inbounds ([5 x i8], [5 x i8]* @fcmp_namestr, i32 0, i32 0)), !llfi_injectfault !18
  %103 = fcmp oge float %fi46, %fi47, !taffo.info !349, !taffo.initweight !90, !llfi_index !455, !taffo.target !453
  %fi45 = call i1 @injectFault3(i64 374, i1 %103, i32 54, i32 0, i32 3, i32 0, i8* getelementptr inbounds ([5 x i8], [5 x i8]* @fcmp_namestr, i32 0, i32 0)), !llfi_injectfault !44
  %fi48 = call i1 @injectFault3(i64 375, i1 %fi45, i32 2, i32 0, i32 1, i32 1, i8* getelementptr inbounds ([3 x i8], [3 x i8]* @br_namestr, i32 0, i32 0)), !llfi_injectfault !18
  br i1 %fi48, label %104, label %106, !taffo.info !349, !taffo.initweight !93, !llfi_index !456, !taffo.target !453

104:                                              ; preds = %102
  %fi50 = call float @injectFault5(i64 376, float %98, i32 54, i32 1, i32 3, i32 1, i8* getelementptr inbounds ([5 x i8], [5 x i8]* @fcmp_namestr, i32 0, i32 0)), !llfi_injectfault !18
  %fi51 = call float @injectFault5(i64 376, float %95, i32 54, i32 2, i32 3, i32 2, i8* getelementptr inbounds ([5 x i8], [5 x i8]* @fcmp_namestr, i32 0, i32 0)), !llfi_injectfault !18
  %105 = fcmp ole float %fi50, %fi51, !taffo.info !349, !taffo.initweight !90, !llfi_index !457, !taffo.target !453
  %fi49 = call i1 @injectFault3(i64 376, i1 %105, i32 54, i32 0, i32 3, i32 0, i8* getelementptr inbounds ([5 x i8], [5 x i8]* @fcmp_namestr, i32 0, i32 0)), !llfi_injectfault !44
  %fi52 = call i1 @injectFault3(i64 377, i1 %fi49, i32 2, i32 0, i32 1, i32 1, i8* getelementptr inbounds ([3 x i8], [3 x i8]* @br_namestr, i32 0, i32 0)), !llfi_injectfault !18
  br i1 %fi52, label %112, label %106, !taffo.info !349, !taffo.initweight !93, !llfi_index !458, !taffo.target !453

106:                                              ; preds = %104, %102, %100
  %fi54 = call float @injectFault5(i64 378, float %95, i32 54, i32 1, i32 3, i32 1, i8* getelementptr inbounds ([5 x i8], [5 x i8]* @fcmp_namestr, i32 0, i32 0)), !llfi_injectfault !18
  %fi55 = call float @injectFault5(i64 378, float 0.000000e+00, i32 54, i32 2, i32 3, i32 2, i8* getelementptr inbounds ([5 x i8], [5 x i8]* @fcmp_namestr, i32 0, i32 0)), !llfi_injectfault !18
  %107 = fcmp olt float %fi54, %fi55, !taffo.info !349, !taffo.initweight !90, !llfi_index !459, !taffo.target !453
  %fi53 = call i1 @injectFault3(i64 378, i1 %107, i32 54, i32 0, i32 3, i32 0, i8* getelementptr inbounds ([5 x i8], [5 x i8]* @fcmp_namestr, i32 0, i32 0)), !llfi_injectfault !44
  %fi41 = call i1 @injectFault3(i64 379, i1 %fi53, i32 2, i32 0, i32 1, i32 1, i8* getelementptr inbounds ([3 x i8], [3 x i8]* @br_namestr, i32 0, i32 0)), !llfi_injectfault !18
  br i1 %fi41, label %108, label %132, !taffo.info !349, !taffo.initweight !93, !llfi_index !460, !taffo.target !453

108:                                              ; preds = %106
  %fi43 = call float @injectFault5(i64 380, float %98, i32 54, i32 1, i32 3, i32 1, i8* getelementptr inbounds ([5 x i8], [5 x i8]* @fcmp_namestr, i32 0, i32 0)), !llfi_injectfault !18
  %fi44 = call float @injectFault5(i64 380, float 0.000000e+00, i32 54, i32 2, i32 3, i32 2, i8* getelementptr inbounds ([5 x i8], [5 x i8]* @fcmp_namestr, i32 0, i32 0)), !llfi_injectfault !18
  %109 = fcmp ole float %fi43, %fi44, !taffo.info !349, !taffo.initweight !90, !llfi_index !461, !taffo.target !453
  %fi42 = call i1 @injectFault3(i64 380, i1 %109, i32 54, i32 0, i32 3, i32 0, i8* getelementptr inbounds ([5 x i8], [5 x i8]* @fcmp_namestr, i32 0, i32 0)), !llfi_injectfault !44
  %fi61 = call i1 @injectFault3(i64 381, i1 %fi42, i32 2, i32 0, i32 1, i32 1, i8* getelementptr inbounds ([3 x i8], [3 x i8]* @br_namestr, i32 0, i32 0)), !llfi_injectfault !18
  br i1 %fi61, label %110, label %132, !taffo.info !349, !taffo.initweight !93, !llfi_index !462, !taffo.target !453

110:                                              ; preds = %108
  %fi63 = call float @injectFault5(i64 382, float %98, i32 54, i32 1, i32 3, i32 1, i8* getelementptr inbounds ([5 x i8], [5 x i8]* @fcmp_namestr, i32 0, i32 0)), !llfi_injectfault !18
  %fi64 = call float @injectFault5(i64 382, float %95, i32 54, i32 2, i32 3, i32 2, i8* getelementptr inbounds ([5 x i8], [5 x i8]* @fcmp_namestr, i32 0, i32 0)), !llfi_injectfault !18
  %111 = fcmp oge float %fi63, %fi64, !taffo.info !349, !taffo.initweight !90, !llfi_index !463, !taffo.target !453
  %fi62 = call i1 @injectFault3(i64 382, i1 %111, i32 54, i32 0, i32 3, i32 0, i8* getelementptr inbounds ([5 x i8], [5 x i8]* @fcmp_namestr, i32 0, i32 0)), !llfi_injectfault !44
  %fi65 = call i1 @injectFault3(i64 383, i1 %fi62, i32 2, i32 0, i32 1, i32 1, i8* getelementptr inbounds ([3 x i8], [3 x i8]* @br_namestr, i32 0, i32 0)), !llfi_injectfault !18
  br i1 %fi65, label %112, label %132, !taffo.info !349, !taffo.initweight !93, !llfi_index !464, !taffo.target !453

112:                                              ; preds = %110, %104
  %fi278 = call float @injectFault5(i64 384, float %fi152, i32 18, i32 1, i32 3, i32 1, i8* getelementptr inbounds ([5 x i8], [5 x i8]* @fmul_namestr, i32 0, i32 0)), !llfi_injectfault !18
  %fi279 = call float @injectFault5(i64 384, float %fi13, i32 18, i32 2, i32 3, i32 2, i8* getelementptr inbounds ([5 x i8], [5 x i8]* @fmul_namestr, i32 0, i32 0)), !llfi_injectfault !18
  %113 = fmul float %fi278, %fi279, !taffo.info !349, !taffo.initweight !90, !llfi_index !465
  %fi277 = call float @injectFault5(i64 384, float %113, i32 18, i32 0, i32 3, i32 0, i8* getelementptr inbounds ([5 x i8], [5 x i8]* @fmul_namestr, i32 0, i32 0)), !llfi_injectfault !44
  %fi281 = call float @injectFault5(i64 385, float %fi277, i32 12, i32 1, i32 2, i32 1, i8* getelementptr inbounds ([5 x i8], [5 x i8]* @fneg_namestr, i32 0, i32 0)), !llfi_injectfault !18
  %114 = fneg float %fi281, !taffo.info !349, !taffo.initweight !93, !llfi_index !466
  %fi280 = call float @injectFault5(i64 385, float %114, i32 12, i32 0, i32 2, i32 0, i8* getelementptr inbounds ([5 x i8], [5 x i8]* @fneg_namestr, i32 0, i32 0)), !llfi_injectfault !44
  %115 = call float @llvm.fmuladd.f32(float %fi141, float %fi24, float %fi280), !taffo.info !349, !taffo.initweight !90, !llfi_index !467, !taffo.constinfo !62
  br label %116, !llfi_index !468

116:                                              ; preds = %112
  br label %117, !llfi_index !469

117:                                              ; preds = %116
  %fi283 = call float @injectFault5(i64 389, float %95, i32 54, i32 1, i32 3, i32 1, i8* getelementptr inbounds ([5 x i8], [5 x i8]* @fcmp_namestr, i32 0, i32 0)), !llfi_injectfault !18
  %fi284 = call float @injectFault5(i64 389, float 0.000000e+00, i32 54, i32 2, i32 3, i32 2, i8* getelementptr inbounds ([5 x i8], [5 x i8]* @fcmp_namestr, i32 0, i32 0)), !llfi_injectfault !18
  %118 = fcmp ogt float %fi283, %fi284, !taffo.info !349, !taffo.initweight !90, !llfi_index !470, !taffo.target !453
  %fi282 = call i1 @injectFault3(i64 389, i1 %118, i32 54, i32 0, i32 3, i32 0, i8* getelementptr inbounds ([5 x i8], [5 x i8]* @fcmp_namestr, i32 0, i32 0)), !llfi_injectfault !44
  %fi285 = call i1 @injectFault3(i64 390, i1 %fi282, i32 2, i32 0, i32 1, i32 1, i8* getelementptr inbounds ([3 x i8], [3 x i8]* @br_namestr, i32 0, i32 0)), !llfi_injectfault !18
  br i1 %fi285, label %119, label %125, !taffo.info !349, !taffo.initweight !93, !llfi_index !471, !taffo.target !453

119:                                              ; preds = %117
  %fi287 = call float @injectFault5(i64 391, float %115, i32 54, i32 1, i32 3, i32 1, i8* getelementptr inbounds ([5 x i8], [5 x i8]* @fcmp_namestr, i32 0, i32 0)), !llfi_injectfault !18
  %fi288 = call float @injectFault5(i64 391, float 0.000000e+00, i32 54, i32 2, i32 3, i32 2, i8* getelementptr inbounds ([5 x i8], [5 x i8]* @fcmp_namestr, i32 0, i32 0)), !llfi_injectfault !18
  %120 = fcmp oge float %fi287, %fi288, !taffo.info !349, !taffo.initweight !90, !llfi_index !472, !taffo.target !453
  %fi286 = call i1 @injectFault3(i64 391, i1 %120, i32 54, i32 0, i32 3, i32 0, i8* getelementptr inbounds ([5 x i8], [5 x i8]* @fcmp_namestr, i32 0, i32 0)), !llfi_injectfault !44
  %fi289 = call i1 @injectFault3(i64 392, i1 %fi286, i32 2, i32 0, i32 1, i32 1, i8* getelementptr inbounds ([3 x i8], [3 x i8]* @br_namestr, i32 0, i32 0)), !llfi_injectfault !18
  br i1 %fi289, label %121, label %124, !taffo.info !349, !taffo.initweight !93, !llfi_index !473, !taffo.target !453

121:                                              ; preds = %119
  %fi291 = call float @injectFault5(i64 393, float %115, i32 54, i32 1, i32 3, i32 1, i8* getelementptr inbounds ([5 x i8], [5 x i8]* @fcmp_namestr, i32 0, i32 0)), !llfi_injectfault !18
  %fi292 = call float @injectFault5(i64 393, float %95, i32 54, i32 2, i32 3, i32 2, i8* getelementptr inbounds ([5 x i8], [5 x i8]* @fcmp_namestr, i32 0, i32 0)), !llfi_injectfault !18
  %122 = fcmp ole float %fi291, %fi292, !taffo.info !349, !taffo.initweight !90, !llfi_index !474, !taffo.target !453
  %fi290 = call i1 @injectFault3(i64 393, i1 %122, i32 54, i32 0, i32 3, i32 0, i8* getelementptr inbounds ([5 x i8], [5 x i8]* @fcmp_namestr, i32 0, i32 0)), !llfi_injectfault !44
  %fi = call i1 @injectFault3(i64 394, i1 %fi290, i32 2, i32 0, i32 1, i32 1, i8* getelementptr inbounds ([3 x i8], [3 x i8]* @br_namestr, i32 0, i32 0)), !llfi_injectfault !18
  br i1 %fi, label %123, label %124, !taffo.info !349, !taffo.initweight !93, !llfi_index !475, !taffo.target !453

123:                                              ; preds = %121
  br label %933, !llfi_index !476

124:                                              ; preds = %121, %119
  br label %131, !llfi_index !477

125:                                              ; preds = %117
  %fi305 = call float @injectFault5(i64 397, float %115, i32 54, i32 1, i32 3, i32 1, i8* getelementptr inbounds ([5 x i8], [5 x i8]* @fcmp_namestr, i32 0, i32 0)), !llfi_injectfault !18
  %fi306 = call float @injectFault5(i64 397, float 0.000000e+00, i32 54, i32 2, i32 3, i32 2, i8* getelementptr inbounds ([5 x i8], [5 x i8]* @fcmp_namestr, i32 0, i32 0)), !llfi_injectfault !18
  %126 = fcmp ole float %fi305, %fi306, !taffo.info !349, !taffo.initweight !90, !llfi_index !478, !taffo.target !453
  %fi304 = call i1 @injectFault3(i64 397, i1 %126, i32 54, i32 0, i32 3, i32 0, i8* getelementptr inbounds ([5 x i8], [5 x i8]* @fcmp_namestr, i32 0, i32 0)), !llfi_injectfault !44
  %fi307 = call i1 @injectFault3(i64 398, i1 %fi304, i32 2, i32 0, i32 1, i32 1, i8* getelementptr inbounds ([3 x i8], [3 x i8]* @br_namestr, i32 0, i32 0)), !llfi_injectfault !18
  br i1 %fi307, label %127, label %130, !taffo.info !349, !taffo.initweight !93, !llfi_index !479, !taffo.target !453

127:                                              ; preds = %125
  %fi309 = call float @injectFault5(i64 399, float %115, i32 54, i32 1, i32 3, i32 1, i8* getelementptr inbounds ([5 x i8], [5 x i8]* @fcmp_namestr, i32 0, i32 0)), !llfi_injectfault !18
  %fi310 = call float @injectFault5(i64 399, float %95, i32 54, i32 2, i32 3, i32 2, i8* getelementptr inbounds ([5 x i8], [5 x i8]* @fcmp_namestr, i32 0, i32 0)), !llfi_injectfault !18
  %128 = fcmp oge float %fi309, %fi310, !taffo.info !349, !taffo.initweight !90, !llfi_index !480, !taffo.target !453
  %fi308 = call i1 @injectFault3(i64 399, i1 %128, i32 54, i32 0, i32 3, i32 0, i8* getelementptr inbounds ([5 x i8], [5 x i8]* @fcmp_namestr, i32 0, i32 0)), !llfi_injectfault !44
  %fi315 = call i1 @injectFault3(i64 400, i1 %fi308, i32 2, i32 0, i32 1, i32 1, i8* getelementptr inbounds ([3 x i8], [3 x i8]* @br_namestr, i32 0, i32 0)), !llfi_injectfault !18
  br i1 %fi315, label %129, label %130, !taffo.info !349, !taffo.initweight !93, !llfi_index !481, !taffo.target !453

129:                                              ; preds = %127
  br label %933, !llfi_index !482

130:                                              ; preds = %127, %125
  br label %131, !llfi_index !483

131:                                              ; preds = %130, %124
  br label %132, !llfi_index !484

132:                                              ; preds = %131, %110, %108, %106
  %fi317 = call i16 @injectFault7(i64 404, i16 %fi132, i32 40, i32 1, i32 2, i32 1, i8* getelementptr inbounds ([5 x i8], [5 x i8]* @sext_namestr, i32 0, i32 0)), !llfi_injectfault !18
  %133 = sext i16 %fi317 to i64, !llfi_index !485
  %fi316 = call i64 @injectFault0(i64 404, i64 %133, i32 40, i32 0, i32 2, i32 0, i8* getelementptr inbounds ([5 x i8], [5 x i8]* @sext_namestr, i32 0, i32 0)), !llfi_injectfault !44
  %fi318 = call i64 @injectFault0(i64 405, i64 %fi316, i32 34, i32 0, i32 1, i32 2, i8* getelementptr inbounds ([14 x i8], [14 x i8]* @getelementptr_namestr, i32 0, i32 0)), !llfi_injectfault !18
  %134 = getelementptr float, float* %5, i64 %fi318, !llfi_index !486
  %135 = load float, float* %134, align 4, !llfi_index !487
  %fi319 = call float @injectFault5(i64 406, float %135, i32 32, i32 0, i32 1, i32 0, i8* getelementptr inbounds ([5 x i8], [5 x i8]* @load_namestr, i32 0, i32 0)), !llfi_injectfault !44
  %fi321 = call i16 @injectFault7(i64 407, i16 %fi132, i32 40, i32 1, i32 2, i32 1, i8* getelementptr inbounds ([5 x i8], [5 x i8]* @sext_namestr, i32 0, i32 0)), !llfi_injectfault !18
  %136 = sext i16 %fi321 to i64, !llfi_index !488
  %fi320 = call i64 @injectFault0(i64 407, i64 %136, i32 40, i32 0, i32 2, i32 0, i8* getelementptr inbounds ([5 x i8], [5 x i8]* @sext_namestr, i32 0, i32 0)), !llfi_injectfault !44
  %fi322 = call i64 @injectFault0(i64 408, i64 %fi320, i32 34, i32 0, i32 1, i32 2, i8* getelementptr inbounds ([14 x i8], [14 x i8]* @getelementptr_namestr, i32 0, i32 0)), !llfi_injectfault !18
  %137 = getelementptr float, float* %6, i64 %fi322, !llfi_index !489
  %138 = load float, float* %137, align 4, !llfi_index !490
  %fi323 = call float @injectFault5(i64 409, float %138, i32 32, i32 0, i32 1, i32 0, i8* getelementptr inbounds ([5 x i8], [5 x i8]* @load_namestr, i32 0, i32 0)), !llfi_injectfault !44
  %fi325 = call float @injectFault5(i64 410, float %fi319, i32 16, i32 1, i32 3, i32 1, i8* getelementptr inbounds ([5 x i8], [5 x i8]* @fsub_namestr, i32 0, i32 0)), !llfi_injectfault !18
  %fi326 = call float @injectFault5(i64 410, float %fi323, i32 16, i32 2, i32 3, i32 2, i8* getelementptr inbounds ([5 x i8], [5 x i8]* @fsub_namestr, i32 0, i32 0)), !llfi_injectfault !18
  %139 = fsub float %fi325, %fi326, !taffo.info !349, !taffo.initweight !90, !llfi_index !491
  %fi324 = call float @injectFault5(i64 410, float %139, i32 16, i32 0, i32 3, i32 0, i8* getelementptr inbounds ([5 x i8], [5 x i8]* @fsub_namestr, i32 0, i32 0)), !llfi_injectfault !44
  %fi328 = call i16 @injectFault7(i64 411, i16 %fi131, i32 40, i32 1, i32 2, i32 1, i8* getelementptr inbounds ([5 x i8], [5 x i8]* @sext_namestr, i32 0, i32 0)), !llfi_injectfault !18
  %140 = sext i16 %fi328 to i64, !llfi_index !492
  %fi327 = call i64 @injectFault0(i64 411, i64 %140, i32 40, i32 0, i32 2, i32 0, i8* getelementptr inbounds ([5 x i8], [5 x i8]* @sext_namestr, i32 0, i32 0)), !llfi_injectfault !44
  %fi329 = call i64 @injectFault0(i64 412, i64 %fi327, i32 34, i32 0, i32 1, i32 2, i8* getelementptr inbounds ([14 x i8], [14 x i8]* @getelementptr_namestr, i32 0, i32 0)), !llfi_injectfault !18
  %141 = getelementptr float, float* %5, i64 %fi329, !llfi_index !493
  %142 = load float, float* %141, align 4, !llfi_index !494
  %fi330 = call float @injectFault5(i64 413, float %142, i32 32, i32 0, i32 1, i32 0, i8* getelementptr inbounds ([5 x i8], [5 x i8]* @load_namestr, i32 0, i32 0)), !llfi_injectfault !44
  %fi332 = call i16 @injectFault7(i64 414, i16 %fi131, i32 40, i32 1, i32 2, i32 1, i8* getelementptr inbounds ([5 x i8], [5 x i8]* @sext_namestr, i32 0, i32 0)), !llfi_injectfault !18
  %143 = sext i16 %fi332 to i64, !llfi_index !495
  %fi331 = call i64 @injectFault0(i64 414, i64 %143, i32 40, i32 0, i32 2, i32 0, i8* getelementptr inbounds ([5 x i8], [5 x i8]* @sext_namestr, i32 0, i32 0)), !llfi_injectfault !44
  %fi333 = call i64 @injectFault0(i64 415, i64 %fi331, i32 34, i32 0, i32 1, i32 2, i8* getelementptr inbounds ([14 x i8], [14 x i8]* @getelementptr_namestr, i32 0, i32 0)), !llfi_injectfault !18
  %144 = getelementptr float, float* %6, i64 %fi333, !llfi_index !496
  %145 = load float, float* %144, align 4, !llfi_index !497
  %fi334 = call float @injectFault5(i64 416, float %145, i32 32, i32 0, i32 1, i32 0, i8* getelementptr inbounds ([5 x i8], [5 x i8]* @load_namestr, i32 0, i32 0)), !llfi_injectfault !44
  %fi336 = call float @injectFault5(i64 417, float %fi330, i32 16, i32 1, i32 3, i32 1, i8* getelementptr inbounds ([5 x i8], [5 x i8]* @fsub_namestr, i32 0, i32 0)), !llfi_injectfault !18
  %fi337 = call float @injectFault5(i64 417, float %fi334, i32 16, i32 2, i32 3, i32 2, i8* getelementptr inbounds ([5 x i8], [5 x i8]* @fsub_namestr, i32 0, i32 0)), !llfi_injectfault !18
  %146 = fsub float %fi336, %fi337, !taffo.info !349, !taffo.initweight !90, !llfi_index !498
  %fi335 = call float @injectFault5(i64 417, float %146, i32 16, i32 0, i32 3, i32 0, i8* getelementptr inbounds ([5 x i8], [5 x i8]* @fsub_namestr, i32 0, i32 0)), !llfi_injectfault !44
  %fi339 = call i16 @injectFault7(i64 418, i16 %fi132, i32 40, i32 1, i32 2, i32 1, i8* getelementptr inbounds ([5 x i8], [5 x i8]* @sext_namestr, i32 0, i32 0)), !llfi_injectfault !18
  %147 = sext i16 %fi339 to i64, !llfi_index !499
  %fi338 = call i64 @injectFault0(i64 418, i64 %147, i32 40, i32 0, i32 2, i32 0, i8* getelementptr inbounds ([5 x i8], [5 x i8]* @sext_namestr, i32 0, i32 0)), !llfi_injectfault !44
  %fi340 = call i64 @injectFault0(i64 419, i64 %fi338, i32 34, i32 0, i32 1, i32 2, i8* getelementptr inbounds ([14 x i8], [14 x i8]* @getelementptr_namestr, i32 0, i32 0)), !llfi_injectfault !18
  %148 = getelementptr float, float* %1, i64 %fi340, !llfi_index !500
  %149 = load float, float* %148, align 4, !llfi_index !501
  %fi341 = call float @injectFault5(i64 420, float %149, i32 32, i32 0, i32 1, i32 0, i8* getelementptr inbounds ([5 x i8], [5 x i8]* @load_namestr, i32 0, i32 0)), !llfi_injectfault !44
  %fi343 = call i16 @injectFault7(i64 421, i16 %fi132, i32 40, i32 1, i32 2, i32 1, i8* getelementptr inbounds ([5 x i8], [5 x i8]* @sext_namestr, i32 0, i32 0)), !llfi_injectfault !18
  %150 = sext i16 %fi343 to i64, !llfi_index !502
  %fi342 = call i64 @injectFault0(i64 421, i64 %150, i32 40, i32 0, i32 2, i32 0, i8* getelementptr inbounds ([5 x i8], [5 x i8]* @sext_namestr, i32 0, i32 0)), !llfi_injectfault !44
  %fi344 = call i64 @injectFault0(i64 422, i64 %fi342, i32 34, i32 0, i32 1, i32 2, i8* getelementptr inbounds ([14 x i8], [14 x i8]* @getelementptr_namestr, i32 0, i32 0)), !llfi_injectfault !18
  %151 = getelementptr float, float* %5, i64 %fi344, !llfi_index !503
  %152 = load float, float* %151, align 4, !llfi_index !504
  %fi345 = call float @injectFault5(i64 423, float %152, i32 32, i32 0, i32 1, i32 0, i8* getelementptr inbounds ([5 x i8], [5 x i8]* @load_namestr, i32 0, i32 0)), !llfi_injectfault !44
  %fi347 = call float @injectFault5(i64 424, float %fi341, i32 16, i32 1, i32 3, i32 1, i8* getelementptr inbounds ([5 x i8], [5 x i8]* @fsub_namestr, i32 0, i32 0)), !llfi_injectfault !18
  %fi348 = call float @injectFault5(i64 424, float %fi345, i32 16, i32 2, i32 3, i32 2, i8* getelementptr inbounds ([5 x i8], [5 x i8]* @fsub_namestr, i32 0, i32 0)), !llfi_injectfault !18
  %153 = fsub float %fi347, %fi348, !taffo.info !349, !taffo.initweight !90, !llfi_index !505
  %fi346 = call float @injectFault5(i64 424, float %153, i32 16, i32 0, i32 3, i32 0, i8* getelementptr inbounds ([5 x i8], [5 x i8]* @fsub_namestr, i32 0, i32 0)), !llfi_injectfault !44
  %fi350 = call i16 @injectFault7(i64 425, i16 %fi131, i32 40, i32 1, i32 2, i32 1, i8* getelementptr inbounds ([5 x i8], [5 x i8]* @sext_namestr, i32 0, i32 0)), !llfi_injectfault !18
  %154 = sext i16 %fi350 to i64, !llfi_index !506
  %fi349 = call i64 @injectFault0(i64 425, i64 %154, i32 40, i32 0, i32 2, i32 0, i8* getelementptr inbounds ([5 x i8], [5 x i8]* @sext_namestr, i32 0, i32 0)), !llfi_injectfault !44
  %fi351 = call i64 @injectFault0(i64 426, i64 %fi349, i32 34, i32 0, i32 1, i32 2, i8* getelementptr inbounds ([14 x i8], [14 x i8]* @getelementptr_namestr, i32 0, i32 0)), !llfi_injectfault !18
  %155 = getelementptr float, float* %1, i64 %fi351, !llfi_index !507
  %156 = load float, float* %155, align 4, !llfi_index !508
  %fi352 = call float @injectFault5(i64 427, float %156, i32 32, i32 0, i32 1, i32 0, i8* getelementptr inbounds ([5 x i8], [5 x i8]* @load_namestr, i32 0, i32 0)), !llfi_injectfault !44
  %fi354 = call i16 @injectFault7(i64 428, i16 %fi131, i32 40, i32 1, i32 2, i32 1, i8* getelementptr inbounds ([5 x i8], [5 x i8]* @sext_namestr, i32 0, i32 0)), !llfi_injectfault !18
  %157 = sext i16 %fi354 to i64, !llfi_index !509
  %fi353 = call i64 @injectFault0(i64 428, i64 %157, i32 40, i32 0, i32 2, i32 0, i8* getelementptr inbounds ([5 x i8], [5 x i8]* @sext_namestr, i32 0, i32 0)), !llfi_injectfault !44
  %fi355 = call i64 @injectFault0(i64 429, i64 %fi353, i32 34, i32 0, i32 1, i32 2, i8* getelementptr inbounds ([14 x i8], [14 x i8]* @getelementptr_namestr, i32 0, i32 0)), !llfi_injectfault !18
  %158 = getelementptr float, float* %5, i64 %fi355, !llfi_index !510
  %159 = load float, float* %158, align 4, !llfi_index !511
  %fi356 = call float @injectFault5(i64 430, float %159, i32 32, i32 0, i32 1, i32 0, i8* getelementptr inbounds ([5 x i8], [5 x i8]* @load_namestr, i32 0, i32 0)), !llfi_injectfault !44
  %fi358 = call float @injectFault5(i64 431, float %fi352, i32 16, i32 1, i32 3, i32 1, i8* getelementptr inbounds ([5 x i8], [5 x i8]* @fsub_namestr, i32 0, i32 0)), !llfi_injectfault !18
  %fi359 = call float @injectFault5(i64 431, float %fi356, i32 16, i32 2, i32 3, i32 2, i8* getelementptr inbounds ([5 x i8], [5 x i8]* @fsub_namestr, i32 0, i32 0)), !llfi_injectfault !18
  %160 = fsub float %fi358, %fi359, !taffo.info !349, !taffo.initweight !90, !llfi_index !512
  %fi357 = call float @injectFault5(i64 431, float %160, i32 16, i32 0, i32 3, i32 0, i8* getelementptr inbounds ([5 x i8], [5 x i8]* @fsub_namestr, i32 0, i32 0)), !llfi_injectfault !44
  %fi361 = call float @injectFault5(i64 432, float %fi141, i32 18, i32 1, i32 3, i32 1, i8* getelementptr inbounds ([5 x i8], [5 x i8]* @fmul_namestr, i32 0, i32 0)), !llfi_injectfault !18
  %fi362 = call float @injectFault5(i64 432, float %fi335, i32 18, i32 2, i32 3, i32 2, i8* getelementptr inbounds ([5 x i8], [5 x i8]* @fmul_namestr, i32 0, i32 0)), !llfi_injectfault !18
  %161 = fmul float %fi361, %fi362, !taffo.info !349, !taffo.initweight !90, !llfi_index !513
  %fi360 = call float @injectFault5(i64 432, float %161, i32 18, i32 0, i32 3, i32 0, i8* getelementptr inbounds ([5 x i8], [5 x i8]* @fmul_namestr, i32 0, i32 0)), !llfi_injectfault !44
  %fi364 = call float @injectFault5(i64 433, float %fi360, i32 12, i32 1, i32 2, i32 1, i8* getelementptr inbounds ([5 x i8], [5 x i8]* @fneg_namestr, i32 0, i32 0)), !llfi_injectfault !18
  %162 = fneg float %fi364, !taffo.info !349, !taffo.initweight !93, !llfi_index !514
  %fi363 = call float @injectFault5(i64 433, float %162, i32 12, i32 0, i32 2, i32 0, i8* getelementptr inbounds ([5 x i8], [5 x i8]* @fneg_namestr, i32 0, i32 0)), !llfi_injectfault !44
  %163 = call float @llvm.fmuladd.f32(float %fi152, float %fi324, float %fi363), !taffo.info !349, !taffo.initweight !90, !llfi_index !515, !taffo.constinfo !62
  %fi366 = call float @injectFault5(i64 435, float %fi324, i32 18, i32 1, i32 3, i32 1, i8* getelementptr inbounds ([5 x i8], [5 x i8]* @fmul_namestr, i32 0, i32 0)), !llfi_injectfault !18
  %fi367 = call float @injectFault5(i64 435, float %fi357, i32 18, i32 2, i32 3, i32 2, i8* getelementptr inbounds ([5 x i8], [5 x i8]* @fmul_namestr, i32 0, i32 0)), !llfi_injectfault !18
  %164 = fmul float %fi366, %fi367, !taffo.info !349, !taffo.initweight !90, !llfi_index !516
  %fi365 = call float @injectFault5(i64 435, float %164, i32 18, i32 0, i32 3, i32 0, i8* getelementptr inbounds ([5 x i8], [5 x i8]* @fmul_namestr, i32 0, i32 0)), !llfi_injectfault !44
  %fi369 = call float @injectFault5(i64 436, float %fi365, i32 12, i32 1, i32 2, i32 1, i8* getelementptr inbounds ([5 x i8], [5 x i8]* @fneg_namestr, i32 0, i32 0)), !llfi_injectfault !18
  %165 = fneg float %fi369, !taffo.info !349, !taffo.initweight !93, !llfi_index !517
  %fi368 = call float @injectFault5(i64 436, float %165, i32 12, i32 0, i32 2, i32 0, i8* getelementptr inbounds ([5 x i8], [5 x i8]* @fneg_namestr, i32 0, i32 0)), !llfi_injectfault !44
  %166 = call float @llvm.fmuladd.f32(float %fi335, float %fi346, float %fi368), !taffo.info !349, !taffo.initweight !90, !llfi_index !518, !taffo.constinfo !62
  br label %167, !llfi_index !519

167:                                              ; preds = %132
  br label %168, !llfi_index !520

168:                                              ; preds = %167
  %fi371 = call float @injectFault5(i64 440, float %163, i32 54, i32 1, i32 3, i32 1, i8* getelementptr inbounds ([5 x i8], [5 x i8]* @fcmp_namestr, i32 0, i32 0)), !llfi_injectfault !18
  %fi372 = call float @injectFault5(i64 440, float 0.000000e+00, i32 54, i32 2, i32 3, i32 2, i8* getelementptr inbounds ([5 x i8], [5 x i8]* @fcmp_namestr, i32 0, i32 0)), !llfi_injectfault !18
  %169 = fcmp ogt float %fi371, %fi372, !taffo.info !349, !taffo.initweight !90, !llfi_index !521, !taffo.target !453
  %fi370 = call i1 @injectFault3(i64 440, i1 %169, i32 54, i32 0, i32 3, i32 0, i8* getelementptr inbounds ([5 x i8], [5 x i8]* @fcmp_namestr, i32 0, i32 0)), !llfi_injectfault !44
  %fi373 = call i1 @injectFault3(i64 441, i1 %fi370, i32 2, i32 0, i32 1, i32 1, i8* getelementptr inbounds ([3 x i8], [3 x i8]* @br_namestr, i32 0, i32 0)), !llfi_injectfault !18
  br i1 %fi373, label %170, label %174, !taffo.info !349, !taffo.initweight !93, !llfi_index !522, !taffo.target !453

170:                                              ; preds = %168
  %fi375 = call float @injectFault5(i64 442, float %166, i32 54, i32 1, i32 3, i32 1, i8* getelementptr inbounds ([5 x i8], [5 x i8]* @fcmp_namestr, i32 0, i32 0)), !llfi_injectfault !18
  %fi376 = call float @injectFault5(i64 442, float 0.000000e+00, i32 54, i32 2, i32 3, i32 2, i8* getelementptr inbounds ([5 x i8], [5 x i8]* @fcmp_namestr, i32 0, i32 0)), !llfi_injectfault !18
  %171 = fcmp oge float %fi375, %fi376, !taffo.info !349, !taffo.initweight !90, !llfi_index !523, !taffo.target !453
  %fi374 = call i1 @injectFault3(i64 442, i1 %171, i32 54, i32 0, i32 3, i32 0, i8* getelementptr inbounds ([5 x i8], [5 x i8]* @fcmp_namestr, i32 0, i32 0)), !llfi_injectfault !44
  %fi377 = call i1 @injectFault3(i64 443, i1 %fi374, i32 2, i32 0, i32 1, i32 1, i8* getelementptr inbounds ([3 x i8], [3 x i8]* @br_namestr, i32 0, i32 0)), !llfi_injectfault !18
  br i1 %fi377, label %172, label %174, !taffo.info !349, !taffo.initweight !93, !llfi_index !524, !taffo.target !453

172:                                              ; preds = %170
  %fi379 = call float @injectFault5(i64 444, float %166, i32 54, i32 1, i32 3, i32 1, i8* getelementptr inbounds ([5 x i8], [5 x i8]* @fcmp_namestr, i32 0, i32 0)), !llfi_injectfault !18
  %fi380 = call float @injectFault5(i64 444, float %163, i32 54, i32 2, i32 3, i32 2, i8* getelementptr inbounds ([5 x i8], [5 x i8]* @fcmp_namestr, i32 0, i32 0)), !llfi_injectfault !18
  %173 = fcmp ole float %fi379, %fi380, !taffo.info !349, !taffo.initweight !90, !llfi_index !525, !taffo.target !453
  %fi378 = call i1 @injectFault3(i64 444, i1 %173, i32 54, i32 0, i32 3, i32 0, i8* getelementptr inbounds ([5 x i8], [5 x i8]* @fcmp_namestr, i32 0, i32 0)), !llfi_injectfault !44
  %fi381 = call i1 @injectFault3(i64 445, i1 %fi378, i32 2, i32 0, i32 1, i32 1, i8* getelementptr inbounds ([3 x i8], [3 x i8]* @br_namestr, i32 0, i32 0)), !llfi_injectfault !18
  br i1 %fi381, label %180, label %174, !taffo.info !349, !taffo.initweight !93, !llfi_index !526, !taffo.target !453

174:                                              ; preds = %172, %170, %168
  %fi383 = call float @injectFault5(i64 446, float %163, i32 54, i32 1, i32 3, i32 1, i8* getelementptr inbounds ([5 x i8], [5 x i8]* @fcmp_namestr, i32 0, i32 0)), !llfi_injectfault !18
  %fi384 = call float @injectFault5(i64 446, float 0.000000e+00, i32 54, i32 2, i32 3, i32 2, i8* getelementptr inbounds ([5 x i8], [5 x i8]* @fcmp_namestr, i32 0, i32 0)), !llfi_injectfault !18
  %175 = fcmp olt float %fi383, %fi384, !taffo.info !349, !taffo.initweight !90, !llfi_index !527, !taffo.target !453
  %fi382 = call i1 @injectFault3(i64 446, i1 %175, i32 54, i32 0, i32 3, i32 0, i8* getelementptr inbounds ([5 x i8], [5 x i8]* @fcmp_namestr, i32 0, i32 0)), !llfi_injectfault !44
  %fi385 = call i1 @injectFault3(i64 447, i1 %fi382, i32 2, i32 0, i32 1, i32 1, i8* getelementptr inbounds ([3 x i8], [3 x i8]* @br_namestr, i32 0, i32 0)), !llfi_injectfault !18
  br i1 %fi385, label %176, label %200, !taffo.info !349, !taffo.initweight !93, !llfi_index !528, !taffo.target !453

176:                                              ; preds = %174
  %fi387 = call float @injectFault5(i64 448, float %166, i32 54, i32 1, i32 3, i32 1, i8* getelementptr inbounds ([5 x i8], [5 x i8]* @fcmp_namestr, i32 0, i32 0)), !llfi_injectfault !18
  %fi388 = call float @injectFault5(i64 448, float 0.000000e+00, i32 54, i32 2, i32 3, i32 2, i8* getelementptr inbounds ([5 x i8], [5 x i8]* @fcmp_namestr, i32 0, i32 0)), !llfi_injectfault !18
  %177 = fcmp ole float %fi387, %fi388, !taffo.info !349, !taffo.initweight !90, !llfi_index !529, !taffo.target !453
  %fi386 = call i1 @injectFault3(i64 448, i1 %177, i32 54, i32 0, i32 3, i32 0, i8* getelementptr inbounds ([5 x i8], [5 x i8]* @fcmp_namestr, i32 0, i32 0)), !llfi_injectfault !44
  %fi389 = call i1 @injectFault3(i64 449, i1 %fi386, i32 2, i32 0, i32 1, i32 1, i8* getelementptr inbounds ([3 x i8], [3 x i8]* @br_namestr, i32 0, i32 0)), !llfi_injectfault !18
  br i1 %fi389, label %178, label %200, !taffo.info !349, !taffo.initweight !93, !llfi_index !530, !taffo.target !453

178:                                              ; preds = %176
  %fi391 = call float @injectFault5(i64 450, float %166, i32 54, i32 1, i32 3, i32 1, i8* getelementptr inbounds ([5 x i8], [5 x i8]* @fcmp_namestr, i32 0, i32 0)), !llfi_injectfault !18
  %fi392 = call float @injectFault5(i64 450, float %163, i32 54, i32 2, i32 3, i32 2, i8* getelementptr inbounds ([5 x i8], [5 x i8]* @fcmp_namestr, i32 0, i32 0)), !llfi_injectfault !18
  %179 = fcmp oge float %fi391, %fi392, !taffo.info !349, !taffo.initweight !90, !llfi_index !531, !taffo.target !453
  %fi390 = call i1 @injectFault3(i64 450, i1 %179, i32 54, i32 0, i32 3, i32 0, i8* getelementptr inbounds ([5 x i8], [5 x i8]* @fcmp_namestr, i32 0, i32 0)), !llfi_injectfault !44
  %fi393 = call i1 @injectFault3(i64 451, i1 %fi390, i32 2, i32 0, i32 1, i32 1, i8* getelementptr inbounds ([3 x i8], [3 x i8]* @br_namestr, i32 0, i32 0)), !llfi_injectfault !18
  br i1 %fi393, label %180, label %200, !taffo.info !349, !taffo.initweight !93, !llfi_index !532, !taffo.target !453

180:                                              ; preds = %178, %172
  %fi395 = call float @injectFault5(i64 452, float %fi152, i32 18, i32 1, i32 3, i32 1, i8* getelementptr inbounds ([5 x i8], [5 x i8]* @fmul_namestr, i32 0, i32 0)), !llfi_injectfault !18
  %fi396 = call float @injectFault5(i64 452, float %fi346, i32 18, i32 2, i32 3, i32 2, i8* getelementptr inbounds ([5 x i8], [5 x i8]* @fmul_namestr, i32 0, i32 0)), !llfi_injectfault !18
  %181 = fmul float %fi395, %fi396, !taffo.info !349, !taffo.initweight !90, !llfi_index !533
  %fi394 = call float @injectFault5(i64 452, float %181, i32 18, i32 0, i32 3, i32 0, i8* getelementptr inbounds ([5 x i8], [5 x i8]* @fmul_namestr, i32 0, i32 0)), !llfi_injectfault !44
  %fi57 = call float @injectFault5(i64 453, float %fi394, i32 12, i32 1, i32 2, i32 1, i8* getelementptr inbounds ([5 x i8], [5 x i8]* @fneg_namestr, i32 0, i32 0)), !llfi_injectfault !18
  %182 = fneg float %fi57, !taffo.info !349, !taffo.initweight !93, !llfi_index !534
  %fi56 = call float @injectFault5(i64 453, float %182, i32 12, i32 0, i32 2, i32 0, i8* getelementptr inbounds ([5 x i8], [5 x i8]* @fneg_namestr, i32 0, i32 0)), !llfi_injectfault !44
  %183 = call float @llvm.fmuladd.f32(float %fi141, float %fi357, float %fi56), !taffo.info !349, !taffo.initweight !90, !llfi_index !535, !taffo.constinfo !62
  br label %184, !llfi_index !536

184:                                              ; preds = %180
  br label %185, !llfi_index !537

185:                                              ; preds = %184
  %fi59 = call float @injectFault5(i64 457, float %163, i32 54, i32 1, i32 3, i32 1, i8* getelementptr inbounds ([5 x i8], [5 x i8]* @fcmp_namestr, i32 0, i32 0)), !llfi_injectfault !18
  %fi60 = call float @injectFault5(i64 457, float 0.000000e+00, i32 54, i32 2, i32 3, i32 2, i8* getelementptr inbounds ([5 x i8], [5 x i8]* @fcmp_namestr, i32 0, i32 0)), !llfi_injectfault !18
  %186 = fcmp ogt float %fi59, %fi60, !taffo.info !349, !taffo.initweight !90, !llfi_index !538, !taffo.target !453
  %fi58 = call i1 @injectFault3(i64 457, i1 %186, i32 54, i32 0, i32 3, i32 0, i8* getelementptr inbounds ([5 x i8], [5 x i8]* @fcmp_namestr, i32 0, i32 0)), !llfi_injectfault !44
  %fi402 = call i1 @injectFault3(i64 458, i1 %fi58, i32 2, i32 0, i32 1, i32 1, i8* getelementptr inbounds ([3 x i8], [3 x i8]* @br_namestr, i32 0, i32 0)), !llfi_injectfault !18
  br i1 %fi402, label %187, label %193, !taffo.info !349, !taffo.initweight !93, !llfi_index !539, !taffo.target !453

187:                                              ; preds = %185
  %fi404 = call float @injectFault5(i64 459, float %183, i32 54, i32 1, i32 3, i32 1, i8* getelementptr inbounds ([5 x i8], [5 x i8]* @fcmp_namestr, i32 0, i32 0)), !llfi_injectfault !18
  %fi405 = call float @injectFault5(i64 459, float 0.000000e+00, i32 54, i32 2, i32 3, i32 2, i8* getelementptr inbounds ([5 x i8], [5 x i8]* @fcmp_namestr, i32 0, i32 0)), !llfi_injectfault !18
  %188 = fcmp oge float %fi404, %fi405, !taffo.info !349, !taffo.initweight !90, !llfi_index !540, !taffo.target !453
  %fi403 = call i1 @injectFault3(i64 459, i1 %188, i32 54, i32 0, i32 3, i32 0, i8* getelementptr inbounds ([5 x i8], [5 x i8]* @fcmp_namestr, i32 0, i32 0)), !llfi_injectfault !44
  %fi406 = call i1 @injectFault3(i64 460, i1 %fi403, i32 2, i32 0, i32 1, i32 1, i8* getelementptr inbounds ([3 x i8], [3 x i8]* @br_namestr, i32 0, i32 0)), !llfi_injectfault !18
  br i1 %fi406, label %189, label %192, !taffo.info !349, !taffo.initweight !93, !llfi_index !541, !taffo.target !453

189:                                              ; preds = %187
  %fi408 = call float @injectFault5(i64 461, float %183, i32 54, i32 1, i32 3, i32 1, i8* getelementptr inbounds ([5 x i8], [5 x i8]* @fcmp_namestr, i32 0, i32 0)), !llfi_injectfault !18
  %fi409 = call float @injectFault5(i64 461, float %163, i32 54, i32 2, i32 3, i32 2, i8* getelementptr inbounds ([5 x i8], [5 x i8]* @fcmp_namestr, i32 0, i32 0)), !llfi_injectfault !18
  %190 = fcmp ole float %fi408, %fi409, !taffo.info !349, !taffo.initweight !90, !llfi_index !542, !taffo.target !453
  %fi407 = call i1 @injectFault3(i64 461, i1 %190, i32 54, i32 0, i32 3, i32 0, i8* getelementptr inbounds ([5 x i8], [5 x i8]* @fcmp_namestr, i32 0, i32 0)), !llfi_injectfault !44
  %fi397 = call i1 @injectFault3(i64 462, i1 %fi407, i32 2, i32 0, i32 1, i32 1, i8* getelementptr inbounds ([3 x i8], [3 x i8]* @br_namestr, i32 0, i32 0)), !llfi_injectfault !18
  br i1 %fi397, label %191, label %192, !taffo.info !349, !taffo.initweight !93, !llfi_index !543, !taffo.target !453

191:                                              ; preds = %189
  br label %933, !llfi_index !544

192:                                              ; preds = %189, %187
  br label %199, !llfi_index !545

193:                                              ; preds = %185
  %fi399 = call float @injectFault5(i64 465, float %183, i32 54, i32 1, i32 3, i32 1, i8* getelementptr inbounds ([5 x i8], [5 x i8]* @fcmp_namestr, i32 0, i32 0)), !llfi_injectfault !18
  %fi400 = call float @injectFault5(i64 465, float 0.000000e+00, i32 54, i32 2, i32 3, i32 2, i8* getelementptr inbounds ([5 x i8], [5 x i8]* @fcmp_namestr, i32 0, i32 0)), !llfi_injectfault !18
  %194 = fcmp ole float %fi399, %fi400, !taffo.info !349, !taffo.initweight !90, !llfi_index !546, !taffo.target !453
  %fi398 = call i1 @injectFault3(i64 465, i1 %194, i32 54, i32 0, i32 3, i32 0, i8* getelementptr inbounds ([5 x i8], [5 x i8]* @fcmp_namestr, i32 0, i32 0)), !llfi_injectfault !44
  %fi401 = call i1 @injectFault3(i64 466, i1 %fi398, i32 2, i32 0, i32 1, i32 1, i8* getelementptr inbounds ([3 x i8], [3 x i8]* @br_namestr, i32 0, i32 0)), !llfi_injectfault !18
  br i1 %fi401, label %195, label %198, !taffo.info !349, !taffo.initweight !93, !llfi_index !547, !taffo.target !453

195:                                              ; preds = %193
  %fi75 = call float @injectFault5(i64 467, float %183, i32 54, i32 1, i32 3, i32 1, i8* getelementptr inbounds ([5 x i8], [5 x i8]* @fcmp_namestr, i32 0, i32 0)), !llfi_injectfault !18
  %fi76 = call float @injectFault5(i64 467, float %163, i32 54, i32 2, i32 3, i32 2, i8* getelementptr inbounds ([5 x i8], [5 x i8]* @fcmp_namestr, i32 0, i32 0)), !llfi_injectfault !18
  %196 = fcmp oge float %fi75, %fi76, !taffo.info !349, !taffo.initweight !90, !llfi_index !548, !taffo.target !453
  %fi74 = call i1 @injectFault3(i64 467, i1 %196, i32 54, i32 0, i32 3, i32 0, i8* getelementptr inbounds ([5 x i8], [5 x i8]* @fcmp_namestr, i32 0, i32 0)), !llfi_injectfault !44
  %fi77 = call i1 @injectFault3(i64 468, i1 %fi74, i32 2, i32 0, i32 1, i32 1, i8* getelementptr inbounds ([3 x i8], [3 x i8]* @br_namestr, i32 0, i32 0)), !llfi_injectfault !18
  br i1 %fi77, label %197, label %198, !taffo.info !349, !taffo.initweight !93, !llfi_index !549, !taffo.target !453

197:                                              ; preds = %195
  br label %933, !llfi_index !550

198:                                              ; preds = %195, %193
  br label %199, !llfi_index !551

199:                                              ; preds = %198, %192
  br label %200, !llfi_index !552

200:                                              ; preds = %199, %178, %176, %174
  %fi437 = call i16 @injectFault7(i64 472, i16 %fi132, i32 40, i32 1, i32 2, i32 1, i8* getelementptr inbounds ([5 x i8], [5 x i8]* @sext_namestr, i32 0, i32 0)), !llfi_injectfault !18
  %201 = sext i16 %fi437 to i64, !llfi_index !553
  %fi436 = call i64 @injectFault0(i64 472, i64 %201, i32 40, i32 0, i32 2, i32 0, i8* getelementptr inbounds ([5 x i8], [5 x i8]* @sext_namestr, i32 0, i32 0)), !llfi_injectfault !44
  %fi438 = call i64 @injectFault0(i64 473, i64 %fi436, i32 34, i32 0, i32 1, i32 2, i8* getelementptr inbounds ([14 x i8], [14 x i8]* @getelementptr_namestr, i32 0, i32 0)), !llfi_injectfault !18
  %202 = getelementptr float, float* %6, i64 %fi438, !llfi_index !554
  %203 = load float, float* %202, align 4, !llfi_index !555
  %fi439 = call float @injectFault5(i64 474, float %203, i32 32, i32 0, i32 1, i32 0, i8* getelementptr inbounds ([5 x i8], [5 x i8]* @load_namestr, i32 0, i32 0)), !llfi_injectfault !44
  %fi441 = call i16 @injectFault7(i64 475, i16 %fi132, i32 40, i32 1, i32 2, i32 1, i8* getelementptr inbounds ([5 x i8], [5 x i8]* @sext_namestr, i32 0, i32 0)), !llfi_injectfault !18
  %204 = sext i16 %fi441 to i64, !llfi_index !556
  %fi440 = call i64 @injectFault0(i64 475, i64 %204, i32 40, i32 0, i32 2, i32 0, i8* getelementptr inbounds ([5 x i8], [5 x i8]* @sext_namestr, i32 0, i32 0)), !llfi_injectfault !44
  %fi442 = call i64 @injectFault0(i64 476, i64 %fi440, i32 34, i32 0, i32 1, i32 2, i8* getelementptr inbounds ([14 x i8], [14 x i8]* @getelementptr_namestr, i32 0, i32 0)), !llfi_injectfault !18
  %205 = getelementptr float, float* %4, i64 %fi442, !llfi_index !557
  %206 = load float, float* %205, align 4, !llfi_index !558
  %fi443 = call float @injectFault5(i64 477, float %206, i32 32, i32 0, i32 1, i32 0, i8* getelementptr inbounds ([5 x i8], [5 x i8]* @load_namestr, i32 0, i32 0)), !llfi_injectfault !44
  %fi445 = call float @injectFault5(i64 478, float %fi439, i32 16, i32 1, i32 3, i32 1, i8* getelementptr inbounds ([5 x i8], [5 x i8]* @fsub_namestr, i32 0, i32 0)), !llfi_injectfault !18
  %fi446 = call float @injectFault5(i64 478, float %fi443, i32 16, i32 2, i32 3, i32 2, i8* getelementptr inbounds ([5 x i8], [5 x i8]* @fsub_namestr, i32 0, i32 0)), !llfi_injectfault !18
  %207 = fsub float %fi445, %fi446, !taffo.info !349, !taffo.initweight !90, !llfi_index !559
  %fi444 = call float @injectFault5(i64 478, float %207, i32 16, i32 0, i32 3, i32 0, i8* getelementptr inbounds ([5 x i8], [5 x i8]* @fsub_namestr, i32 0, i32 0)), !llfi_injectfault !44
  %fi448 = call i16 @injectFault7(i64 479, i16 %fi131, i32 40, i32 1, i32 2, i32 1, i8* getelementptr inbounds ([5 x i8], [5 x i8]* @sext_namestr, i32 0, i32 0)), !llfi_injectfault !18
  %208 = sext i16 %fi448 to i64, !llfi_index !560
  %fi447 = call i64 @injectFault0(i64 479, i64 %208, i32 40, i32 0, i32 2, i32 0, i8* getelementptr inbounds ([5 x i8], [5 x i8]* @sext_namestr, i32 0, i32 0)), !llfi_injectfault !44
  %fi449 = call i64 @injectFault0(i64 480, i64 %fi447, i32 34, i32 0, i32 1, i32 2, i8* getelementptr inbounds ([14 x i8], [14 x i8]* @getelementptr_namestr, i32 0, i32 0)), !llfi_injectfault !18
  %209 = getelementptr float, float* %6, i64 %fi449, !llfi_index !561
  %210 = load float, float* %209, align 4, !llfi_index !562
  %fi450 = call float @injectFault5(i64 481, float %210, i32 32, i32 0, i32 1, i32 0, i8* getelementptr inbounds ([5 x i8], [5 x i8]* @load_namestr, i32 0, i32 0)), !llfi_injectfault !44
  %fi452 = call i16 @injectFault7(i64 482, i16 %fi131, i32 40, i32 1, i32 2, i32 1, i8* getelementptr inbounds ([5 x i8], [5 x i8]* @sext_namestr, i32 0, i32 0)), !llfi_injectfault !18
  %211 = sext i16 %fi452 to i64, !llfi_index !563
  %fi451 = call i64 @injectFault0(i64 482, i64 %211, i32 40, i32 0, i32 2, i32 0, i8* getelementptr inbounds ([5 x i8], [5 x i8]* @sext_namestr, i32 0, i32 0)), !llfi_injectfault !44
  %fi453 = call i64 @injectFault0(i64 483, i64 %fi451, i32 34, i32 0, i32 1, i32 2, i8* getelementptr inbounds ([14 x i8], [14 x i8]* @getelementptr_namestr, i32 0, i32 0)), !llfi_injectfault !18
  %212 = getelementptr float, float* %4, i64 %fi453, !llfi_index !564
  %213 = load float, float* %212, align 4, !llfi_index !565
  %fi454 = call float @injectFault5(i64 484, float %213, i32 32, i32 0, i32 1, i32 0, i8* getelementptr inbounds ([5 x i8], [5 x i8]* @load_namestr, i32 0, i32 0)), !llfi_injectfault !44
  %fi456 = call float @injectFault5(i64 485, float %fi450, i32 16, i32 1, i32 3, i32 1, i8* getelementptr inbounds ([5 x i8], [5 x i8]* @fsub_namestr, i32 0, i32 0)), !llfi_injectfault !18
  %fi457 = call float @injectFault5(i64 485, float %fi454, i32 16, i32 2, i32 3, i32 2, i8* getelementptr inbounds ([5 x i8], [5 x i8]* @fsub_namestr, i32 0, i32 0)), !llfi_injectfault !18
  %214 = fsub float %fi456, %fi457, !taffo.info !349, !taffo.initweight !90, !llfi_index !566
  %fi455 = call float @injectFault5(i64 485, float %214, i32 16, i32 0, i32 3, i32 0, i8* getelementptr inbounds ([5 x i8], [5 x i8]* @fsub_namestr, i32 0, i32 0)), !llfi_injectfault !44
  %fi459 = call i16 @injectFault7(i64 486, i16 %fi132, i32 40, i32 1, i32 2, i32 1, i8* getelementptr inbounds ([5 x i8], [5 x i8]* @sext_namestr, i32 0, i32 0)), !llfi_injectfault !18
  %215 = sext i16 %fi459 to i64, !llfi_index !567
  %fi458 = call i64 @injectFault0(i64 486, i64 %215, i32 40, i32 0, i32 2, i32 0, i8* getelementptr inbounds ([5 x i8], [5 x i8]* @sext_namestr, i32 0, i32 0)), !llfi_injectfault !44
  %fi460 = call i64 @injectFault0(i64 487, i64 %fi458, i32 34, i32 0, i32 1, i32 2, i8* getelementptr inbounds ([14 x i8], [14 x i8]* @getelementptr_namestr, i32 0, i32 0)), !llfi_injectfault !18
  %216 = getelementptr float, float* %1, i64 %fi460, !llfi_index !568
  %217 = load float, float* %216, align 4, !llfi_index !569
  %fi461 = call float @injectFault5(i64 488, float %217, i32 32, i32 0, i32 1, i32 0, i8* getelementptr inbounds ([5 x i8], [5 x i8]* @load_namestr, i32 0, i32 0)), !llfi_injectfault !44
  %fi463 = call i16 @injectFault7(i64 489, i16 %fi132, i32 40, i32 1, i32 2, i32 1, i8* getelementptr inbounds ([5 x i8], [5 x i8]* @sext_namestr, i32 0, i32 0)), !llfi_injectfault !18
  %218 = sext i16 %fi463 to i64, !llfi_index !570
  %fi462 = call i64 @injectFault0(i64 489, i64 %218, i32 40, i32 0, i32 2, i32 0, i8* getelementptr inbounds ([5 x i8], [5 x i8]* @sext_namestr, i32 0, i32 0)), !llfi_injectfault !44
  %fi464 = call i64 @injectFault0(i64 490, i64 %fi462, i32 34, i32 0, i32 1, i32 2, i8* getelementptr inbounds ([14 x i8], [14 x i8]* @getelementptr_namestr, i32 0, i32 0)), !llfi_injectfault !18
  %219 = getelementptr float, float* %6, i64 %fi464, !llfi_index !571
  %220 = load float, float* %219, align 4, !llfi_index !572
  %fi465 = call float @injectFault5(i64 491, float %220, i32 32, i32 0, i32 1, i32 0, i8* getelementptr inbounds ([5 x i8], [5 x i8]* @load_namestr, i32 0, i32 0)), !llfi_injectfault !44
  %fi467 = call float @injectFault5(i64 492, float %fi461, i32 16, i32 1, i32 3, i32 1, i8* getelementptr inbounds ([5 x i8], [5 x i8]* @fsub_namestr, i32 0, i32 0)), !llfi_injectfault !18
  %fi468 = call float @injectFault5(i64 492, float %fi465, i32 16, i32 2, i32 3, i32 2, i8* getelementptr inbounds ([5 x i8], [5 x i8]* @fsub_namestr, i32 0, i32 0)), !llfi_injectfault !18
  %221 = fsub float %fi467, %fi468, !taffo.info !349, !taffo.initweight !90, !llfi_index !573
  %fi466 = call float @injectFault5(i64 492, float %221, i32 16, i32 0, i32 3, i32 0, i8* getelementptr inbounds ([5 x i8], [5 x i8]* @fsub_namestr, i32 0, i32 0)), !llfi_injectfault !44
  %fi470 = call i16 @injectFault7(i64 493, i16 %fi131, i32 40, i32 1, i32 2, i32 1, i8* getelementptr inbounds ([5 x i8], [5 x i8]* @sext_namestr, i32 0, i32 0)), !llfi_injectfault !18
  %222 = sext i16 %fi470 to i64, !llfi_index !574
  %fi469 = call i64 @injectFault0(i64 493, i64 %222, i32 40, i32 0, i32 2, i32 0, i8* getelementptr inbounds ([5 x i8], [5 x i8]* @sext_namestr, i32 0, i32 0)), !llfi_injectfault !44
  %fi471 = call i64 @injectFault0(i64 494, i64 %fi469, i32 34, i32 0, i32 1, i32 2, i8* getelementptr inbounds ([14 x i8], [14 x i8]* @getelementptr_namestr, i32 0, i32 0)), !llfi_injectfault !18
  %223 = getelementptr float, float* %1, i64 %fi471, !llfi_index !575
  %224 = load float, float* %223, align 4, !llfi_index !576
  %fi472 = call float @injectFault5(i64 495, float %224, i32 32, i32 0, i32 1, i32 0, i8* getelementptr inbounds ([5 x i8], [5 x i8]* @load_namestr, i32 0, i32 0)), !llfi_injectfault !44
  %fi474 = call i16 @injectFault7(i64 496, i16 %fi131, i32 40, i32 1, i32 2, i32 1, i8* getelementptr inbounds ([5 x i8], [5 x i8]* @sext_namestr, i32 0, i32 0)), !llfi_injectfault !18
  %225 = sext i16 %fi474 to i64, !llfi_index !577
  %fi473 = call i64 @injectFault0(i64 496, i64 %225, i32 40, i32 0, i32 2, i32 0, i8* getelementptr inbounds ([5 x i8], [5 x i8]* @sext_namestr, i32 0, i32 0)), !llfi_injectfault !44
  %fi475 = call i64 @injectFault0(i64 497, i64 %fi473, i32 34, i32 0, i32 1, i32 2, i8* getelementptr inbounds ([14 x i8], [14 x i8]* @getelementptr_namestr, i32 0, i32 0)), !llfi_injectfault !18
  %226 = getelementptr float, float* %6, i64 %fi475, !llfi_index !578
  %227 = load float, float* %226, align 4, !llfi_index !579
  %fi476 = call float @injectFault5(i64 498, float %227, i32 32, i32 0, i32 1, i32 0, i8* getelementptr inbounds ([5 x i8], [5 x i8]* @load_namestr, i32 0, i32 0)), !llfi_injectfault !44
  %fi478 = call float @injectFault5(i64 499, float %fi472, i32 16, i32 1, i32 3, i32 1, i8* getelementptr inbounds ([5 x i8], [5 x i8]* @fsub_namestr, i32 0, i32 0)), !llfi_injectfault !18
  %fi479 = call float @injectFault5(i64 499, float %fi476, i32 16, i32 2, i32 3, i32 2, i8* getelementptr inbounds ([5 x i8], [5 x i8]* @fsub_namestr, i32 0, i32 0)), !llfi_injectfault !18
  %228 = fsub float %fi478, %fi479, !taffo.info !349, !taffo.initweight !90, !llfi_index !580
  %fi477 = call float @injectFault5(i64 499, float %228, i32 16, i32 0, i32 3, i32 0, i8* getelementptr inbounds ([5 x i8], [5 x i8]* @fsub_namestr, i32 0, i32 0)), !llfi_injectfault !44
  %fi481 = call float @injectFault5(i64 500, float %fi141, i32 18, i32 1, i32 3, i32 1, i8* getelementptr inbounds ([5 x i8], [5 x i8]* @fmul_namestr, i32 0, i32 0)), !llfi_injectfault !18
  %fi482 = call float @injectFault5(i64 500, float %fi455, i32 18, i32 2, i32 3, i32 2, i8* getelementptr inbounds ([5 x i8], [5 x i8]* @fmul_namestr, i32 0, i32 0)), !llfi_injectfault !18
  %229 = fmul float %fi481, %fi482, !taffo.info !349, !taffo.initweight !90, !llfi_index !581
  %fi480 = call float @injectFault5(i64 500, float %229, i32 18, i32 0, i32 3, i32 0, i8* getelementptr inbounds ([5 x i8], [5 x i8]* @fmul_namestr, i32 0, i32 0)), !llfi_injectfault !44
  %fi484 = call float @injectFault5(i64 501, float %fi480, i32 12, i32 1, i32 2, i32 1, i8* getelementptr inbounds ([5 x i8], [5 x i8]* @fneg_namestr, i32 0, i32 0)), !llfi_injectfault !18
  %230 = fneg float %fi484, !taffo.info !349, !taffo.initweight !93, !llfi_index !582
  %fi483 = call float @injectFault5(i64 501, float %230, i32 12, i32 0, i32 2, i32 0, i8* getelementptr inbounds ([5 x i8], [5 x i8]* @fneg_namestr, i32 0, i32 0)), !llfi_injectfault !44
  %231 = call float @llvm.fmuladd.f32(float %fi152, float %fi444, float %fi483), !taffo.info !349, !taffo.initweight !90, !llfi_index !583, !taffo.constinfo !62
  %fi486 = call float @injectFault5(i64 503, float %fi444, i32 18, i32 1, i32 3, i32 1, i8* getelementptr inbounds ([5 x i8], [5 x i8]* @fmul_namestr, i32 0, i32 0)), !llfi_injectfault !18
  %fi487 = call float @injectFault5(i64 503, float %fi477, i32 18, i32 2, i32 3, i32 2, i8* getelementptr inbounds ([5 x i8], [5 x i8]* @fmul_namestr, i32 0, i32 0)), !llfi_injectfault !18
  %232 = fmul float %fi486, %fi487, !taffo.info !349, !taffo.initweight !90, !llfi_index !584
  %fi485 = call float @injectFault5(i64 503, float %232, i32 18, i32 0, i32 3, i32 0, i8* getelementptr inbounds ([5 x i8], [5 x i8]* @fmul_namestr, i32 0, i32 0)), !llfi_injectfault !44
  %fi489 = call float @injectFault5(i64 504, float %fi485, i32 12, i32 1, i32 2, i32 1, i8* getelementptr inbounds ([5 x i8], [5 x i8]* @fneg_namestr, i32 0, i32 0)), !llfi_injectfault !18
  %233 = fneg float %fi489, !taffo.info !349, !taffo.initweight !93, !llfi_index !585
  %fi488 = call float @injectFault5(i64 504, float %233, i32 12, i32 0, i32 2, i32 0, i8* getelementptr inbounds ([5 x i8], [5 x i8]* @fneg_namestr, i32 0, i32 0)), !llfi_injectfault !44
  %234 = call float @llvm.fmuladd.f32(float %fi455, float %fi466, float %fi488), !taffo.info !349, !taffo.initweight !90, !llfi_index !586, !taffo.constinfo !62
  br label %235, !llfi_index !587

235:                                              ; preds = %200
  br label %236, !llfi_index !588

236:                                              ; preds = %235
  %fi491 = call float @injectFault5(i64 508, float %231, i32 54, i32 1, i32 3, i32 1, i8* getelementptr inbounds ([5 x i8], [5 x i8]* @fcmp_namestr, i32 0, i32 0)), !llfi_injectfault !18
  %fi492 = call float @injectFault5(i64 508, float 0.000000e+00, i32 54, i32 2, i32 3, i32 2, i8* getelementptr inbounds ([5 x i8], [5 x i8]* @fcmp_namestr, i32 0, i32 0)), !llfi_injectfault !18
  %237 = fcmp ogt float %fi491, %fi492, !taffo.info !349, !taffo.initweight !90, !llfi_index !589, !taffo.target !453
  %fi490 = call i1 @injectFault3(i64 508, i1 %237, i32 54, i32 0, i32 3, i32 0, i8* getelementptr inbounds ([5 x i8], [5 x i8]* @fcmp_namestr, i32 0, i32 0)), !llfi_injectfault !44
  %fi493 = call i1 @injectFault3(i64 509, i1 %fi490, i32 2, i32 0, i32 1, i32 1, i8* getelementptr inbounds ([3 x i8], [3 x i8]* @br_namestr, i32 0, i32 0)), !llfi_injectfault !18
  br i1 %fi493, label %238, label %242, !taffo.info !349, !taffo.initweight !93, !llfi_index !590, !taffo.target !453

238:                                              ; preds = %236
  %fi495 = call float @injectFault5(i64 510, float %234, i32 54, i32 1, i32 3, i32 1, i8* getelementptr inbounds ([5 x i8], [5 x i8]* @fcmp_namestr, i32 0, i32 0)), !llfi_injectfault !18
  %fi496 = call float @injectFault5(i64 510, float 0.000000e+00, i32 54, i32 2, i32 3, i32 2, i8* getelementptr inbounds ([5 x i8], [5 x i8]* @fcmp_namestr, i32 0, i32 0)), !llfi_injectfault !18
  %239 = fcmp oge float %fi495, %fi496, !taffo.info !349, !taffo.initweight !90, !llfi_index !591, !taffo.target !453
  %fi494 = call i1 @injectFault3(i64 510, i1 %239, i32 54, i32 0, i32 3, i32 0, i8* getelementptr inbounds ([5 x i8], [5 x i8]* @fcmp_namestr, i32 0, i32 0)), !llfi_injectfault !44
  %fi432 = call i1 @injectFault3(i64 511, i1 %fi494, i32 2, i32 0, i32 1, i32 1, i8* getelementptr inbounds ([3 x i8], [3 x i8]* @br_namestr, i32 0, i32 0)), !llfi_injectfault !18
  br i1 %fi432, label %240, label %242, !taffo.info !349, !taffo.initweight !93, !llfi_index !592, !taffo.target !453

240:                                              ; preds = %238
  %fi434 = call float @injectFault5(i64 512, float %234, i32 54, i32 1, i32 3, i32 1, i8* getelementptr inbounds ([5 x i8], [5 x i8]* @fcmp_namestr, i32 0, i32 0)), !llfi_injectfault !18
  %fi435 = call float @injectFault5(i64 512, float %231, i32 54, i32 2, i32 3, i32 2, i8* getelementptr inbounds ([5 x i8], [5 x i8]* @fcmp_namestr, i32 0, i32 0)), !llfi_injectfault !18
  %241 = fcmp ole float %fi434, %fi435, !taffo.info !349, !taffo.initweight !90, !llfi_index !593, !taffo.target !453
  %fi433 = call i1 @injectFault3(i64 512, i1 %241, i32 54, i32 0, i32 3, i32 0, i8* getelementptr inbounds ([5 x i8], [5 x i8]* @fcmp_namestr, i32 0, i32 0)), !llfi_injectfault !44
  %fi508 = call i1 @injectFault3(i64 513, i1 %fi433, i32 2, i32 0, i32 1, i32 1, i8* getelementptr inbounds ([3 x i8], [3 x i8]* @br_namestr, i32 0, i32 0)), !llfi_injectfault !18
  br i1 %fi508, label %248, label %242, !taffo.info !349, !taffo.initweight !93, !llfi_index !594, !taffo.target !453

242:                                              ; preds = %240, %238, %236
  %fi510 = call float @injectFault5(i64 514, float %231, i32 54, i32 1, i32 3, i32 1, i8* getelementptr inbounds ([5 x i8], [5 x i8]* @fcmp_namestr, i32 0, i32 0)), !llfi_injectfault !18
  %fi511 = call float @injectFault5(i64 514, float 0.000000e+00, i32 54, i32 2, i32 3, i32 2, i8* getelementptr inbounds ([5 x i8], [5 x i8]* @fcmp_namestr, i32 0, i32 0)), !llfi_injectfault !18
  %243 = fcmp olt float %fi510, %fi511, !taffo.info !349, !taffo.initweight !90, !llfi_index !595, !taffo.target !453
  %fi509 = call i1 @injectFault3(i64 514, i1 %243, i32 54, i32 0, i32 3, i32 0, i8* getelementptr inbounds ([5 x i8], [5 x i8]* @fcmp_namestr, i32 0, i32 0)), !llfi_injectfault !44
  %fi512 = call i1 @injectFault3(i64 515, i1 %fi509, i32 2, i32 0, i32 1, i32 1, i8* getelementptr inbounds ([3 x i8], [3 x i8]* @br_namestr, i32 0, i32 0)), !llfi_injectfault !18
  br i1 %fi512, label %244, label %268, !taffo.info !349, !taffo.initweight !93, !llfi_index !596, !taffo.target !453

244:                                              ; preds = %242
  %fi514 = call float @injectFault5(i64 516, float %234, i32 54, i32 1, i32 3, i32 1, i8* getelementptr inbounds ([5 x i8], [5 x i8]* @fcmp_namestr, i32 0, i32 0)), !llfi_injectfault !18
  %fi515 = call float @injectFault5(i64 516, float 0.000000e+00, i32 54, i32 2, i32 3, i32 2, i8* getelementptr inbounds ([5 x i8], [5 x i8]* @fcmp_namestr, i32 0, i32 0)), !llfi_injectfault !18
  %245 = fcmp ole float %fi514, %fi515, !taffo.info !349, !taffo.initweight !90, !llfi_index !597, !taffo.target !453
  %fi513 = call i1 @injectFault3(i64 516, i1 %245, i32 54, i32 0, i32 3, i32 0, i8* getelementptr inbounds ([5 x i8], [5 x i8]* @fcmp_namestr, i32 0, i32 0)), !llfi_injectfault !44
  %fi516 = call i1 @injectFault3(i64 517, i1 %fi513, i32 2, i32 0, i32 1, i32 1, i8* getelementptr inbounds ([3 x i8], [3 x i8]* @br_namestr, i32 0, i32 0)), !llfi_injectfault !18
  br i1 %fi516, label %246, label %268, !taffo.info !349, !taffo.initweight !93, !llfi_index !598, !taffo.target !453

246:                                              ; preds = %244
  %fi518 = call float @injectFault5(i64 518, float %234, i32 54, i32 1, i32 3, i32 1, i8* getelementptr inbounds ([5 x i8], [5 x i8]* @fcmp_namestr, i32 0, i32 0)), !llfi_injectfault !18
  %fi519 = call float @injectFault5(i64 518, float %231, i32 54, i32 2, i32 3, i32 2, i8* getelementptr inbounds ([5 x i8], [5 x i8]* @fcmp_namestr, i32 0, i32 0)), !llfi_injectfault !18
  %247 = fcmp oge float %fi518, %fi519, !taffo.info !349, !taffo.initweight !90, !llfi_index !599, !taffo.target !453
  %fi517 = call i1 @injectFault3(i64 518, i1 %247, i32 54, i32 0, i32 3, i32 0, i8* getelementptr inbounds ([5 x i8], [5 x i8]* @fcmp_namestr, i32 0, i32 0)), !llfi_injectfault !44
  %fi520 = call i1 @injectFault3(i64 519, i1 %fi517, i32 2, i32 0, i32 1, i32 1, i8* getelementptr inbounds ([3 x i8], [3 x i8]* @br_namestr, i32 0, i32 0)), !llfi_injectfault !18
  br i1 %fi520, label %248, label %268, !taffo.info !349, !taffo.initweight !93, !llfi_index !600, !taffo.target !453

248:                                              ; preds = %246, %240
  %fi522 = call float @injectFault5(i64 520, float %fi152, i32 18, i32 1, i32 3, i32 1, i8* getelementptr inbounds ([5 x i8], [5 x i8]* @fmul_namestr, i32 0, i32 0)), !llfi_injectfault !18
  %fi523 = call float @injectFault5(i64 520, float %fi466, i32 18, i32 2, i32 3, i32 2, i8* getelementptr inbounds ([5 x i8], [5 x i8]* @fmul_namestr, i32 0, i32 0)), !llfi_injectfault !18
  %249 = fmul float %fi522, %fi523, !taffo.info !349, !taffo.initweight !90, !llfi_index !601
  %fi521 = call float @injectFault5(i64 520, float %249, i32 18, i32 0, i32 3, i32 0, i8* getelementptr inbounds ([5 x i8], [5 x i8]* @fmul_namestr, i32 0, i32 0)), !llfi_injectfault !44
  %fi525 = call float @injectFault5(i64 521, float %fi521, i32 12, i32 1, i32 2, i32 1, i8* getelementptr inbounds ([5 x i8], [5 x i8]* @fneg_namestr, i32 0, i32 0)), !llfi_injectfault !18
  %250 = fneg float %fi525, !taffo.info !349, !taffo.initweight !93, !llfi_index !602
  %fi524 = call float @injectFault5(i64 521, float %250, i32 12, i32 0, i32 2, i32 0, i8* getelementptr inbounds ([5 x i8], [5 x i8]* @fneg_namestr, i32 0, i32 0)), !llfi_injectfault !44
  %251 = call float @llvm.fmuladd.f32(float %fi141, float %fi477, float %fi524), !taffo.info !349, !taffo.initweight !90, !llfi_index !603, !taffo.constinfo !62
  br label %252, !llfi_index !604

252:                                              ; preds = %248
  br label %253, !llfi_index !605

253:                                              ; preds = %252
  %fi531 = call float @injectFault5(i64 525, float %231, i32 54, i32 1, i32 3, i32 1, i8* getelementptr inbounds ([5 x i8], [5 x i8]* @fcmp_namestr, i32 0, i32 0)), !llfi_injectfault !18
  %fi532 = call float @injectFault5(i64 525, float 0.000000e+00, i32 54, i32 2, i32 3, i32 2, i8* getelementptr inbounds ([5 x i8], [5 x i8]* @fcmp_namestr, i32 0, i32 0)), !llfi_injectfault !18
  %254 = fcmp ogt float %fi531, %fi532, !taffo.info !349, !taffo.initweight !90, !llfi_index !606, !taffo.target !453
  %fi530 = call i1 @injectFault3(i64 525, i1 %254, i32 54, i32 0, i32 3, i32 0, i8* getelementptr inbounds ([5 x i8], [5 x i8]* @fcmp_namestr, i32 0, i32 0)), !llfi_injectfault !44
  %fi533 = call i1 @injectFault3(i64 526, i1 %fi530, i32 2, i32 0, i32 1, i32 1, i8* getelementptr inbounds ([3 x i8], [3 x i8]* @br_namestr, i32 0, i32 0)), !llfi_injectfault !18
  br i1 %fi533, label %255, label %261, !taffo.info !349, !taffo.initweight !93, !llfi_index !607, !taffo.target !453

255:                                              ; preds = %253
  %fi535 = call float @injectFault5(i64 527, float %251, i32 54, i32 1, i32 3, i32 1, i8* getelementptr inbounds ([5 x i8], [5 x i8]* @fcmp_namestr, i32 0, i32 0)), !llfi_injectfault !18
  %fi536 = call float @injectFault5(i64 527, float 0.000000e+00, i32 54, i32 2, i32 3, i32 2, i8* getelementptr inbounds ([5 x i8], [5 x i8]* @fcmp_namestr, i32 0, i32 0)), !llfi_injectfault !18
  %256 = fcmp oge float %fi535, %fi536, !taffo.info !349, !taffo.initweight !90, !llfi_index !608, !taffo.target !453
  %fi534 = call i1 @injectFault3(i64 527, i1 %256, i32 54, i32 0, i32 3, i32 0, i8* getelementptr inbounds ([5 x i8], [5 x i8]* @fcmp_namestr, i32 0, i32 0)), !llfi_injectfault !44
  %fi311 = call i1 @injectFault3(i64 528, i1 %fi534, i32 2, i32 0, i32 1, i32 1, i8* getelementptr inbounds ([3 x i8], [3 x i8]* @br_namestr, i32 0, i32 0)), !llfi_injectfault !18
  br i1 %fi311, label %257, label %260, !taffo.info !349, !taffo.initweight !93, !llfi_index !609, !taffo.target !453

257:                                              ; preds = %255
  %fi527 = call float @injectFault5(i64 529, float %251, i32 54, i32 1, i32 3, i32 1, i8* getelementptr inbounds ([5 x i8], [5 x i8]* @fcmp_namestr, i32 0, i32 0)), !llfi_injectfault !18
  %fi528 = call float @injectFault5(i64 529, float %231, i32 54, i32 2, i32 3, i32 2, i8* getelementptr inbounds ([5 x i8], [5 x i8]* @fcmp_namestr, i32 0, i32 0)), !llfi_injectfault !18
  %258 = fcmp ole float %fi527, %fi528, !taffo.info !349, !taffo.initweight !90, !llfi_index !610, !taffo.target !453
  %fi526 = call i1 @injectFault3(i64 529, i1 %258, i32 54, i32 0, i32 3, i32 0, i8* getelementptr inbounds ([5 x i8], [5 x i8]* @fcmp_namestr, i32 0, i32 0)), !llfi_injectfault !44
  %fi529 = call i1 @injectFault3(i64 530, i1 %fi526, i32 2, i32 0, i32 1, i32 1, i8* getelementptr inbounds ([3 x i8], [3 x i8]* @br_namestr, i32 0, i32 0)), !llfi_injectfault !18
  br i1 %fi529, label %259, label %260, !taffo.info !349, !taffo.initweight !93, !llfi_index !611, !taffo.target !453

259:                                              ; preds = %257
  br label %933, !llfi_index !612

260:                                              ; preds = %257, %255
  br label %267, !llfi_index !613

261:                                              ; preds = %253
  %fi313 = call float @injectFault5(i64 533, float %251, i32 54, i32 1, i32 3, i32 1, i8* getelementptr inbounds ([5 x i8], [5 x i8]* @fcmp_namestr, i32 0, i32 0)), !llfi_injectfault !18
  %fi314 = call float @injectFault5(i64 533, float 0.000000e+00, i32 54, i32 2, i32 3, i32 2, i8* getelementptr inbounds ([5 x i8], [5 x i8]* @fcmp_namestr, i32 0, i32 0)), !llfi_injectfault !18
  %262 = fcmp ole float %fi313, %fi314, !taffo.info !349, !taffo.initweight !90, !llfi_index !614, !taffo.target !453
  %fi312 = call i1 @injectFault3(i64 533, i1 %262, i32 54, i32 0, i32 3, i32 0, i8* getelementptr inbounds ([5 x i8], [5 x i8]* @fcmp_namestr, i32 0, i32 0)), !llfi_injectfault !44
  %fi561 = call i1 @injectFault3(i64 534, i1 %fi312, i32 2, i32 0, i32 1, i32 1, i8* getelementptr inbounds ([3 x i8], [3 x i8]* @br_namestr, i32 0, i32 0)), !llfi_injectfault !18
  br i1 %fi561, label %263, label %266, !taffo.info !349, !taffo.initweight !93, !llfi_index !615, !taffo.target !453

263:                                              ; preds = %261
  %fi563 = call float @injectFault5(i64 535, float %251, i32 54, i32 1, i32 3, i32 1, i8* getelementptr inbounds ([5 x i8], [5 x i8]* @fcmp_namestr, i32 0, i32 0)), !llfi_injectfault !18
  %fi564 = call float @injectFault5(i64 535, float %231, i32 54, i32 2, i32 3, i32 2, i8* getelementptr inbounds ([5 x i8], [5 x i8]* @fcmp_namestr, i32 0, i32 0)), !llfi_injectfault !18
  %264 = fcmp oge float %fi563, %fi564, !taffo.info !349, !taffo.initweight !90, !llfi_index !616, !taffo.target !453
  %fi562 = call i1 @injectFault3(i64 535, i1 %264, i32 54, i32 0, i32 3, i32 0, i8* getelementptr inbounds ([5 x i8], [5 x i8]* @fcmp_namestr, i32 0, i32 0)), !llfi_injectfault !44
  %fi565 = call i1 @injectFault3(i64 536, i1 %fi562, i32 2, i32 0, i32 1, i32 1, i8* getelementptr inbounds ([3 x i8], [3 x i8]* @br_namestr, i32 0, i32 0)), !llfi_injectfault !18
  br i1 %fi565, label %265, label %266, !taffo.info !349, !taffo.initweight !93, !llfi_index !617, !taffo.target !453

265:                                              ; preds = %263
  br label %933, !llfi_index !618

266:                                              ; preds = %263, %261
  br label %267, !llfi_index !619

267:                                              ; preds = %266, %260
  br label %268, !llfi_index !620

268:                                              ; preds = %267, %246, %244, %242
  %fi567 = call i16 @injectFault7(i64 540, i16 %fi132, i32 40, i32 1, i32 2, i32 1, i8* getelementptr inbounds ([5 x i8], [5 x i8]* @sext_namestr, i32 0, i32 0)), !llfi_injectfault !18
  %269 = sext i16 %fi567 to i64, !llfi_index !621
  %fi566 = call i64 @injectFault0(i64 540, i64 %269, i32 40, i32 0, i32 2, i32 0, i8* getelementptr inbounds ([5 x i8], [5 x i8]* @sext_namestr, i32 0, i32 0)), !llfi_injectfault !44
  %fi568 = call i64 @injectFault0(i64 541, i64 %fi566, i32 34, i32 0, i32 1, i32 2, i8* getelementptr inbounds ([14 x i8], [14 x i8]* @getelementptr_namestr, i32 0, i32 0)), !llfi_injectfault !18
  %270 = getelementptr float, float* %3, i64 %fi568, !llfi_index !622
  %271 = load float, float* %270, align 4, !llfi_index !623
  %fi569 = call float @injectFault5(i64 542, float %271, i32 32, i32 0, i32 1, i32 0, i8* getelementptr inbounds ([5 x i8], [5 x i8]* @load_namestr, i32 0, i32 0)), !llfi_injectfault !44
  %fi571 = call i16 @injectFault7(i64 543, i16 %fi132, i32 40, i32 1, i32 2, i32 1, i8* getelementptr inbounds ([5 x i8], [5 x i8]* @sext_namestr, i32 0, i32 0)), !llfi_injectfault !18
  %272 = sext i16 %fi571 to i64, !llfi_index !624
  %fi570 = call i64 @injectFault0(i64 543, i64 %272, i32 40, i32 0, i32 2, i32 0, i8* getelementptr inbounds ([5 x i8], [5 x i8]* @sext_namestr, i32 0, i32 0)), !llfi_injectfault !44
  %fi572 = call i64 @injectFault0(i64 544, i64 %fi570, i32 34, i32 0, i32 1, i32 2, i8* getelementptr inbounds ([14 x i8], [14 x i8]* @getelementptr_namestr, i32 0, i32 0)), !llfi_injectfault !18
  %273 = getelementptr float, float* %2, i64 %fi572, !llfi_index !625
  %274 = load float, float* %273, align 4, !llfi_index !626
  %fi573 = call float @injectFault5(i64 545, float %274, i32 32, i32 0, i32 1, i32 0, i8* getelementptr inbounds ([5 x i8], [5 x i8]* @load_namestr, i32 0, i32 0)), !llfi_injectfault !44
  %fi575 = call float @injectFault5(i64 546, float %fi569, i32 16, i32 1, i32 3, i32 1, i8* getelementptr inbounds ([5 x i8], [5 x i8]* @fsub_namestr, i32 0, i32 0)), !llfi_injectfault !18
  %fi576 = call float @injectFault5(i64 546, float %fi573, i32 16, i32 2, i32 3, i32 2, i8* getelementptr inbounds ([5 x i8], [5 x i8]* @fsub_namestr, i32 0, i32 0)), !llfi_injectfault !18
  %275 = fsub float %fi575, %fi576, !taffo.info !349, !taffo.initweight !90, !llfi_index !627
  %fi574 = call float @injectFault5(i64 546, float %275, i32 16, i32 0, i32 3, i32 0, i8* getelementptr inbounds ([5 x i8], [5 x i8]* @fsub_namestr, i32 0, i32 0)), !llfi_injectfault !44
  %fi578 = call i16 @injectFault7(i64 547, i16 %fi131, i32 40, i32 1, i32 2, i32 1, i8* getelementptr inbounds ([5 x i8], [5 x i8]* @sext_namestr, i32 0, i32 0)), !llfi_injectfault !18
  %276 = sext i16 %fi578 to i64, !llfi_index !628
  %fi577 = call i64 @injectFault0(i64 547, i64 %276, i32 40, i32 0, i32 2, i32 0, i8* getelementptr inbounds ([5 x i8], [5 x i8]* @sext_namestr, i32 0, i32 0)), !llfi_injectfault !44
  %fi579 = call i64 @injectFault0(i64 548, i64 %fi577, i32 34, i32 0, i32 1, i32 2, i8* getelementptr inbounds ([14 x i8], [14 x i8]* @getelementptr_namestr, i32 0, i32 0)), !llfi_injectfault !18
  %277 = getelementptr float, float* %3, i64 %fi579, !llfi_index !629
  %278 = load float, float* %277, align 4, !llfi_index !630
  %fi580 = call float @injectFault5(i64 549, float %278, i32 32, i32 0, i32 1, i32 0, i8* getelementptr inbounds ([5 x i8], [5 x i8]* @load_namestr, i32 0, i32 0)), !llfi_injectfault !44
  %fi582 = call i16 @injectFault7(i64 550, i16 %fi131, i32 40, i32 1, i32 2, i32 1, i8* getelementptr inbounds ([5 x i8], [5 x i8]* @sext_namestr, i32 0, i32 0)), !llfi_injectfault !18
  %279 = sext i16 %fi582 to i64, !llfi_index !631
  %fi581 = call i64 @injectFault0(i64 550, i64 %279, i32 40, i32 0, i32 2, i32 0, i8* getelementptr inbounds ([5 x i8], [5 x i8]* @sext_namestr, i32 0, i32 0)), !llfi_injectfault !44
  %fi583 = call i64 @injectFault0(i64 551, i64 %fi581, i32 34, i32 0, i32 1, i32 2, i8* getelementptr inbounds ([14 x i8], [14 x i8]* @getelementptr_namestr, i32 0, i32 0)), !llfi_injectfault !18
  %280 = getelementptr float, float* %2, i64 %fi583, !llfi_index !632
  %281 = load float, float* %280, align 4, !llfi_index !633
  %fi584 = call float @injectFault5(i64 552, float %281, i32 32, i32 0, i32 1, i32 0, i8* getelementptr inbounds ([5 x i8], [5 x i8]* @load_namestr, i32 0, i32 0)), !llfi_injectfault !44
  %fi586 = call float @injectFault5(i64 553, float %fi580, i32 16, i32 1, i32 3, i32 1, i8* getelementptr inbounds ([5 x i8], [5 x i8]* @fsub_namestr, i32 0, i32 0)), !llfi_injectfault !18
  %fi587 = call float @injectFault5(i64 553, float %fi584, i32 16, i32 2, i32 3, i32 2, i8* getelementptr inbounds ([5 x i8], [5 x i8]* @fsub_namestr, i32 0, i32 0)), !llfi_injectfault !18
  %282 = fsub float %fi586, %fi587, !taffo.info !349, !taffo.initweight !90, !llfi_index !634
  %fi585 = call float @injectFault5(i64 553, float %282, i32 16, i32 0, i32 3, i32 0, i8* getelementptr inbounds ([5 x i8], [5 x i8]* @fsub_namestr, i32 0, i32 0)), !llfi_injectfault !44
  %fi589 = call i16 @injectFault7(i64 554, i16 %fi132, i32 40, i32 1, i32 2, i32 1, i8* getelementptr inbounds ([5 x i8], [5 x i8]* @sext_namestr, i32 0, i32 0)), !llfi_injectfault !18
  %283 = sext i16 %fi589 to i64, !llfi_index !635
  %fi588 = call i64 @injectFault0(i64 554, i64 %283, i32 40, i32 0, i32 2, i32 0, i8* getelementptr inbounds ([5 x i8], [5 x i8]* @sext_namestr, i32 0, i32 0)), !llfi_injectfault !44
  %fi590 = call i64 @injectFault0(i64 555, i64 %fi588, i32 34, i32 0, i32 1, i32 2, i8* getelementptr inbounds ([14 x i8], [14 x i8]* @getelementptr_namestr, i32 0, i32 0)), !llfi_injectfault !18
  %284 = getelementptr float, float* %4, i64 %fi590, !llfi_index !636
  %285 = load float, float* %284, align 4, !llfi_index !637
  %fi591 = call float @injectFault5(i64 556, float %285, i32 32, i32 0, i32 1, i32 0, i8* getelementptr inbounds ([5 x i8], [5 x i8]* @load_namestr, i32 0, i32 0)), !llfi_injectfault !44
  %fi593 = call i16 @injectFault7(i64 557, i16 %fi132, i32 40, i32 1, i32 2, i32 1, i8* getelementptr inbounds ([5 x i8], [5 x i8]* @sext_namestr, i32 0, i32 0)), !llfi_injectfault !18
  %286 = sext i16 %fi593 to i64, !llfi_index !638
  %fi592 = call i64 @injectFault0(i64 557, i64 %286, i32 40, i32 0, i32 2, i32 0, i8* getelementptr inbounds ([5 x i8], [5 x i8]* @sext_namestr, i32 0, i32 0)), !llfi_injectfault !44
  %fi594 = call i64 @injectFault0(i64 558, i64 %fi592, i32 34, i32 0, i32 1, i32 2, i8* getelementptr inbounds ([14 x i8], [14 x i8]* @getelementptr_namestr, i32 0, i32 0)), !llfi_injectfault !18
  %287 = getelementptr float, float* %5, i64 %fi594, !llfi_index !639
  %288 = load float, float* %287, align 4, !llfi_index !640
  %fi595 = call float @injectFault5(i64 559, float %288, i32 32, i32 0, i32 1, i32 0, i8* getelementptr inbounds ([5 x i8], [5 x i8]* @load_namestr, i32 0, i32 0)), !llfi_injectfault !44
  %fi597 = call float @injectFault5(i64 560, float %fi591, i32 16, i32 1, i32 3, i32 1, i8* getelementptr inbounds ([5 x i8], [5 x i8]* @fsub_namestr, i32 0, i32 0)), !llfi_injectfault !18
  %fi598 = call float @injectFault5(i64 560, float %fi595, i32 16, i32 2, i32 3, i32 2, i8* getelementptr inbounds ([5 x i8], [5 x i8]* @fsub_namestr, i32 0, i32 0)), !llfi_injectfault !18
  %289 = fsub float %fi597, %fi598, !taffo.info !349, !taffo.initweight !90, !llfi_index !641
  %fi596 = call float @injectFault5(i64 560, float %289, i32 16, i32 0, i32 3, i32 0, i8* getelementptr inbounds ([5 x i8], [5 x i8]* @fsub_namestr, i32 0, i32 0)), !llfi_injectfault !44
  %fi600 = call i16 @injectFault7(i64 561, i16 %fi131, i32 40, i32 1, i32 2, i32 1, i8* getelementptr inbounds ([5 x i8], [5 x i8]* @sext_namestr, i32 0, i32 0)), !llfi_injectfault !18
  %290 = sext i16 %fi600 to i64, !llfi_index !642
  %fi599 = call i64 @injectFault0(i64 561, i64 %290, i32 40, i32 0, i32 2, i32 0, i8* getelementptr inbounds ([5 x i8], [5 x i8]* @sext_namestr, i32 0, i32 0)), !llfi_injectfault !44
  %fi601 = call i64 @injectFault0(i64 562, i64 %fi599, i32 34, i32 0, i32 1, i32 2, i8* getelementptr inbounds ([14 x i8], [14 x i8]* @getelementptr_namestr, i32 0, i32 0)), !llfi_injectfault !18
  %291 = getelementptr float, float* %4, i64 %fi601, !llfi_index !643
  %292 = load float, float* %291, align 4, !llfi_index !644
  %fi602 = call float @injectFault5(i64 563, float %292, i32 32, i32 0, i32 1, i32 0, i8* getelementptr inbounds ([5 x i8], [5 x i8]* @load_namestr, i32 0, i32 0)), !llfi_injectfault !44
  %fi604 = call i16 @injectFault7(i64 564, i16 %fi131, i32 40, i32 1, i32 2, i32 1, i8* getelementptr inbounds ([5 x i8], [5 x i8]* @sext_namestr, i32 0, i32 0)), !llfi_injectfault !18
  %293 = sext i16 %fi604 to i64, !llfi_index !645
  %fi603 = call i64 @injectFault0(i64 564, i64 %293, i32 40, i32 0, i32 2, i32 0, i8* getelementptr inbounds ([5 x i8], [5 x i8]* @sext_namestr, i32 0, i32 0)), !llfi_injectfault !44
  %fi605 = call i64 @injectFault0(i64 565, i64 %fi603, i32 34, i32 0, i32 1, i32 2, i8* getelementptr inbounds ([14 x i8], [14 x i8]* @getelementptr_namestr, i32 0, i32 0)), !llfi_injectfault !18
  %294 = getelementptr float, float* %5, i64 %fi605, !llfi_index !646
  %295 = load float, float* %294, align 4, !llfi_index !647
  %fi606 = call float @injectFault5(i64 566, float %295, i32 32, i32 0, i32 1, i32 0, i8* getelementptr inbounds ([5 x i8], [5 x i8]* @load_namestr, i32 0, i32 0)), !llfi_injectfault !44
  %fi608 = call float @injectFault5(i64 567, float %fi602, i32 16, i32 1, i32 3, i32 1, i8* getelementptr inbounds ([5 x i8], [5 x i8]* @fsub_namestr, i32 0, i32 0)), !llfi_injectfault !18
  %fi609 = call float @injectFault5(i64 567, float %fi606, i32 16, i32 2, i32 3, i32 2, i8* getelementptr inbounds ([5 x i8], [5 x i8]* @fsub_namestr, i32 0, i32 0)), !llfi_injectfault !18
  %296 = fsub float %fi608, %fi609, !taffo.info !349, !taffo.initweight !90, !llfi_index !648
  %fi607 = call float @injectFault5(i64 567, float %296, i32 16, i32 0, i32 3, i32 0, i8* getelementptr inbounds ([5 x i8], [5 x i8]* @fsub_namestr, i32 0, i32 0)), !llfi_injectfault !44
  %fi294 = call i16 @injectFault7(i64 568, i16 %fi132, i32 40, i32 1, i32 2, i32 1, i8* getelementptr inbounds ([5 x i8], [5 x i8]* @sext_namestr, i32 0, i32 0)), !llfi_injectfault !18
  %297 = sext i16 %fi294 to i64, !llfi_index !649
  %fi293 = call i64 @injectFault0(i64 568, i64 %297, i32 40, i32 0, i32 2, i32 0, i8* getelementptr inbounds ([5 x i8], [5 x i8]* @sext_namestr, i32 0, i32 0)), !llfi_injectfault !44
  %fi295 = call i64 @injectFault0(i64 569, i64 %fi293, i32 34, i32 0, i32 1, i32 2, i8* getelementptr inbounds ([14 x i8], [14 x i8]* @getelementptr_namestr, i32 0, i32 0)), !llfi_injectfault !18
  %298 = getelementptr float, float* %2, i64 %fi295, !llfi_index !650
  %299 = load float, float* %298, align 4, !llfi_index !651
  %fi296 = call float @injectFault5(i64 570, float %299, i32 32, i32 0, i32 1, i32 0, i8* getelementptr inbounds ([5 x i8], [5 x i8]* @load_namestr, i32 0, i32 0)), !llfi_injectfault !44
  %fi298 = call i16 @injectFault7(i64 571, i16 %fi132, i32 40, i32 1, i32 2, i32 1, i8* getelementptr inbounds ([5 x i8], [5 x i8]* @sext_namestr, i32 0, i32 0)), !llfi_injectfault !18
  %300 = sext i16 %fi298 to i64, !llfi_index !652
  %fi297 = call i64 @injectFault0(i64 571, i64 %300, i32 40, i32 0, i32 2, i32 0, i8* getelementptr inbounds ([5 x i8], [5 x i8]* @sext_namestr, i32 0, i32 0)), !llfi_injectfault !44
  %fi299 = call i64 @injectFault0(i64 572, i64 %fi297, i32 34, i32 0, i32 1, i32 2, i8* getelementptr inbounds ([14 x i8], [14 x i8]* @getelementptr_namestr, i32 0, i32 0)), !llfi_injectfault !18
  %301 = getelementptr float, float* %4, i64 %fi299, !llfi_index !653
  %302 = load float, float* %301, align 4, !llfi_index !654
  %fi300 = call float @injectFault5(i64 573, float %302, i32 32, i32 0, i32 1, i32 0, i8* getelementptr inbounds ([5 x i8], [5 x i8]* @load_namestr, i32 0, i32 0)), !llfi_injectfault !44
  %fi302 = call float @injectFault5(i64 574, float %fi296, i32 16, i32 1, i32 3, i32 1, i8* getelementptr inbounds ([5 x i8], [5 x i8]* @fsub_namestr, i32 0, i32 0)), !llfi_injectfault !18
  %fi303 = call float @injectFault5(i64 574, float %fi300, i32 16, i32 2, i32 3, i32 2, i8* getelementptr inbounds ([5 x i8], [5 x i8]* @fsub_namestr, i32 0, i32 0)), !llfi_injectfault !18
  %303 = fsub float %fi302, %fi303, !taffo.info !349, !taffo.initweight !90, !llfi_index !655
  %fi301 = call float @injectFault5(i64 574, float %303, i32 16, i32 0, i32 3, i32 0, i8* getelementptr inbounds ([5 x i8], [5 x i8]* @fsub_namestr, i32 0, i32 0)), !llfi_injectfault !44
  %fi625 = call i16 @injectFault7(i64 575, i16 %fi131, i32 40, i32 1, i32 2, i32 1, i8* getelementptr inbounds ([5 x i8], [5 x i8]* @sext_namestr, i32 0, i32 0)), !llfi_injectfault !18
  %304 = sext i16 %fi625 to i64, !llfi_index !656
  %fi624 = call i64 @injectFault0(i64 575, i64 %304, i32 40, i32 0, i32 2, i32 0, i8* getelementptr inbounds ([5 x i8], [5 x i8]* @sext_namestr, i32 0, i32 0)), !llfi_injectfault !44
  %fi626 = call i64 @injectFault0(i64 576, i64 %fi624, i32 34, i32 0, i32 1, i32 2, i8* getelementptr inbounds ([14 x i8], [14 x i8]* @getelementptr_namestr, i32 0, i32 0)), !llfi_injectfault !18
  %305 = getelementptr float, float* %2, i64 %fi626, !llfi_index !657
  %306 = load float, float* %305, align 4, !llfi_index !658
  %fi627 = call float @injectFault5(i64 577, float %306, i32 32, i32 0, i32 1, i32 0, i8* getelementptr inbounds ([5 x i8], [5 x i8]* @load_namestr, i32 0, i32 0)), !llfi_injectfault !44
  %fi629 = call i16 @injectFault7(i64 578, i16 %fi131, i32 40, i32 1, i32 2, i32 1, i8* getelementptr inbounds ([5 x i8], [5 x i8]* @sext_namestr, i32 0, i32 0)), !llfi_injectfault !18
  %307 = sext i16 %fi629 to i64, !llfi_index !659
  %fi628 = call i64 @injectFault0(i64 578, i64 %307, i32 40, i32 0, i32 2, i32 0, i8* getelementptr inbounds ([5 x i8], [5 x i8]* @sext_namestr, i32 0, i32 0)), !llfi_injectfault !44
  %fi630 = call i64 @injectFault0(i64 579, i64 %fi628, i32 34, i32 0, i32 1, i32 2, i8* getelementptr inbounds ([14 x i8], [14 x i8]* @getelementptr_namestr, i32 0, i32 0)), !llfi_injectfault !18
  %308 = getelementptr float, float* %4, i64 %fi630, !llfi_index !660
  %309 = load float, float* %308, align 4, !llfi_index !661
  %fi631 = call float @injectFault5(i64 580, float %309, i32 32, i32 0, i32 1, i32 0, i8* getelementptr inbounds ([5 x i8], [5 x i8]* @load_namestr, i32 0, i32 0)), !llfi_injectfault !44
  %fi633 = call float @injectFault5(i64 581, float %fi627, i32 16, i32 1, i32 3, i32 1, i8* getelementptr inbounds ([5 x i8], [5 x i8]* @fsub_namestr, i32 0, i32 0)), !llfi_injectfault !18
  %fi634 = call float @injectFault5(i64 581, float %fi631, i32 16, i32 2, i32 3, i32 2, i8* getelementptr inbounds ([5 x i8], [5 x i8]* @fsub_namestr, i32 0, i32 0)), !llfi_injectfault !18
  %310 = fsub float %fi633, %fi634, !taffo.info !349, !taffo.initweight !90, !llfi_index !662
  %fi632 = call float @injectFault5(i64 581, float %310, i32 16, i32 0, i32 3, i32 0, i8* getelementptr inbounds ([5 x i8], [5 x i8]* @fsub_namestr, i32 0, i32 0)), !llfi_injectfault !44
  %fi636 = call float @injectFault5(i64 582, float %fi574, i32 18, i32 1, i32 3, i32 1, i8* getelementptr inbounds ([5 x i8], [5 x i8]* @fmul_namestr, i32 0, i32 0)), !llfi_injectfault !18
  %fi637 = call float @injectFault5(i64 582, float %fi607, i32 18, i32 2, i32 3, i32 2, i8* getelementptr inbounds ([5 x i8], [5 x i8]* @fmul_namestr, i32 0, i32 0)), !llfi_injectfault !18
  %311 = fmul float %fi636, %fi637, !taffo.info !349, !taffo.initweight !90, !llfi_index !663
  %fi635 = call float @injectFault5(i64 582, float %311, i32 18, i32 0, i32 3, i32 0, i8* getelementptr inbounds ([5 x i8], [5 x i8]* @fmul_namestr, i32 0, i32 0)), !llfi_injectfault !44
  %fi639 = call float @injectFault5(i64 583, float %fi635, i32 12, i32 1, i32 2, i32 1, i8* getelementptr inbounds ([5 x i8], [5 x i8]* @fneg_namestr, i32 0, i32 0)), !llfi_injectfault !18
  %312 = fneg float %fi639, !taffo.info !349, !taffo.initweight !93, !llfi_index !664
  %fi638 = call float @injectFault5(i64 583, float %312, i32 12, i32 0, i32 2, i32 0, i8* getelementptr inbounds ([5 x i8], [5 x i8]* @fneg_namestr, i32 0, i32 0)), !llfi_injectfault !44
  %313 = call float @llvm.fmuladd.f32(float %fi585, float %fi596, float %fi638), !taffo.info !349, !taffo.initweight !90, !llfi_index !665, !taffo.constinfo !62
  %fi641 = call float @injectFault5(i64 585, float %fi596, i32 18, i32 1, i32 3, i32 1, i8* getelementptr inbounds ([5 x i8], [5 x i8]* @fmul_namestr, i32 0, i32 0)), !llfi_injectfault !18
  %fi642 = call float @injectFault5(i64 585, float %fi632, i32 18, i32 2, i32 3, i32 2, i8* getelementptr inbounds ([5 x i8], [5 x i8]* @fmul_namestr, i32 0, i32 0)), !llfi_injectfault !18
  %314 = fmul float %fi641, %fi642, !taffo.info !349, !taffo.initweight !90, !llfi_index !666
  %fi640 = call float @injectFault5(i64 585, float %314, i32 18, i32 0, i32 3, i32 0, i8* getelementptr inbounds ([5 x i8], [5 x i8]* @fmul_namestr, i32 0, i32 0)), !llfi_injectfault !44
  %fi644 = call float @injectFault5(i64 586, float %fi640, i32 12, i32 1, i32 2, i32 1, i8* getelementptr inbounds ([5 x i8], [5 x i8]* @fneg_namestr, i32 0, i32 0)), !llfi_injectfault !18
  %315 = fneg float %fi644, !taffo.info !349, !taffo.initweight !93, !llfi_index !667
  %fi643 = call float @injectFault5(i64 586, float %315, i32 12, i32 0, i32 2, i32 0, i8* getelementptr inbounds ([5 x i8], [5 x i8]* @fneg_namestr, i32 0, i32 0)), !llfi_injectfault !44
  %316 = call float @llvm.fmuladd.f32(float %fi607, float %fi301, float %fi643), !taffo.info !349, !taffo.initweight !90, !llfi_index !668, !taffo.constinfo !62
  br label %317, !llfi_index !669

317:                                              ; preds = %268
  br label %318, !llfi_index !670

318:                                              ; preds = %317
  %fi646 = call float @injectFault5(i64 590, float %313, i32 54, i32 1, i32 3, i32 1, i8* getelementptr inbounds ([5 x i8], [5 x i8]* @fcmp_namestr, i32 0, i32 0)), !llfi_injectfault !18
  %fi647 = call float @injectFault5(i64 590, float 0.000000e+00, i32 54, i32 2, i32 3, i32 2, i8* getelementptr inbounds ([5 x i8], [5 x i8]* @fcmp_namestr, i32 0, i32 0)), !llfi_injectfault !18
  %319 = fcmp ogt float %fi646, %fi647, !taffo.info !349, !taffo.initweight !90, !llfi_index !671, !taffo.target !453
  %fi645 = call i1 @injectFault3(i64 590, i1 %319, i32 54, i32 0, i32 3, i32 0, i8* getelementptr inbounds ([5 x i8], [5 x i8]* @fcmp_namestr, i32 0, i32 0)), !llfi_injectfault !44
  %fi648 = call i1 @injectFault3(i64 591, i1 %fi645, i32 2, i32 0, i32 1, i32 1, i8* getelementptr inbounds ([3 x i8], [3 x i8]* @br_namestr, i32 0, i32 0)), !llfi_injectfault !18
  br i1 %fi648, label %320, label %324, !taffo.info !349, !taffo.initweight !93, !llfi_index !672, !taffo.target !453

320:                                              ; preds = %318
  %fi650 = call float @injectFault5(i64 592, float %316, i32 54, i32 1, i32 3, i32 1, i8* getelementptr inbounds ([5 x i8], [5 x i8]* @fcmp_namestr, i32 0, i32 0)), !llfi_injectfault !18
  %fi651 = call float @injectFault5(i64 592, float 0.000000e+00, i32 54, i32 2, i32 3, i32 2, i8* getelementptr inbounds ([5 x i8], [5 x i8]* @fcmp_namestr, i32 0, i32 0)), !llfi_injectfault !18
  %321 = fcmp oge float %fi650, %fi651, !taffo.info !349, !taffo.initweight !90, !llfi_index !673, !taffo.target !453
  %fi649 = call i1 @injectFault3(i64 592, i1 %321, i32 54, i32 0, i32 3, i32 0, i8* getelementptr inbounds ([5 x i8], [5 x i8]* @fcmp_namestr, i32 0, i32 0)), !llfi_injectfault !44
  %fi652 = call i1 @injectFault3(i64 593, i1 %fi649, i32 2, i32 0, i32 1, i32 1, i8* getelementptr inbounds ([3 x i8], [3 x i8]* @br_namestr, i32 0, i32 0)), !llfi_injectfault !18
  br i1 %fi652, label %322, label %324, !taffo.info !349, !taffo.initweight !93, !llfi_index !674, !taffo.target !453

322:                                              ; preds = %320
  %fi654 = call float @injectFault5(i64 594, float %316, i32 54, i32 1, i32 3, i32 1, i8* getelementptr inbounds ([5 x i8], [5 x i8]* @fcmp_namestr, i32 0, i32 0)), !llfi_injectfault !18
  %fi655 = call float @injectFault5(i64 594, float %313, i32 54, i32 2, i32 3, i32 2, i8* getelementptr inbounds ([5 x i8], [5 x i8]* @fcmp_namestr, i32 0, i32 0)), !llfi_injectfault !18
  %323 = fcmp ole float %fi654, %fi655, !taffo.info !349, !taffo.initweight !90, !llfi_index !675, !taffo.target !453
  %fi653 = call i1 @injectFault3(i64 594, i1 %323, i32 54, i32 0, i32 3, i32 0, i8* getelementptr inbounds ([5 x i8], [5 x i8]* @fcmp_namestr, i32 0, i32 0)), !llfi_injectfault !44
  %fi656 = call i1 @injectFault3(i64 595, i1 %fi653, i32 2, i32 0, i32 1, i32 1, i8* getelementptr inbounds ([3 x i8], [3 x i8]* @br_namestr, i32 0, i32 0)), !llfi_injectfault !18
  br i1 %fi656, label %330, label %324, !taffo.info !349, !taffo.initweight !93, !llfi_index !676, !taffo.target !453

324:                                              ; preds = %322, %320, %318
  %fi658 = call float @injectFault5(i64 596, float %313, i32 54, i32 1, i32 3, i32 1, i8* getelementptr inbounds ([5 x i8], [5 x i8]* @fcmp_namestr, i32 0, i32 0)), !llfi_injectfault !18
  %fi659 = call float @injectFault5(i64 596, float 0.000000e+00, i32 54, i32 2, i32 3, i32 2, i8* getelementptr inbounds ([5 x i8], [5 x i8]* @fcmp_namestr, i32 0, i32 0)), !llfi_injectfault !18
  %325 = fcmp olt float %fi658, %fi659, !taffo.info !349, !taffo.initweight !90, !llfi_index !677, !taffo.target !453
  %fi657 = call i1 @injectFault3(i64 596, i1 %325, i32 54, i32 0, i32 3, i32 0, i8* getelementptr inbounds ([5 x i8], [5 x i8]* @fcmp_namestr, i32 0, i32 0)), !llfi_injectfault !44
  %fi660 = call i1 @injectFault3(i64 597, i1 %fi657, i32 2, i32 0, i32 1, i32 1, i8* getelementptr inbounds ([3 x i8], [3 x i8]* @br_namestr, i32 0, i32 0)), !llfi_injectfault !18
  br i1 %fi660, label %326, label %350, !taffo.info !349, !taffo.initweight !93, !llfi_index !678, !taffo.target !453

326:                                              ; preds = %324
  %fi662 = call float @injectFault5(i64 598, float %316, i32 54, i32 1, i32 3, i32 1, i8* getelementptr inbounds ([5 x i8], [5 x i8]* @fcmp_namestr, i32 0, i32 0)), !llfi_injectfault !18
  %fi663 = call float @injectFault5(i64 598, float 0.000000e+00, i32 54, i32 2, i32 3, i32 2, i8* getelementptr inbounds ([5 x i8], [5 x i8]* @fcmp_namestr, i32 0, i32 0)), !llfi_injectfault !18
  %327 = fcmp ole float %fi662, %fi663, !taffo.info !349, !taffo.initweight !90, !llfi_index !679, !taffo.target !453
  %fi661 = call i1 @injectFault3(i64 598, i1 %327, i32 54, i32 0, i32 3, i32 0, i8* getelementptr inbounds ([5 x i8], [5 x i8]* @fcmp_namestr, i32 0, i32 0)), !llfi_injectfault !44
  %fi664 = call i1 @injectFault3(i64 599, i1 %fi661, i32 2, i32 0, i32 1, i32 1, i8* getelementptr inbounds ([3 x i8], [3 x i8]* @br_namestr, i32 0, i32 0)), !llfi_injectfault !18
  br i1 %fi664, label %328, label %350, !taffo.info !349, !taffo.initweight !93, !llfi_index !680, !taffo.target !453

328:                                              ; preds = %326
  %fi666 = call float @injectFault5(i64 600, float %316, i32 54, i32 1, i32 3, i32 1, i8* getelementptr inbounds ([5 x i8], [5 x i8]* @fcmp_namestr, i32 0, i32 0)), !llfi_injectfault !18
  %fi667 = call float @injectFault5(i64 600, float %313, i32 54, i32 2, i32 3, i32 2, i8* getelementptr inbounds ([5 x i8], [5 x i8]* @fcmp_namestr, i32 0, i32 0)), !llfi_injectfault !18
  %329 = fcmp oge float %fi666, %fi667, !taffo.info !349, !taffo.initweight !90, !llfi_index !681, !taffo.target !453
  %fi665 = call i1 @injectFault3(i64 600, i1 %329, i32 54, i32 0, i32 3, i32 0, i8* getelementptr inbounds ([5 x i8], [5 x i8]* @fcmp_namestr, i32 0, i32 0)), !llfi_injectfault !44
  %fi668 = call i1 @injectFault3(i64 601, i1 %fi665, i32 2, i32 0, i32 1, i32 1, i8* getelementptr inbounds ([3 x i8], [3 x i8]* @br_namestr, i32 0, i32 0)), !llfi_injectfault !18
  br i1 %fi668, label %330, label %350, !taffo.info !349, !taffo.initweight !93, !llfi_index !682, !taffo.target !453

330:                                              ; preds = %328, %322
  %fi670 = call float @injectFault5(i64 602, float %fi585, i32 18, i32 1, i32 3, i32 1, i8* getelementptr inbounds ([5 x i8], [5 x i8]* @fmul_namestr, i32 0, i32 0)), !llfi_injectfault !18
  %fi671 = call float @injectFault5(i64 602, float %fi301, i32 18, i32 2, i32 3, i32 2, i8* getelementptr inbounds ([5 x i8], [5 x i8]* @fmul_namestr, i32 0, i32 0)), !llfi_injectfault !18
  %331 = fmul float %fi670, %fi671, !taffo.info !349, !taffo.initweight !90, !llfi_index !683
  %fi669 = call float @injectFault5(i64 602, float %331, i32 18, i32 0, i32 3, i32 0, i8* getelementptr inbounds ([5 x i8], [5 x i8]* @fmul_namestr, i32 0, i32 0)), !llfi_injectfault !44
  %fi673 = call float @injectFault5(i64 603, float %fi669, i32 12, i32 1, i32 2, i32 1, i8* getelementptr inbounds ([5 x i8], [5 x i8]* @fneg_namestr, i32 0, i32 0)), !llfi_injectfault !18
  %332 = fneg float %fi673, !taffo.info !349, !taffo.initweight !93, !llfi_index !684
  %fi672 = call float @injectFault5(i64 603, float %332, i32 12, i32 0, i32 2, i32 0, i8* getelementptr inbounds ([5 x i8], [5 x i8]* @fneg_namestr, i32 0, i32 0)), !llfi_injectfault !44
  %333 = call float @llvm.fmuladd.f32(float %fi574, float %fi632, float %fi672), !taffo.info !349, !taffo.initweight !90, !llfi_index !685, !taffo.constinfo !62
  br label %334, !llfi_index !686

334:                                              ; preds = %330
  br label %335, !llfi_index !687

335:                                              ; preds = %334
  %fi675 = call float @injectFault5(i64 607, float %313, i32 54, i32 1, i32 3, i32 1, i8* getelementptr inbounds ([5 x i8], [5 x i8]* @fcmp_namestr, i32 0, i32 0)), !llfi_injectfault !18
  %fi676 = call float @injectFault5(i64 607, float 0.000000e+00, i32 54, i32 2, i32 3, i32 2, i8* getelementptr inbounds ([5 x i8], [5 x i8]* @fcmp_namestr, i32 0, i32 0)), !llfi_injectfault !18
  %336 = fcmp ogt float %fi675, %fi676, !taffo.info !349, !taffo.initweight !90, !llfi_index !688, !taffo.target !453
  %fi674 = call i1 @injectFault3(i64 607, i1 %336, i32 54, i32 0, i32 3, i32 0, i8* getelementptr inbounds ([5 x i8], [5 x i8]* @fcmp_namestr, i32 0, i32 0)), !llfi_injectfault !44
  %fi677 = call i1 @injectFault3(i64 608, i1 %fi674, i32 2, i32 0, i32 1, i32 1, i8* getelementptr inbounds ([3 x i8], [3 x i8]* @br_namestr, i32 0, i32 0)), !llfi_injectfault !18
  br i1 %fi677, label %337, label %343, !taffo.info !349, !taffo.initweight !93, !llfi_index !689, !taffo.target !453

337:                                              ; preds = %335
  %fi679 = call float @injectFault5(i64 609, float %333, i32 54, i32 1, i32 3, i32 1, i8* getelementptr inbounds ([5 x i8], [5 x i8]* @fcmp_namestr, i32 0, i32 0)), !llfi_injectfault !18
  %fi680 = call float @injectFault5(i64 609, float 0.000000e+00, i32 54, i32 2, i32 3, i32 2, i8* getelementptr inbounds ([5 x i8], [5 x i8]* @fcmp_namestr, i32 0, i32 0)), !llfi_injectfault !18
  %338 = fcmp oge float %fi679, %fi680, !taffo.info !349, !taffo.initweight !90, !llfi_index !690, !taffo.target !453
  %fi678 = call i1 @injectFault3(i64 609, i1 %338, i32 54, i32 0, i32 3, i32 0, i8* getelementptr inbounds ([5 x i8], [5 x i8]* @fcmp_namestr, i32 0, i32 0)), !llfi_injectfault !44
  %fi681 = call i1 @injectFault3(i64 610, i1 %fi678, i32 2, i32 0, i32 1, i32 1, i8* getelementptr inbounds ([3 x i8], [3 x i8]* @br_namestr, i32 0, i32 0)), !llfi_injectfault !18
  br i1 %fi681, label %339, label %342, !taffo.info !349, !taffo.initweight !93, !llfi_index !691, !taffo.target !453

339:                                              ; preds = %337
  %fi683 = call float @injectFault5(i64 611, float %333, i32 54, i32 1, i32 3, i32 1, i8* getelementptr inbounds ([5 x i8], [5 x i8]* @fcmp_namestr, i32 0, i32 0)), !llfi_injectfault !18
  %fi684 = call float @injectFault5(i64 611, float %313, i32 54, i32 2, i32 3, i32 2, i8* getelementptr inbounds ([5 x i8], [5 x i8]* @fcmp_namestr, i32 0, i32 0)), !llfi_injectfault !18
  %340 = fcmp ole float %fi683, %fi684, !taffo.info !349, !taffo.initweight !90, !llfi_index !692, !taffo.target !453
  %fi682 = call i1 @injectFault3(i64 611, i1 %340, i32 54, i32 0, i32 3, i32 0, i8* getelementptr inbounds ([5 x i8], [5 x i8]* @fcmp_namestr, i32 0, i32 0)), !llfi_injectfault !44
  %fi685 = call i1 @injectFault3(i64 612, i1 %fi682, i32 2, i32 0, i32 1, i32 1, i8* getelementptr inbounds ([3 x i8], [3 x i8]* @br_namestr, i32 0, i32 0)), !llfi_injectfault !18
  br i1 %fi685, label %341, label %342, !taffo.info !349, !taffo.initweight !93, !llfi_index !693, !taffo.target !453

341:                                              ; preds = %339
  br label %933, !llfi_index !694

342:                                              ; preds = %339, %337
  br label %349, !llfi_index !695

343:                                              ; preds = %335
  %fi687 = call float @injectFault5(i64 615, float %333, i32 54, i32 1, i32 3, i32 1, i8* getelementptr inbounds ([5 x i8], [5 x i8]* @fcmp_namestr, i32 0, i32 0)), !llfi_injectfault !18
  %fi688 = call float @injectFault5(i64 615, float 0.000000e+00, i32 54, i32 2, i32 3, i32 2, i8* getelementptr inbounds ([5 x i8], [5 x i8]* @fcmp_namestr, i32 0, i32 0)), !llfi_injectfault !18
  %344 = fcmp ole float %fi687, %fi688, !taffo.info !349, !taffo.initweight !90, !llfi_index !696, !taffo.target !453
  %fi686 = call i1 @injectFault3(i64 615, i1 %344, i32 54, i32 0, i32 3, i32 0, i8* getelementptr inbounds ([5 x i8], [5 x i8]* @fcmp_namestr, i32 0, i32 0)), !llfi_injectfault !44
  %fi689 = call i1 @injectFault3(i64 616, i1 %fi686, i32 2, i32 0, i32 1, i32 1, i8* getelementptr inbounds ([3 x i8], [3 x i8]* @br_namestr, i32 0, i32 0)), !llfi_injectfault !18
  br i1 %fi689, label %345, label %348, !taffo.info !349, !taffo.initweight !93, !llfi_index !697, !taffo.target !453

345:                                              ; preds = %343
  %fi691 = call float @injectFault5(i64 617, float %333, i32 54, i32 1, i32 3, i32 1, i8* getelementptr inbounds ([5 x i8], [5 x i8]* @fcmp_namestr, i32 0, i32 0)), !llfi_injectfault !18
  %fi692 = call float @injectFault5(i64 617, float %313, i32 54, i32 2, i32 3, i32 2, i8* getelementptr inbounds ([5 x i8], [5 x i8]* @fcmp_namestr, i32 0, i32 0)), !llfi_injectfault !18
  %346 = fcmp oge float %fi691, %fi692, !taffo.info !349, !taffo.initweight !90, !llfi_index !698, !taffo.target !453
  %fi690 = call i1 @injectFault3(i64 617, i1 %346, i32 54, i32 0, i32 3, i32 0, i8* getelementptr inbounds ([5 x i8], [5 x i8]* @fcmp_namestr, i32 0, i32 0)), !llfi_injectfault !44
  %fi693 = call i1 @injectFault3(i64 618, i1 %fi690, i32 2, i32 0, i32 1, i32 1, i8* getelementptr inbounds ([3 x i8], [3 x i8]* @br_namestr, i32 0, i32 0)), !llfi_injectfault !18
  br i1 %fi693, label %347, label %348, !taffo.info !349, !taffo.initweight !93, !llfi_index !699, !taffo.target !453

347:                                              ; preds = %345
  br label %933, !llfi_index !700

348:                                              ; preds = %345, %343
  br label %349, !llfi_index !701

349:                                              ; preds = %348, %342
  br label %350, !llfi_index !702

350:                                              ; preds = %349, %328, %326, %324
  %fi695 = call i16 @injectFault7(i64 622, i16 %fi132, i32 40, i32 1, i32 2, i32 1, i8* getelementptr inbounds ([5 x i8], [5 x i8]* @sext_namestr, i32 0, i32 0)), !llfi_injectfault !18
  %351 = sext i16 %fi695 to i64, !llfi_index !703
  %fi694 = call i64 @injectFault0(i64 622, i64 %351, i32 40, i32 0, i32 2, i32 0, i8* getelementptr inbounds ([5 x i8], [5 x i8]* @sext_namestr, i32 0, i32 0)), !llfi_injectfault !44
  %fi696 = call i64 @injectFault0(i64 623, i64 %fi694, i32 34, i32 0, i32 1, i32 2, i8* getelementptr inbounds ([14 x i8], [14 x i8]* @getelementptr_namestr, i32 0, i32 0)), !llfi_injectfault !18
  %352 = getelementptr float, float* %5, i64 %fi696, !llfi_index !704
  %353 = load float, float* %352, align 4, !llfi_index !705
  %fi697 = call float @injectFault5(i64 624, float %353, i32 32, i32 0, i32 1, i32 0, i8* getelementptr inbounds ([5 x i8], [5 x i8]* @load_namestr, i32 0, i32 0)), !llfi_injectfault !44
  %fi699 = call i16 @injectFault7(i64 625, i16 %fi132, i32 40, i32 1, i32 2, i32 1, i8* getelementptr inbounds ([5 x i8], [5 x i8]* @sext_namestr, i32 0, i32 0)), !llfi_injectfault !18
  %354 = sext i16 %fi699 to i64, !llfi_index !706
  %fi698 = call i64 @injectFault0(i64 625, i64 %354, i32 40, i32 0, i32 2, i32 0, i8* getelementptr inbounds ([5 x i8], [5 x i8]* @sext_namestr, i32 0, i32 0)), !llfi_injectfault !44
  %fi700 = call i64 @injectFault0(i64 626, i64 %fi698, i32 34, i32 0, i32 1, i32 2, i8* getelementptr inbounds ([14 x i8], [14 x i8]* @getelementptr_namestr, i32 0, i32 0)), !llfi_injectfault !18
  %355 = getelementptr float, float* %6, i64 %fi700, !llfi_index !707
  %356 = load float, float* %355, align 4, !llfi_index !708
  %fi701 = call float @injectFault5(i64 627, float %356, i32 32, i32 0, i32 1, i32 0, i8* getelementptr inbounds ([5 x i8], [5 x i8]* @load_namestr, i32 0, i32 0)), !llfi_injectfault !44
  %fi703 = call float @injectFault5(i64 628, float %fi697, i32 16, i32 1, i32 3, i32 1, i8* getelementptr inbounds ([5 x i8], [5 x i8]* @fsub_namestr, i32 0, i32 0)), !llfi_injectfault !18
  %fi704 = call float @injectFault5(i64 628, float %fi701, i32 16, i32 2, i32 3, i32 2, i8* getelementptr inbounds ([5 x i8], [5 x i8]* @fsub_namestr, i32 0, i32 0)), !llfi_injectfault !18
  %357 = fsub float %fi703, %fi704, !taffo.info !349, !taffo.initweight !90, !llfi_index !709
  %fi702 = call float @injectFault5(i64 628, float %357, i32 16, i32 0, i32 3, i32 0, i8* getelementptr inbounds ([5 x i8], [5 x i8]* @fsub_namestr, i32 0, i32 0)), !llfi_injectfault !44
  %fi706 = call i16 @injectFault7(i64 629, i16 %fi131, i32 40, i32 1, i32 2, i32 1, i8* getelementptr inbounds ([5 x i8], [5 x i8]* @sext_namestr, i32 0, i32 0)), !llfi_injectfault !18
  %358 = sext i16 %fi706 to i64, !llfi_index !710
  %fi705 = call i64 @injectFault0(i64 629, i64 %358, i32 40, i32 0, i32 2, i32 0, i8* getelementptr inbounds ([5 x i8], [5 x i8]* @sext_namestr, i32 0, i32 0)), !llfi_injectfault !44
  %fi707 = call i64 @injectFault0(i64 630, i64 %fi705, i32 34, i32 0, i32 1, i32 2, i8* getelementptr inbounds ([14 x i8], [14 x i8]* @getelementptr_namestr, i32 0, i32 0)), !llfi_injectfault !18
  %359 = getelementptr float, float* %5, i64 %fi707, !llfi_index !711
  %360 = load float, float* %359, align 4, !llfi_index !712
  %fi708 = call float @injectFault5(i64 631, float %360, i32 32, i32 0, i32 1, i32 0, i8* getelementptr inbounds ([5 x i8], [5 x i8]* @load_namestr, i32 0, i32 0)), !llfi_injectfault !44
  %fi710 = call i16 @injectFault7(i64 632, i16 %fi131, i32 40, i32 1, i32 2, i32 1, i8* getelementptr inbounds ([5 x i8], [5 x i8]* @sext_namestr, i32 0, i32 0)), !llfi_injectfault !18
  %361 = sext i16 %fi710 to i64, !llfi_index !713
  %fi709 = call i64 @injectFault0(i64 632, i64 %361, i32 40, i32 0, i32 2, i32 0, i8* getelementptr inbounds ([5 x i8], [5 x i8]* @sext_namestr, i32 0, i32 0)), !llfi_injectfault !44
  %fi711 = call i64 @injectFault0(i64 633, i64 %fi709, i32 34, i32 0, i32 1, i32 2, i8* getelementptr inbounds ([14 x i8], [14 x i8]* @getelementptr_namestr, i32 0, i32 0)), !llfi_injectfault !18
  %362 = getelementptr float, float* %6, i64 %fi711, !llfi_index !714
  %363 = load float, float* %362, align 4, !llfi_index !715
  %fi712 = call float @injectFault5(i64 634, float %363, i32 32, i32 0, i32 1, i32 0, i8* getelementptr inbounds ([5 x i8], [5 x i8]* @load_namestr, i32 0, i32 0)), !llfi_injectfault !44
  %fi714 = call float @injectFault5(i64 635, float %fi708, i32 16, i32 1, i32 3, i32 1, i8* getelementptr inbounds ([5 x i8], [5 x i8]* @fsub_namestr, i32 0, i32 0)), !llfi_injectfault !18
  %fi715 = call float @injectFault5(i64 635, float %fi712, i32 16, i32 2, i32 3, i32 2, i8* getelementptr inbounds ([5 x i8], [5 x i8]* @fsub_namestr, i32 0, i32 0)), !llfi_injectfault !18
  %364 = fsub float %fi714, %fi715, !taffo.info !349, !taffo.initweight !90, !llfi_index !716
  %fi713 = call float @injectFault5(i64 635, float %364, i32 16, i32 0, i32 3, i32 0, i8* getelementptr inbounds ([5 x i8], [5 x i8]* @fsub_namestr, i32 0, i32 0)), !llfi_injectfault !44
  %fi411 = call i16 @injectFault7(i64 636, i16 %fi132, i32 40, i32 1, i32 2, i32 1, i8* getelementptr inbounds ([5 x i8], [5 x i8]* @sext_namestr, i32 0, i32 0)), !llfi_injectfault !18
  %365 = sext i16 %fi411 to i64, !llfi_index !717
  %fi410 = call i64 @injectFault0(i64 636, i64 %365, i32 40, i32 0, i32 2, i32 0, i8* getelementptr inbounds ([5 x i8], [5 x i8]* @sext_namestr, i32 0, i32 0)), !llfi_injectfault !44
  %fi412 = call i64 @injectFault0(i64 637, i64 %fi410, i32 34, i32 0, i32 1, i32 2, i8* getelementptr inbounds ([14 x i8], [14 x i8]* @getelementptr_namestr, i32 0, i32 0)), !llfi_injectfault !18
  %366 = getelementptr float, float* %2, i64 %fi412, !llfi_index !718
  %367 = load float, float* %366, align 4, !llfi_index !719
  %fi413 = call float @injectFault5(i64 638, float %367, i32 32, i32 0, i32 1, i32 0, i8* getelementptr inbounds ([5 x i8], [5 x i8]* @load_namestr, i32 0, i32 0)), !llfi_injectfault !44
  %fi415 = call i16 @injectFault7(i64 639, i16 %fi132, i32 40, i32 1, i32 2, i32 1, i8* getelementptr inbounds ([5 x i8], [5 x i8]* @sext_namestr, i32 0, i32 0)), !llfi_injectfault !18
  %368 = sext i16 %fi415 to i64, !llfi_index !720
  %fi414 = call i64 @injectFault0(i64 639, i64 %368, i32 40, i32 0, i32 2, i32 0, i8* getelementptr inbounds ([5 x i8], [5 x i8]* @sext_namestr, i32 0, i32 0)), !llfi_injectfault !44
  %fi416 = call i64 @injectFault0(i64 640, i64 %fi414, i32 34, i32 0, i32 1, i32 2, i8* getelementptr inbounds ([14 x i8], [14 x i8]* @getelementptr_namestr, i32 0, i32 0)), !llfi_injectfault !18
  %369 = getelementptr float, float* %5, i64 %fi416, !llfi_index !721
  %370 = load float, float* %369, align 4, !llfi_index !722
  %fi417 = call float @injectFault5(i64 641, float %370, i32 32, i32 0, i32 1, i32 0, i8* getelementptr inbounds ([5 x i8], [5 x i8]* @load_namestr, i32 0, i32 0)), !llfi_injectfault !44
  %fi419 = call float @injectFault5(i64 642, float %fi413, i32 16, i32 1, i32 3, i32 1, i8* getelementptr inbounds ([5 x i8], [5 x i8]* @fsub_namestr, i32 0, i32 0)), !llfi_injectfault !18
  %fi420 = call float @injectFault5(i64 642, float %fi417, i32 16, i32 2, i32 3, i32 2, i8* getelementptr inbounds ([5 x i8], [5 x i8]* @fsub_namestr, i32 0, i32 0)), !llfi_injectfault !18
  %371 = fsub float %fi419, %fi420, !taffo.info !349, !taffo.initweight !90, !llfi_index !723
  %fi418 = call float @injectFault5(i64 642, float %371, i32 16, i32 0, i32 3, i32 0, i8* getelementptr inbounds ([5 x i8], [5 x i8]* @fsub_namestr, i32 0, i32 0)), !llfi_injectfault !44
  %fi422 = call i16 @injectFault7(i64 643, i16 %fi131, i32 40, i32 1, i32 2, i32 1, i8* getelementptr inbounds ([5 x i8], [5 x i8]* @sext_namestr, i32 0, i32 0)), !llfi_injectfault !18
  %372 = sext i16 %fi422 to i64, !llfi_index !724
  %fi421 = call i64 @injectFault0(i64 643, i64 %372, i32 40, i32 0, i32 2, i32 0, i8* getelementptr inbounds ([5 x i8], [5 x i8]* @sext_namestr, i32 0, i32 0)), !llfi_injectfault !44
  %fi423 = call i64 @injectFault0(i64 644, i64 %fi421, i32 34, i32 0, i32 1, i32 2, i8* getelementptr inbounds ([14 x i8], [14 x i8]* @getelementptr_namestr, i32 0, i32 0)), !llfi_injectfault !18
  %373 = getelementptr float, float* %2, i64 %fi423, !llfi_index !725
  %374 = load float, float* %373, align 4, !llfi_index !726
  %fi424 = call float @injectFault5(i64 645, float %374, i32 32, i32 0, i32 1, i32 0, i8* getelementptr inbounds ([5 x i8], [5 x i8]* @load_namestr, i32 0, i32 0)), !llfi_injectfault !44
  %fi426 = call i16 @injectFault7(i64 646, i16 %fi131, i32 40, i32 1, i32 2, i32 1, i8* getelementptr inbounds ([5 x i8], [5 x i8]* @sext_namestr, i32 0, i32 0)), !llfi_injectfault !18
  %375 = sext i16 %fi426 to i64, !llfi_index !727
  %fi425 = call i64 @injectFault0(i64 646, i64 %375, i32 40, i32 0, i32 2, i32 0, i8* getelementptr inbounds ([5 x i8], [5 x i8]* @sext_namestr, i32 0, i32 0)), !llfi_injectfault !44
  %fi427 = call i64 @injectFault0(i64 647, i64 %fi425, i32 34, i32 0, i32 1, i32 2, i8* getelementptr inbounds ([14 x i8], [14 x i8]* @getelementptr_namestr, i32 0, i32 0)), !llfi_injectfault !18
  %376 = getelementptr float, float* %5, i64 %fi427, !llfi_index !728
  %377 = load float, float* %376, align 4, !llfi_index !729
  %fi428 = call float @injectFault5(i64 648, float %377, i32 32, i32 0, i32 1, i32 0, i8* getelementptr inbounds ([5 x i8], [5 x i8]* @load_namestr, i32 0, i32 0)), !llfi_injectfault !44
  %fi430 = call float @injectFault5(i64 649, float %fi424, i32 16, i32 1, i32 3, i32 1, i8* getelementptr inbounds ([5 x i8], [5 x i8]* @fsub_namestr, i32 0, i32 0)), !llfi_injectfault !18
  %fi431 = call float @injectFault5(i64 649, float %fi428, i32 16, i32 2, i32 3, i32 2, i8* getelementptr inbounds ([5 x i8], [5 x i8]* @fsub_namestr, i32 0, i32 0)), !llfi_injectfault !18
  %378 = fsub float %fi430, %fi431, !taffo.info !349, !taffo.initweight !90, !llfi_index !730
  %fi429 = call float @injectFault5(i64 649, float %378, i32 16, i32 0, i32 3, i32 0, i8* getelementptr inbounds ([5 x i8], [5 x i8]* @fsub_namestr, i32 0, i32 0)), !llfi_injectfault !44
  %fi731 = call float @injectFault5(i64 650, float %fi574, i32 18, i32 1, i32 3, i32 1, i8* getelementptr inbounds ([5 x i8], [5 x i8]* @fmul_namestr, i32 0, i32 0)), !llfi_injectfault !18
  %fi732 = call float @injectFault5(i64 650, float %fi713, i32 18, i32 2, i32 3, i32 2, i8* getelementptr inbounds ([5 x i8], [5 x i8]* @fmul_namestr, i32 0, i32 0)), !llfi_injectfault !18
  %379 = fmul float %fi731, %fi732, !taffo.info !349, !taffo.initweight !90, !llfi_index !731
  %fi730 = call float @injectFault5(i64 650, float %379, i32 18, i32 0, i32 3, i32 0, i8* getelementptr inbounds ([5 x i8], [5 x i8]* @fmul_namestr, i32 0, i32 0)), !llfi_injectfault !44
  %fi734 = call float @injectFault5(i64 651, float %fi730, i32 12, i32 1, i32 2, i32 1, i8* getelementptr inbounds ([5 x i8], [5 x i8]* @fneg_namestr, i32 0, i32 0)), !llfi_injectfault !18
  %380 = fneg float %fi734, !taffo.info !349, !taffo.initweight !93, !llfi_index !732
  %fi733 = call float @injectFault5(i64 651, float %380, i32 12, i32 0, i32 2, i32 0, i8* getelementptr inbounds ([5 x i8], [5 x i8]* @fneg_namestr, i32 0, i32 0)), !llfi_injectfault !44
  %381 = call float @llvm.fmuladd.f32(float %fi585, float %fi702, float %fi733), !taffo.info !349, !taffo.initweight !90, !llfi_index !733, !taffo.constinfo !62
  %fi736 = call float @injectFault5(i64 653, float %fi702, i32 18, i32 1, i32 3, i32 1, i8* getelementptr inbounds ([5 x i8], [5 x i8]* @fmul_namestr, i32 0, i32 0)), !llfi_injectfault !18
  %fi737 = call float @injectFault5(i64 653, float %fi429, i32 18, i32 2, i32 3, i32 2, i8* getelementptr inbounds ([5 x i8], [5 x i8]* @fmul_namestr, i32 0, i32 0)), !llfi_injectfault !18
  %382 = fmul float %fi736, %fi737, !taffo.info !349, !taffo.initweight !90, !llfi_index !734
  %fi735 = call float @injectFault5(i64 653, float %382, i32 18, i32 0, i32 3, i32 0, i8* getelementptr inbounds ([5 x i8], [5 x i8]* @fmul_namestr, i32 0, i32 0)), !llfi_injectfault !44
  %fi739 = call float @injectFault5(i64 654, float %fi735, i32 12, i32 1, i32 2, i32 1, i8* getelementptr inbounds ([5 x i8], [5 x i8]* @fneg_namestr, i32 0, i32 0)), !llfi_injectfault !18
  %383 = fneg float %fi739, !taffo.info !349, !taffo.initweight !93, !llfi_index !735
  %fi738 = call float @injectFault5(i64 654, float %383, i32 12, i32 0, i32 2, i32 0, i8* getelementptr inbounds ([5 x i8], [5 x i8]* @fneg_namestr, i32 0, i32 0)), !llfi_injectfault !44
  %384 = call float @llvm.fmuladd.f32(float %fi713, float %fi418, float %fi738), !taffo.info !349, !taffo.initweight !90, !llfi_index !736, !taffo.constinfo !62
  br label %385, !llfi_index !737

385:                                              ; preds = %350
  br label %386, !llfi_index !738

386:                                              ; preds = %385
  %fi741 = call float @injectFault5(i64 658, float %381, i32 54, i32 1, i32 3, i32 1, i8* getelementptr inbounds ([5 x i8], [5 x i8]* @fcmp_namestr, i32 0, i32 0)), !llfi_injectfault !18
  %fi742 = call float @injectFault5(i64 658, float 0.000000e+00, i32 54, i32 2, i32 3, i32 2, i8* getelementptr inbounds ([5 x i8], [5 x i8]* @fcmp_namestr, i32 0, i32 0)), !llfi_injectfault !18
  %387 = fcmp ogt float %fi741, %fi742, !taffo.info !349, !taffo.initweight !90, !llfi_index !739, !taffo.target !453
  %fi740 = call i1 @injectFault3(i64 658, i1 %387, i32 54, i32 0, i32 3, i32 0, i8* getelementptr inbounds ([5 x i8], [5 x i8]* @fcmp_namestr, i32 0, i32 0)), !llfi_injectfault !44
  %fi743 = call i1 @injectFault3(i64 659, i1 %fi740, i32 2, i32 0, i32 1, i32 1, i8* getelementptr inbounds ([3 x i8], [3 x i8]* @br_namestr, i32 0, i32 0)), !llfi_injectfault !18
  br i1 %fi743, label %388, label %392, !taffo.info !349, !taffo.initweight !93, !llfi_index !740, !taffo.target !453

388:                                              ; preds = %386
  %fi745 = call float @injectFault5(i64 660, float %384, i32 54, i32 1, i32 3, i32 1, i8* getelementptr inbounds ([5 x i8], [5 x i8]* @fcmp_namestr, i32 0, i32 0)), !llfi_injectfault !18
  %fi746 = call float @injectFault5(i64 660, float 0.000000e+00, i32 54, i32 2, i32 3, i32 2, i8* getelementptr inbounds ([5 x i8], [5 x i8]* @fcmp_namestr, i32 0, i32 0)), !llfi_injectfault !18
  %389 = fcmp oge float %fi745, %fi746, !taffo.info !349, !taffo.initweight !90, !llfi_index !741, !taffo.target !453
  %fi744 = call i1 @injectFault3(i64 660, i1 %389, i32 54, i32 0, i32 3, i32 0, i8* getelementptr inbounds ([5 x i8], [5 x i8]* @fcmp_namestr, i32 0, i32 0)), !llfi_injectfault !44
  %fi747 = call i1 @injectFault3(i64 661, i1 %fi744, i32 2, i32 0, i32 1, i32 1, i8* getelementptr inbounds ([3 x i8], [3 x i8]* @br_namestr, i32 0, i32 0)), !llfi_injectfault !18
  br i1 %fi747, label %390, label %392, !taffo.info !349, !taffo.initweight !93, !llfi_index !742, !taffo.target !453

390:                                              ; preds = %388
  %fi749 = call float @injectFault5(i64 662, float %384, i32 54, i32 1, i32 3, i32 1, i8* getelementptr inbounds ([5 x i8], [5 x i8]* @fcmp_namestr, i32 0, i32 0)), !llfi_injectfault !18
  %fi750 = call float @injectFault5(i64 662, float %381, i32 54, i32 2, i32 3, i32 2, i8* getelementptr inbounds ([5 x i8], [5 x i8]* @fcmp_namestr, i32 0, i32 0)), !llfi_injectfault !18
  %391 = fcmp ole float %fi749, %fi750, !taffo.info !349, !taffo.initweight !90, !llfi_index !743, !taffo.target !453
  %fi748 = call i1 @injectFault3(i64 662, i1 %391, i32 54, i32 0, i32 3, i32 0, i8* getelementptr inbounds ([5 x i8], [5 x i8]* @fcmp_namestr, i32 0, i32 0)), !llfi_injectfault !44
  %fi751 = call i1 @injectFault3(i64 663, i1 %fi748, i32 2, i32 0, i32 1, i32 1, i8* getelementptr inbounds ([3 x i8], [3 x i8]* @br_namestr, i32 0, i32 0)), !llfi_injectfault !18
  br i1 %fi751, label %398, label %392, !taffo.info !349, !taffo.initweight !93, !llfi_index !744, !taffo.target !453

392:                                              ; preds = %390, %388, %386
  %fi753 = call float @injectFault5(i64 664, float %381, i32 54, i32 1, i32 3, i32 1, i8* getelementptr inbounds ([5 x i8], [5 x i8]* @fcmp_namestr, i32 0, i32 0)), !llfi_injectfault !18
  %fi754 = call float @injectFault5(i64 664, float 0.000000e+00, i32 54, i32 2, i32 3, i32 2, i8* getelementptr inbounds ([5 x i8], [5 x i8]* @fcmp_namestr, i32 0, i32 0)), !llfi_injectfault !18
  %393 = fcmp olt float %fi753, %fi754, !taffo.info !349, !taffo.initweight !90, !llfi_index !745, !taffo.target !453
  %fi752 = call i1 @injectFault3(i64 664, i1 %393, i32 54, i32 0, i32 3, i32 0, i8* getelementptr inbounds ([5 x i8], [5 x i8]* @fcmp_namestr, i32 0, i32 0)), !llfi_injectfault !44
  %fi497 = call i1 @injectFault3(i64 665, i1 %fi752, i32 2, i32 0, i32 1, i32 1, i8* getelementptr inbounds ([3 x i8], [3 x i8]* @br_namestr, i32 0, i32 0)), !llfi_injectfault !18
  br i1 %fi497, label %394, label %418, !taffo.info !349, !taffo.initweight !93, !llfi_index !746, !taffo.target !453

394:                                              ; preds = %392
  %fi499 = call float @injectFault5(i64 666, float %384, i32 54, i32 1, i32 3, i32 1, i8* getelementptr inbounds ([5 x i8], [5 x i8]* @fcmp_namestr, i32 0, i32 0)), !llfi_injectfault !18
  %fi500 = call float @injectFault5(i64 666, float 0.000000e+00, i32 54, i32 2, i32 3, i32 2, i8* getelementptr inbounds ([5 x i8], [5 x i8]* @fcmp_namestr, i32 0, i32 0)), !llfi_injectfault !18
  %395 = fcmp ole float %fi499, %fi500, !taffo.info !349, !taffo.initweight !90, !llfi_index !747, !taffo.target !453
  %fi498 = call i1 @injectFault3(i64 666, i1 %395, i32 54, i32 0, i32 3, i32 0, i8* getelementptr inbounds ([5 x i8], [5 x i8]* @fcmp_namestr, i32 0, i32 0)), !llfi_injectfault !44
  %fi501 = call i1 @injectFault3(i64 667, i1 %fi498, i32 2, i32 0, i32 1, i32 1, i8* getelementptr inbounds ([3 x i8], [3 x i8]* @br_namestr, i32 0, i32 0)), !llfi_injectfault !18
  br i1 %fi501, label %396, label %418, !taffo.info !349, !taffo.initweight !93, !llfi_index !748, !taffo.target !453

396:                                              ; preds = %394
  %fi503 = call float @injectFault5(i64 668, float %384, i32 54, i32 1, i32 3, i32 1, i8* getelementptr inbounds ([5 x i8], [5 x i8]* @fcmp_namestr, i32 0, i32 0)), !llfi_injectfault !18
  %fi504 = call float @injectFault5(i64 668, float %381, i32 54, i32 2, i32 3, i32 2, i8* getelementptr inbounds ([5 x i8], [5 x i8]* @fcmp_namestr, i32 0, i32 0)), !llfi_injectfault !18
  %397 = fcmp oge float %fi503, %fi504, !taffo.info !349, !taffo.initweight !90, !llfi_index !749, !taffo.target !453
  %fi502 = call i1 @injectFault3(i64 668, i1 %397, i32 54, i32 0, i32 3, i32 0, i8* getelementptr inbounds ([5 x i8], [5 x i8]* @fcmp_namestr, i32 0, i32 0)), !llfi_injectfault !44
  %fi716 = call i1 @injectFault3(i64 669, i1 %fi502, i32 2, i32 0, i32 1, i32 1, i8* getelementptr inbounds ([3 x i8], [3 x i8]* @br_namestr, i32 0, i32 0)), !llfi_injectfault !18
  br i1 %fi716, label %398, label %418, !taffo.info !349, !taffo.initweight !93, !llfi_index !750, !taffo.target !453

398:                                              ; preds = %396, %390
  %fi718 = call float @injectFault5(i64 670, float %fi585, i32 18, i32 1, i32 3, i32 1, i8* getelementptr inbounds ([5 x i8], [5 x i8]* @fmul_namestr, i32 0, i32 0)), !llfi_injectfault !18
  %fi719 = call float @injectFault5(i64 670, float %fi418, i32 18, i32 2, i32 3, i32 2, i8* getelementptr inbounds ([5 x i8], [5 x i8]* @fmul_namestr, i32 0, i32 0)), !llfi_injectfault !18
  %399 = fmul float %fi718, %fi719, !taffo.info !349, !taffo.initweight !90, !llfi_index !751
  %fi717 = call float @injectFault5(i64 670, float %399, i32 18, i32 0, i32 3, i32 0, i8* getelementptr inbounds ([5 x i8], [5 x i8]* @fmul_namestr, i32 0, i32 0)), !llfi_injectfault !44
  %fi721 = call float @injectFault5(i64 671, float %fi717, i32 12, i32 1, i32 2, i32 1, i8* getelementptr inbounds ([5 x i8], [5 x i8]* @fneg_namestr, i32 0, i32 0)), !llfi_injectfault !18
  %400 = fneg float %fi721, !taffo.info !349, !taffo.initweight !93, !llfi_index !752
  %fi720 = call float @injectFault5(i64 671, float %400, i32 12, i32 0, i32 2, i32 0, i8* getelementptr inbounds ([5 x i8], [5 x i8]* @fneg_namestr, i32 0, i32 0)), !llfi_injectfault !44
  %401 = call float @llvm.fmuladd.f32(float %fi574, float %fi429, float %fi720), !taffo.info !349, !taffo.initweight !90, !llfi_index !753, !taffo.constinfo !62
  br label %402, !llfi_index !754

402:                                              ; preds = %398
  br label %403, !llfi_index !755

403:                                              ; preds = %402
  %fi723 = call float @injectFault5(i64 675, float %381, i32 54, i32 1, i32 3, i32 1, i8* getelementptr inbounds ([5 x i8], [5 x i8]* @fcmp_namestr, i32 0, i32 0)), !llfi_injectfault !18
  %fi724 = call float @injectFault5(i64 675, float 0.000000e+00, i32 54, i32 2, i32 3, i32 2, i8* getelementptr inbounds ([5 x i8], [5 x i8]* @fcmp_namestr, i32 0, i32 0)), !llfi_injectfault !18
  %404 = fcmp ogt float %fi723, %fi724, !taffo.info !349, !taffo.initweight !90, !llfi_index !756, !taffo.target !453
  %fi722 = call i1 @injectFault3(i64 675, i1 %404, i32 54, i32 0, i32 3, i32 0, i8* getelementptr inbounds ([5 x i8], [5 x i8]* @fcmp_namestr, i32 0, i32 0)), !llfi_injectfault !44
  %fi725 = call i1 @injectFault3(i64 676, i1 %fi722, i32 2, i32 0, i32 1, i32 1, i8* getelementptr inbounds ([3 x i8], [3 x i8]* @br_namestr, i32 0, i32 0)), !llfi_injectfault !18
  br i1 %fi725, label %405, label %411, !taffo.info !349, !taffo.initweight !93, !llfi_index !757, !taffo.target !453

405:                                              ; preds = %403
  %fi727 = call float @injectFault5(i64 677, float %401, i32 54, i32 1, i32 3, i32 1, i8* getelementptr inbounds ([5 x i8], [5 x i8]* @fcmp_namestr, i32 0, i32 0)), !llfi_injectfault !18
