; ModuleID = '/home/aastabk/lltfi_attempt/axbench/kmeans/kmeans.ll'
source_filename = "llvm-link"
target datalayout = "e-m:e-p270:32:32-p271:32:32-p272:64:64-i64:64-f80:128-n8:16:32:64-S128"
target triple = "x86_64-pc-linux-gnu"

module asm ".globl _ZSt21ios_base_library_initv"

%"class.std::basic_ostream" = type { i32 (...)**, %"class.std::basic_ios" }
%"class.std::basic_ios" = type { %"class.std::ios_base", %"class.std::basic_ostream"*, i8, i8, %"class.std::basic_streambuf"*, %"class.std::ctype"*, %"class.std::num_put"*, %"class.std::num_put"* }
%"class.std::ios_base" = type { i32 (...)**, i64, i64, i32, i32, i32, %"struct.std::ios_base::_Callback_list"*, %"struct.std::ios_base::_Words", [8 x %"struct.std::ios_base::_Words"], i32, %"struct.std::ios_base::_Words"*, %"class.std::locale" }
%"struct.std::ios_base::_Callback_list" = type { %"struct.std::ios_base::_Callback_list"*, void (i32, %"class.std::ios_base"*, i32)*, i32, i32 }
%"struct.std::ios_base::_Words" = type { i8*, i64 }
%"class.std::locale" = type { %"class.std::locale::_Impl"* }
%"class.std::locale::_Impl" = type { i32, %"class.std::locale::facet"**, i64, %"class.std::locale::facet"**, i8** }
%"class.std::locale::facet" = type <{ i32 (...)**, i32, [4 x i8] }>
%"class.std::basic_streambuf" = type { i32 (...)**, i8*, i8*, i8*, i8*, i8*, i8*, %"class.std::locale" }
%"class.std::ctype" = type <{ %"class.std::locale::facet.base", [4 x i8], %struct.__locale_struct*, i8, [7 x i8], i32*, i32*, i16*, i8, [256 x i8], [256 x i8], i8, [6 x i8] }>
%"class.std::locale::facet.base" = type <{ i32 (...)**, i32 }>
%struct.__locale_struct = type { [13 x %struct.__locale_data*], i16*, i32*, i32*, [13 x i8*] }
%struct.__locale_data = type opaque
%"class.std::num_put" = type { %"class.std::locale::facet.base", [4 x i8] }
%struct.RgbPixel = type { float, float, float, i32, float }
%struct.Centroid = type { float, float, float, i32 }
%struct.Clusters = type { i32, %struct.Centroid* }
%"class.std::__cxx11::basic_string" = type { %"struct.std::__cxx11::basic_string<char>::_Alloc_hider", i64, %union.anon }
%"struct.std::__cxx11::basic_string<char>::_Alloc_hider" = type { i8* }
%union.anon = type { i64, [8 x i8] }
%"class.std::__new_allocator" = type { i8 }
%class.AxBenchTimer = type { %struct.timespec }
%struct.timespec = type { i64, i64 }
%struct.RgbImage = type { i32, i32, %struct.RgbPixel**, i8* }
%struct._IO_FILE = type { i32, i8*, i8*, i8*, i8*, i8*, i8*, i8*, i8*, i8*, i8*, i8*, %struct._IO_marker*, %struct._IO_FILE*, i32, i32, i64, i16, i8, [1 x i8], i8*, i64, %struct._IO_codecvt*, %struct._IO_wide_data*, %struct._IO_FILE*, i8*, i64, i32, [20 x i8] }
%struct._IO_marker = type opaque
%struct._IO_codecvt = type opaque
%struct._IO_wide_data = type opaque

$_ZNSt15__new_allocatorIcED2Ev = comdat any

$_ZN12AxBenchTimerC2Ev = comdat any

$_ZN12AxBenchTimer20nanosecondsSinceInitEv = comdat any

$_ZN12AxBenchTimer5resetEv = comdat any

@count = dso_local global i32 0, align 4, !taffo.info !0
@_ZSt4cout = external global %"class.std::basic_ostream", align 8, !taffo.structinfo !2
@.str.3.10 = private unnamed_addr constant [15 x i8] c"kernel time = \00", align 1, !taffo.info !3
@.str.4.11 = private unnamed_addr constant [3 x i8] c" s\00", align 1, !taffo.info !5
@.str.5.21 = private unnamed_addr constant [2 x i8] c"r\00", align 1, !taffo.info !7
@.str.6.22 = private unnamed_addr constant [32 x i8] c"Warning: Oops! Cannot open %s!\0A\00", align 1, !taffo.info !3
@.str.7.23 = private unnamed_addr constant [55 x i8] c"Warning: Oops! Cannot allocate memory for the pixels!\0A\00", align 1, !taffo.info !9
@.str.9 = private unnamed_addr constant [2 x i8] c"w\00", align 1, !taffo.info !11
@.str.10 = private unnamed_addr constant [7 x i8] c"%d,%d\0A\00", align 1, !taffo.info !13
@.str.11 = private unnamed_addr constant [10 x i8] c"%d,%d,%d,\00", align 1, !taffo.info !13
@.str.12 = private unnamed_addr constant [10 x i8] c"%d,%d,%d\0A\00", align 1, !taffo.info !13
@.str.13 = private unnamed_addr constant [3 x i8] c"%s\00", align 1, !taffo.info !5
@.str.3.33 = private unnamed_addr constant [57 x i8] c"Warning: Oops! Cannot allocate memory for the clusters!\0A\00", align 1, !taffo.info !9

; Function Attrs: mustprogress noinline uwtable
define dso_local noundef float @_Z17euclideanDistanceP8RgbPixelP8Centroid(%struct.RgbPixel* noundef %0, %struct.Centroid* noundef %1) #0 !taffo.initweight !21 !taffo.equivalentChild !22 !taffo.funinfo !23 {
  %3 = getelementptr inbounds %struct.RgbPixel, %struct.RgbPixel* %0, i32 0, i32 0, !taffo.info !24, !taffo.initweight !25, !llfi_index !26
  %4 = load float, float* %3, align 4, !taffo.info !24, !taffo.initweight !27, !llfi_index !28
  %.flt.s20_12fixp4 = getelementptr inbounds %struct.Centroid, %struct.Centroid* %1, i32 0, i32 0, !taffo.info !29, !taffo.initweight !25, !llfi_index !31
  %.flt9 = load float, float* %.flt.s20_12fixp4, align 4, !taffo.info !29, !taffo.initweight !27, !llfi_index !32
  %5 = fmul float 4.096000e+03, %.flt9, !taffo.info !29, !llfi_index !33
  %.flt9.fallback.s20_12fixp = fptosi float %5 to i32, !taffo.info !29, !llfi_index !34
  %6 = fmul float 4.096000e+03, %4, !taffo.info !24, !llfi_index !35
  %7 = fptosi float %6 to i32, !taffo.info !24, !llfi_index !36
  %s20_12fixp14 = sub i32 %7, %.flt9.fallback.s20_12fixp, !taffo.info !29, !llfi_index !37
  %8 = getelementptr inbounds %struct.RgbPixel, %struct.RgbPixel* %0, i32 0, i32 0, !taffo.info !24, !taffo.initweight !25, !llfi_index !38
  %9 = load float, float* %8, align 4, !taffo.info !24, !taffo.initweight !27, !llfi_index !39
  %.flt.s20_12fixp5 = getelementptr inbounds %struct.Centroid, %struct.Centroid* %1, i32 0, i32 0, !taffo.info !29, !taffo.initweight !25, !llfi_index !40
  %.flt10 = load float, float* %.flt.s20_12fixp5, align 4, !taffo.info !29, !taffo.initweight !27, !llfi_index !41
  %10 = fmul float 4.096000e+03, %.flt10, !taffo.info !29, !llfi_index !42
  %.flt10.fallback.s20_12fixp = fptosi float %10 to i32, !taffo.info !29, !llfi_index !43
  %11 = fmul float 4.096000e+03, %9, !taffo.info !24, !llfi_index !44
  %12 = fptosi float %11 to i32, !taffo.info !24, !llfi_index !45
  %s20_12fixp15 = sub i32 %12, %.flt10.fallback.s20_12fixp, !taffo.info !29, !llfi_index !46
  %13 = lshr i32 0, 20, !llfi_index !47
  %14 = sext i32 %s20_12fixp14 to i64, !taffo.info !29, !llfi_index !48
  %15 = sext i32 %s20_12fixp15 to i64, !taffo.info !29, !llfi_index !49
  %16 = mul i64 %14, %15, !taffo.info !50, !llfi_index !52
  %17 = ashr i64 %16, 12, !llfi_index !53
  %18 = trunc i64 %17 to i32, !llfi_index !54
  %s20_12fixp16 = add i32 %18, %13, !taffo.info !29, !llfi_index !55
  %19 = getelementptr inbounds %struct.RgbPixel, %struct.RgbPixel* %0, i32 0, i32 1, !taffo.info !24, !taffo.initweight !25, !llfi_index !56
  %20 = load float, float* %19, align 4, !taffo.info !24, !taffo.initweight !27, !llfi_index !57
  %.flt.s20_12fixp1 = getelementptr inbounds %struct.Centroid, %struct.Centroid* %1, i32 0, i32 1, !taffo.info !29, !taffo.initweight !25, !llfi_index !58
  %.flt6 = load float, float* %.flt.s20_12fixp1, align 4, !taffo.info !29, !taffo.initweight !27, !llfi_index !59
  %21 = fmul float 4.096000e+03, %.flt6, !taffo.info !29, !llfi_index !60
  %.flt6.fallback.s20_12fixp = fptosi float %21 to i32, !taffo.info !29, !llfi_index !61
  %22 = fmul float 4.096000e+03, %20, !taffo.info !24, !llfi_index !62
  %23 = fptosi float %22 to i32, !taffo.info !24, !llfi_index !63
  %s20_12fixp11 = sub i32 %23, %.flt6.fallback.s20_12fixp, !taffo.info !29, !llfi_index !64
  %24 = getelementptr inbounds %struct.RgbPixel, %struct.RgbPixel* %0, i32 0, i32 1, !taffo.info !24, !taffo.initweight !25, !llfi_index !65
  %25 = load float, float* %24, align 4, !taffo.info !24, !taffo.initweight !27, !llfi_index !66
  %.flt.s20_12fixp = getelementptr inbounds %struct.Centroid, %struct.Centroid* %1, i32 0, i32 1, !taffo.info !29, !taffo.initweight !25, !llfi_index !67
  %.flt = load float, float* %.flt.s20_12fixp, align 4, !taffo.info !29, !taffo.initweight !27, !llfi_index !68
  %26 = fmul float 4.096000e+03, %.flt, !taffo.info !29, !llfi_index !69
  %.flt.fallback.s20_12fixp = fptosi float %26 to i32, !taffo.info !29, !llfi_index !70
  %27 = fmul float 4.096000e+03, %25, !taffo.info !24, !llfi_index !71
  %28 = fptosi float %27 to i32, !taffo.info !24, !llfi_index !72
  %s20_12fixp = sub i32 %28, %.flt.fallback.s20_12fixp, !taffo.info !29, !llfi_index !73
  %29 = sext i32 %s20_12fixp11 to i64, !taffo.info !29, !llfi_index !74
  %30 = sext i32 %s20_12fixp to i64, !taffo.info !29, !llfi_index !75
  %31 = mul i64 %29, %30, !taffo.info !50, !llfi_index !76
  %32 = ashr i64 %31, 12, !llfi_index !77
  %33 = trunc i64 %32 to i32, !llfi_index !78
  %s20_12fixp17 = add i32 %33, %s20_12fixp16, !taffo.info !29, !llfi_index !79
  %34 = getelementptr inbounds %struct.RgbPixel, %struct.RgbPixel* %0, i32 0, i32 2, !taffo.info !24, !taffo.initweight !25, !llfi_index !80
  %35 = load float, float* %34, align 4, !taffo.info !24, !taffo.initweight !27, !llfi_index !81
  %.flt.s20_12fixp3 = getelementptr inbounds %struct.Centroid, %struct.Centroid* %1, i32 0, i32 2, !taffo.info !29, !taffo.initweight !25, !llfi_index !82
  %.flt8 = load float, float* %.flt.s20_12fixp3, align 4, !taffo.info !29, !taffo.initweight !27, !llfi_index !83
  %36 = fmul float 4.096000e+03, %.flt8, !taffo.info !29, !llfi_index !84
  %.flt8.fallback.s20_12fixp = fptosi float %36 to i32, !taffo.info !29, !llfi_index !85
  %37 = fmul float 4.096000e+03, %35, !taffo.info !24, !llfi_index !86
  %38 = fptosi float %37 to i32, !taffo.info !24, !llfi_index !87
  %s20_12fixp13 = sub i32 %38, %.flt8.fallback.s20_12fixp, !taffo.info !29, !llfi_index !88
  %39 = getelementptr inbounds %struct.RgbPixel, %struct.RgbPixel* %0, i32 0, i32 2, !taffo.info !24, !taffo.initweight !25, !llfi_index !89
  %40 = load float, float* %39, align 4, !taffo.info !24, !taffo.initweight !27, !llfi_index !90
  %.flt.s20_12fixp2 = getelementptr inbounds %struct.Centroid, %struct.Centroid* %1, i32 0, i32 2, !taffo.info !29, !taffo.initweight !25, !llfi_index !91
  %.flt7 = load float, float* %.flt.s20_12fixp2, align 4, !taffo.info !29, !taffo.initweight !27, !llfi_index !92
  %41 = fmul float 4.096000e+03, %.flt7, !taffo.info !29, !llfi_index !93
  %.flt7.fallback.s20_12fixp = fptosi float %41 to i32, !taffo.info !29, !llfi_index !94
  %42 = fmul float 4.096000e+03, %40, !taffo.info !24, !llfi_index !95
  %43 = fptosi float %42 to i32, !taffo.info !24, !llfi_index !96
  %s20_12fixp12 = sub i32 %43, %.flt7.fallback.s20_12fixp, !taffo.info !29, !llfi_index !97
  %44 = shl i32 %s20_12fixp17, 18, !taffo.info !29, !llfi_index !98
  %45 = sext i32 %s20_12fixp13 to i64, !taffo.info !29, !llfi_index !99
  %46 = sext i32 %s20_12fixp12 to i64, !taffo.info !29, !llfi_index !100
  %47 = mul i64 %45, %46, !taffo.info !101, !llfi_index !104
  %48 = shl i64 %47, 6, !llfi_index !105
  %49 = trunc i64 %48 to i32, !llfi_index !106
  %u2_30fixp = add i32 %49, %44, !taffo.info !107, !llfi_index !109
  %u2_30fixp18 = call i32 @_ZSt4sqrtf.8_u2_30fixp(i32 %u2_30fixp), !taffo.info !110, !taffo.constinfo !111, !llfi_index !112
  %50 = uitofp i32 %u2_30fixp18 to float, !taffo.info !110, !llfi_index !113
  %51 = fdiv float %50, 0x41D0000000000000, !taffo.info !110, !taffo.constinfo !111, !llfi_index !114
  ret float %51, !taffo.info !24, !taffo.initweight !27, !llfi_index !115
}

; Function Attrs: nocallback nofree nosync nounwind readnone speculatable willreturn
declare !taffo.initweight !116 !taffo.funinfo !117 float @llvm.fmuladd.f32(float, float, float) #1

; Function Attrs: nounwind
declare !taffo.initweight !118 !taffo.funinfo !119 float @sqrtf(float noundef) #2

; Function Attrs: mustprogress noinline uwtable
define dso_local noundef i32 @_Z11pickClusterP8RgbPixelP8Centroid(%struct.RgbPixel* noundef %0, %struct.Centroid* noundef %1) #0 !taffo.initweight !21 !taffo.funinfo !23 {
  %3 = call noundef float @_Z17euclideanDistanceP8RgbPixelP8Centroid.9(%struct.RgbPixel* noundef %0, %struct.Centroid* noundef %1), !taffo.info !24, !taffo.initweight !25, !taffo.constinfo !120, !taffo.originalCall !121, !llfi_index !122
  %4 = getelementptr inbounds %struct.RgbPixel, %struct.RgbPixel* %0, i32 0, i32 4, !taffo.info !24, !taffo.initweight !25, !llfi_index !123
  %5 = load float, float* %4, align 4, !taffo.info !24, !taffo.initweight !27, !llfi_index !124
  %6 = fcmp ole float %5, %3, !taffo.info !24, !taffo.initweight !25, !llfi_index !125
  br i1 %6, label %7, label %8, !taffo.info !24, !taffo.initweight !27, !llfi_index !126

7:                                                ; preds = %2
  br label %9, !llfi_index !127

8:                                                ; preds = %2
  br label %9, !llfi_index !128

9:                                                ; preds = %8, %7
  %.0 = phi i32 [ 0, %7 ], [ 1, %8 ], !llfi_index !129
  ret i32 %.0, !llfi_index !130
}

; Function Attrs: mustprogress noinline uwtable
define dso_local void @_Z13assignClusterP8RgbPixelP8Clusters(%struct.RgbPixel* noundef %0, %struct.Clusters* noundef %1) #0 !taffo.initweight !21 !taffo.equivalentChild !131 !taffo.funinfo !23 {
  %3 = getelementptr inbounds %struct.Clusters, %struct.Clusters* %1, i32 0, i32 1, !taffo.structinfo !132, !taffo.initweight !25, !llfi_index !135
  %4 = load %struct.Centroid*, %struct.Centroid** %3, align 8, !taffo.structinfo !132, !taffo.initweight !27, !llfi_index !136
  %5 = sext i32 0 to i64, !llfi_index !137
  %6 = getelementptr inbounds %struct.Centroid, %struct.Centroid* %4, i64 %5, !taffo.structinfo !132, !taffo.initweight !138, !llfi_index !139
  %7 = call noundef float @_Z17euclideanDistanceP8RgbPixelP8Centroid.11(%struct.RgbPixel* noundef %0, %struct.Centroid* noundef %6), !taffo.info !140, !taffo.initweight !25, !taffo.constinfo !120, !taffo.originalCall !121, !llfi_index !141
  %8 = getelementptr inbounds %struct.RgbPixel, %struct.RgbPixel* %0, i32 0, i32 4, !taffo.info !24, !taffo.initweight !25, !llfi_index !142
  store float %7, float* %8, align 4, !taffo.info !24, !taffo.initweight !25, !taffo.target !143, !llfi_index !144
  br label %9, !llfi_index !145

9:                                                ; preds = %26, %2
  %.0 = phi i32 [ 1, %2 ], [ %27, %26 ], !llfi_index !146
  %10 = getelementptr inbounds %struct.Clusters, %struct.Clusters* %1, i32 0, i32 0, !taffo.info !24, !taffo.initweight !25, !llfi_index !147
  %11 = load i32, i32* %10, align 8, !taffo.info !24, !taffo.initweight !27, !llfi_index !148
  %12 = icmp slt i32 %.0, %11, !taffo.info !24, !taffo.initweight !138, !llfi_index !149
  br i1 %12, label %13, label %28, !taffo.info !24, !taffo.initweight !150, !llfi_index !151

13:                                               ; preds = %9
  %14 = getelementptr inbounds %struct.Clusters, %struct.Clusters* %1, i32 0, i32 1, !taffo.structinfo !132, !taffo.initweight !25, !llfi_index !152
  %15 = load %struct.Centroid*, %struct.Centroid** %14, align 8, !taffo.structinfo !132, !taffo.initweight !27, !llfi_index !153
  %16 = sext i32 %.0 to i64, !llfi_index !154
  %17 = getelementptr inbounds %struct.Centroid, %struct.Centroid* %15, i64 %16, !taffo.structinfo !132, !taffo.initweight !138, !llfi_index !155
  %18 = call noundef float @_Z17euclideanDistanceP8RgbPixelP8Centroid.10(%struct.RgbPixel* noundef %0, %struct.Centroid* noundef %17), !taffo.info !140, !taffo.initweight !25, !taffo.constinfo !120, !taffo.originalCall !121, !llfi_index !156
  %19 = getelementptr inbounds %struct.RgbPixel, %struct.RgbPixel* %0, i32 0, i32 4, !taffo.info !24, !taffo.initweight !25, !llfi_index !157
  %20 = load float, float* %19, align 4, !taffo.info !24, !taffo.initweight !27, !llfi_index !158
  %21 = fcmp olt float %18, %20, !taffo.info !140, !taffo.initweight !25, !taffo.target !143, !llfi_index !159
  br i1 %21, label %22, label %25, !taffo.info !24, !taffo.initweight !27, !taffo.target !143, !llfi_index !160

22:                                               ; preds = %13
  %23 = getelementptr inbounds %struct.RgbPixel, %struct.RgbPixel* %0, i32 0, i32 3, !taffo.info !24, !taffo.initweight !25, !llfi_index !161
  store i32 %.0, i32* %23, align 4, !taffo.info !24, !llfi_index !162
  %24 = getelementptr inbounds %struct.RgbPixel, %struct.RgbPixel* %0, i32 0, i32 4, !taffo.info !24, !taffo.initweight !25, !llfi_index !163
  store float %18, float* %24, align 4, !taffo.info !24, !taffo.initweight !25, !taffo.target !143, !llfi_index !164
  br label %25, !llfi_index !165

25:                                               ; preds = %22, %13
  br label %26, !llfi_index !166

26:                                               ; preds = %25
  %27 = add nsw i32 %.0, 1, !taffo.constinfo !111, !llfi_index !167
  br label %9, !llvm.loop !168, !llfi_index !170

28:                                               ; preds = %9
  ret void, !llfi_index !171
}

; Function Attrs: noinline norecurse uwtable
define dso_local noundef i32 @main(i32 noundef %0, i8** noundef %1) #3 personality i8* bitcast (i32 (...)* @__gxx_personality_v0 to i8*) !taffo.initweight !21 !taffo.funinfo !23 !taffo.start !172 {
  %3 = alloca { i32, i32, { i32, i32, i32, i32, i32 }**, i8* }, align 8, !llfi_index !173
  %4 = alloca { i32, { i32, i32, i32, i32 }* }, align 8, !taffo.target !174, !llfi_index !175
  %5 = alloca %"class.std::__cxx11::basic_string", align 8, !taffo.structinfo !2, !llfi_index !176
  %6 = alloca %"class.std::__new_allocator", align 1, !taffo.structinfo !2, !llfi_index !177
  %7 = alloca %"class.std::__cxx11::basic_string", align 8, !taffo.structinfo !2, !llfi_index !178
  %8 = alloca %"class.std::__new_allocator", align 1, !taffo.structinfo !2, !llfi_index !179
  %9 = alloca %class.AxBenchTimer, align 8, !taffo.structinfo !2, !llfi_index !180
  call void @_Z12initRgbImageP8RgbImage.4_fixp({ i32, i32, { i32, i32, i32, i32, i32 }**, i8* }* %3), !taffo.info !24, !taffo.constinfo !111, !llfi_index !181
  %10 = getelementptr inbounds i8*, i8** %1, i64 1, !llfi_index !182
  %11 = load i8*, i8** %10, align 8, !llfi_index !183
  invoke void @_ZNSt7__cxx1112basic_stringIcSt11char_traitsIcESaIcEEC1EPKcRKS3_(%"class.std::__cxx11::basic_string"* noundef nonnull align 8 dereferenceable(32) %5, i8* noundef %11, %"class.std::__new_allocator"* noundef nonnull align 1 dereferenceable(1) %6)
          to label %12 unwind label %39, !taffo.constinfo !184, !llfi_index !185

12:                                               ; preds = %2
  %13 = bitcast %"class.std::__new_allocator"* %6 to %"class.std::__new_allocator"*, !llfi_index !186
  call void @_ZNSt15__new_allocatorIcED2Ev(%"class.std::__new_allocator"* noundef nonnull align 1 dereferenceable(1) %13) #10, !taffo.constinfo !111, !llfi_index !187
  %14 = getelementptr inbounds i8*, i8** %1, i64 2, !llfi_index !188
  %15 = load i8*, i8** %14, align 8, !llfi_index !189
  invoke void @_ZNSt7__cxx1112basic_stringIcSt11char_traitsIcESaIcEEC1EPKcRKS3_(%"class.std::__cxx11::basic_string"* noundef nonnull align 8 dereferenceable(32) %7, i8* noundef %15, %"class.std::__new_allocator"* noundef nonnull align 1 dereferenceable(1) %8)
          to label %16 unwind label %44, !taffo.constinfo !184, !llfi_index !190

16:                                               ; preds = %12
  %17 = bitcast %"class.std::__new_allocator"* %8 to %"class.std::__new_allocator"*, !llfi_index !191
  call void @_ZNSt15__new_allocatorIcED2Ev(%"class.std::__new_allocator"* noundef nonnull align 1 dereferenceable(1) %17) #10, !taffo.constinfo !111, !llfi_index !192
  %18 = call noundef i8* @_ZNKSt7__cxx1112basic_stringIcSt11char_traitsIcESaIcEE5c_strEv(%"class.std::__cxx11::basic_string"* noundef nonnull align 8 dereferenceable(32) %5) #10, !taffo.constinfo !111, !llfi_index !193
  %matchop2 = invoke i32 @_Z12loadRgbImagePKcP8RgbImagef.3_fixp(i8* %18, { i32, i32, { i32, i32, i32, i32, i32 }**, i8* }* %3, float 2.560000e+02)
          to label %19 unwind label %49, !taffo.info !140, !taffo.constinfo !194, !llfi_index !197

19:                                               ; preds = %16
  %matchop = invoke i32 @_Z12initClustersP8Clustersif.7_fixp({ i32, { i32, i32, i32, i32 }* }* %4, i32 6, float 1.000000e+00)
          to label %20 unwind label %49, !taffo.info !140, !taffo.constinfo !198, !taffo.target !174, !llfi_index !201

20:                                               ; preds = %19
  invoke void @_ZN12AxBenchTimerC2Ev(%class.AxBenchTimer* noundef nonnull align 8 dereferenceable(16) %9)
          to label %21 unwind label %49, !taffo.constinfo !202, !llfi_index !203

21:                                               ; preds = %20
  invoke void @_Z12segmentImageP8RgbImageP8Clustersi.6_fixp({ i32, i32, { i32, i32, i32, i32, i32 }**, i8* }* %3, { i32, { i32, i32, i32, i32 }* }* %4, i32 1)
          to label %22 unwind label %49, !taffo.info !24, !taffo.constinfo !184, !llfi_index !204

22:                                               ; preds = %21
  %23 = invoke noundef i64 @_ZN12AxBenchTimer20nanosecondsSinceInitEv(%class.AxBenchTimer* noundef nonnull align 8 dereferenceable(16) %9)
          to label %24 unwind label %49, !taffo.constinfo !202, !llfi_index !205

24:                                               ; preds = %22
  %25 = invoke noundef nonnull align 8 dereferenceable(8) %"class.std::basic_ostream"* @_ZStlsISt11char_traitsIcEERSt13basic_ostreamIcT_ES5_PKc(%"class.std::basic_ostream"* noundef nonnull align 8 dereferenceable(8) @_ZSt4cout, i8* noundef getelementptr inbounds ([15 x i8], [15 x i8]* @.str.3.10, i64 0, i64 0))
          to label %26 unwind label %49, !taffo.constinfo !206, !llfi_index !207

26:                                               ; preds = %24
  %27 = uitofp i64 %23 to double, !llfi_index !208
  %28 = fdiv double %27, 1.000000e+09, !taffo.constinfo !209, !llfi_index !212
  %29 = invoke noundef nonnull align 8 dereferenceable(8) %"class.std::basic_ostream"* @_ZNSolsEd(%"class.std::basic_ostream"* noundef nonnull align 8 dereferenceable(8) %25, double noundef %28)
          to label %30 unwind label %49, !taffo.constinfo !206, !llfi_index !213

30:                                               ; preds = %26
  %31 = invoke noundef nonnull align 8 dereferenceable(8) %"class.std::basic_ostream"* @_ZStlsISt11char_traitsIcEERSt13basic_ostreamIcT_ES5_PKc(%"class.std::basic_ostream"* noundef nonnull align 8 dereferenceable(8) %29, i8* noundef getelementptr inbounds ([3 x i8], [3 x i8]* @.str.4.11, i64 0, i64 0))
          to label %32 unwind label %49, !taffo.constinfo !206, !llfi_index !214

32:                                               ; preds = %30
  %33 = invoke noundef nonnull align 8 dereferenceable(8) %"class.std::basic_ostream"* @_ZNSolsEPFRSoS_E(%"class.std::basic_ostream"* noundef nonnull align 8 dereferenceable(8) %31, %"class.std::basic_ostream"* (%"class.std::basic_ostream"*)* noundef @_ZSt4endlIcSt11char_traitsIcEERSt13basic_ostreamIT_T0_ES6_)
          to label %34 unwind label %49, !taffo.constinfo !206, !llfi_index !215

34:                                               ; preds = %32
  %35 = call noundef i8* @_ZNKSt7__cxx1112basic_stringIcSt11char_traitsIcESaIcEE5c_strEv(%"class.std::__cxx11::basic_string"* noundef nonnull align 8 dereferenceable(32) %7) #10, !taffo.constinfo !111, !llfi_index !216
  %matchop1 = invoke i32 @_Z12saveRgbImageP8RgbImagePKcf.2_fixp({ i32, i32, { i32, i32, i32, i32, i32 }**, i8* }* %3, i8* %35, float 2.550000e+02)
          to label %36 unwind label %49, !taffo.info !140, !taffo.constinfo !217, !llfi_index !220

36:                                               ; preds = %34
  invoke void @_Z12freeRgbImageP8RgbImage.1_fixp({ i32, i32, { i32, i32, i32, i32, i32 }**, i8* }* %3)
          to label %37 unwind label %49, !taffo.info !24, !taffo.constinfo !202, !llfi_index !221

37:                                               ; preds = %36
  invoke void @_Z12freeClustersP8Clusters.5_fixp({ i32, { i32, i32, i32, i32 }* }* %4)
          to label %38 unwind label %49, !taffo.info !24, !taffo.constinfo !202, !taffo.target !174, !llfi_index !222

38:                                               ; preds = %37
  call void @_ZNSt7__cxx1112basic_stringIcSt11char_traitsIcESaIcEED1Ev(%"class.std::__cxx11::basic_string"* noundef nonnull align 8 dereferenceable(32) %7) #10, !taffo.constinfo !111, !llfi_index !223
  call void @_ZNSt7__cxx1112basic_stringIcSt11char_traitsIcESaIcEED1Ev(%"class.std::__cxx11::basic_string"* noundef nonnull align 8 dereferenceable(32) %5) #10, !taffo.constinfo !111, !llfi_index !224
  ret i32 0, !llfi_index !225

39:                                               ; preds = %2
  %40 = landingpad { i8*, i32 }
          cleanup, !llfi_index !226
  %41 = extractvalue { i8*, i32 } %40, 0, !llfi_index !227
  %42 = extractvalue { i8*, i32 } %40, 1, !llfi_index !228
  %43 = bitcast %"class.std::__new_allocator"* %6 to %"class.std::__new_allocator"*, !llfi_index !229
  call void @_ZNSt15__new_allocatorIcED2Ev(%"class.std::__new_allocator"* noundef nonnull align 1 dereferenceable(1) %43) #10, !taffo.constinfo !111, !llfi_index !230
  br label %54, !llfi_index !231

44:                                               ; preds = %12
  %45 = landingpad { i8*, i32 }
          cleanup, !llfi_index !232
  %46 = extractvalue { i8*, i32 } %45, 0, !llfi_index !233
  %47 = extractvalue { i8*, i32 } %45, 1, !llfi_index !234
  %48 = bitcast %"class.std::__new_allocator"* %8 to %"class.std::__new_allocator"*, !llfi_index !235
  call void @_ZNSt15__new_allocatorIcED2Ev(%"class.std::__new_allocator"* noundef nonnull align 1 dereferenceable(1) %48) #10, !taffo.constinfo !111, !llfi_index !236
  br label %53, !llfi_index !237

49:                                               ; preds = %37, %36, %34, %32, %30, %26, %24, %22, %21, %20, %19, %16
  %50 = landingpad { i8*, i32 }
          cleanup, !llfi_index !238
  %51 = extractvalue { i8*, i32 } %50, 0, !llfi_index !239
  %52 = extractvalue { i8*, i32 } %50, 1, !llfi_index !240
  call void @_ZNSt7__cxx1112basic_stringIcSt11char_traitsIcESaIcEED1Ev(%"class.std::__cxx11::basic_string"* noundef nonnull align 8 dereferenceable(32) %7) #10, !taffo.constinfo !111, !llfi_index !241
  br label %53, !llfi_index !242

53:                                               ; preds = %49, %44
  %.01 = phi i8* [ %51, %49 ], [ %46, %44 ], !llfi_index !243
  %.0 = phi i32 [ %52, %49 ], [ %47, %44 ], !llfi_index !244
  call void @_ZNSt7__cxx1112basic_stringIcSt11char_traitsIcESaIcEED1Ev(%"class.std::__cxx11::basic_string"* noundef nonnull align 8 dereferenceable(32) %5) #10, !taffo.constinfo !111, !llfi_index !245
  br label %54, !llfi_index !246

54:                                               ; preds = %53, %39
  %.12 = phi i8* [ %.01, %53 ], [ %41, %39 ], !llfi_index !247
  %.1 = phi i32 [ %.0, %53 ], [ %42, %39 ], !llfi_index !248
  %55 = insertvalue { i8*, i32 } undef, i8* %.12, 0, !llfi_index !249
  %56 = insertvalue { i8*, i32 } %55, i32 %.1, 1, !llfi_index !250
  resume { i8*, i32 } %56, !llfi_index !251
}

declare !taffo.initweight !2 !taffo.funinfo !2 i32 @__gxx_personality_v0(...)

declare !taffo.initweight !116 !taffo.funinfo !117 void @_ZNSt7__cxx1112basic_stringIcSt11char_traitsIcESaIcEEC1EPKcRKS3_(%"class.std::__cxx11::basic_string"* noundef nonnull align 8 dereferenceable(32), i8* noundef, %"class.std::__new_allocator"* noundef nonnull align 1 dereferenceable(1)) unnamed_addr #4

; Function Attrs: noinline nounwind uwtable
define linkonce_odr dso_local void @_ZNSt15__new_allocatorIcED2Ev(%"class.std::__new_allocator"* noundef nonnull align 1 dereferenceable(1) %0) unnamed_addr #5 comdat align 2 !taffo.initweight !118 !taffo.funinfo !119 {
  ret void, !llfi_index !252
}

; Function Attrs: nounwind
declare !taffo.initweight !118 !taffo.funinfo !119 noundef i8* @_ZNKSt7__cxx1112basic_stringIcSt11char_traitsIcESaIcEE5c_strEv(%"class.std::__cxx11::basic_string"* noundef nonnull align 8 dereferenceable(32)) #2

; Function Attrs: noinline uwtable
define linkonce_odr dso_local void @_ZN12AxBenchTimerC2Ev(%class.AxBenchTimer* noundef nonnull align 8 dereferenceable(16) %0) unnamed_addr #6 comdat align 2 !taffo.initweight !118 !taffo.funinfo !253 {
  call void @_ZN12AxBenchTimer5resetEv(%class.AxBenchTimer* noundef nonnull align 8 dereferenceable(16) %0), !taffo.constinfo !111, !llfi_index !254
  ret void, !llfi_index !255
}

; Function Attrs: mustprogress noinline nounwind uwtable
define linkonce_odr dso_local noundef i64 @_ZN12AxBenchTimer20nanosecondsSinceInitEv(%class.AxBenchTimer* noundef nonnull align 8 dereferenceable(16) %0) #7 comdat align 2 !taffo.initweight !118 !taffo.funinfo !253 {
  %2 = alloca %struct.timespec, align 8, !taffo.structinfo !2, !llfi_index !256
  %3 = call i32 @clock_gettime(i32 noundef 4, %struct.timespec* noundef %2) #10, !taffo.constinfo !120, !llfi_index !257
  %4 = getelementptr inbounds %class.AxBenchTimer, %class.AxBenchTimer* %0, i32 0, i32 0, !llfi_index !258
  %5 = getelementptr inbounds %struct.timespec, %struct.timespec* %4, i32 0, i32 1, !llfi_index !259
  %6 = load i64, i64* %5, align 8, !llfi_index !260
  %7 = getelementptr inbounds %class.AxBenchTimer, %class.AxBenchTimer* %0, i32 0, i32 0, !llfi_index !261
  %8 = getelementptr inbounds %struct.timespec, %struct.timespec* %7, i32 0, i32 0, !llfi_index !262
  %9 = load i64, i64* %8, align 8, !llfi_index !263
  %10 = mul nsw i64 %9, 1000000000, !taffo.constinfo !111, !llfi_index !264
  %11 = add nsw i64 %6, %10, !llfi_index !265
  %12 = getelementptr inbounds %struct.timespec, %struct.timespec* %2, i32 0, i32 1, !llfi_index !266
  %13 = load i64, i64* %12, align 8, !llfi_index !267
  %14 = getelementptr inbounds %struct.timespec, %struct.timespec* %2, i32 0, i32 0, !llfi_index !268
  %15 = load i64, i64* %14, align 8, !llfi_index !269
  %16 = mul nsw i64 %15, 1000000000, !taffo.constinfo !111, !llfi_index !270
  %17 = add nsw i64 %13, %16, !llfi_index !271
  %18 = sub i64 %17, %11, !llfi_index !272
  ret i64 %18, !llfi_index !273
}

declare !taffo.initweight !21 !taffo.funinfo !23 noundef nonnull align 8 dereferenceable(8) %"class.std::basic_ostream"* @_ZStlsISt11char_traitsIcEERSt13basic_ostreamIcT_ES5_PKc(%"class.std::basic_ostream"* noundef nonnull align 8 dereferenceable(8), i8* noundef) #4

declare !taffo.initweight !21 !taffo.funinfo !23 noundef nonnull align 8 dereferenceable(8) %"class.std::basic_ostream"* @_ZNSolsEd(%"class.std::basic_ostream"* noundef nonnull align 8 dereferenceable(8), double noundef) #4

declare !taffo.initweight !118 !taffo.funinfo !119 noundef nonnull align 8 dereferenceable(8) %"class.std::basic_ostream"* @_ZSt4endlIcSt11char_traitsIcEERSt13basic_ostreamIT_T0_ES6_(%"class.std::basic_ostream"* noundef nonnull align 8 dereferenceable(8)) #4

declare !taffo.initweight !21 !taffo.funinfo !23 noundef nonnull align 8 dereferenceable(8) %"class.std::basic_ostream"* @_ZNSolsEPFRSoS_E(%"class.std::basic_ostream"* noundef nonnull align 8 dereferenceable(8), %"class.std::basic_ostream"* (%"class.std::basic_ostream"*)* noundef) #4

; Function Attrs: nounwind
declare !taffo.initweight !118 !taffo.funinfo !119 void @_ZNSt7__cxx1112basic_stringIcSt11char_traitsIcESaIcEED1Ev(%"class.std::__cxx11::basic_string"* noundef nonnull align 8 dereferenceable(32)) unnamed_addr #2

; Function Attrs: nounwind
declare !taffo.initweight !21 !taffo.funinfo !23 i32 @clock_gettime(i32 noundef, %struct.timespec* noundef) #2

; Function Attrs: mustprogress noinline nounwind uwtable
define linkonce_odr dso_local void @_ZN12AxBenchTimer5resetEv(%class.AxBenchTimer* noundef nonnull align 8 dereferenceable(16) %0) #7 comdat align 2 !taffo.initweight !118 !taffo.funinfo !253 {
  %2 = getelementptr inbounds %class.AxBenchTimer, %class.AxBenchTimer* %0, i32 0, i32 0, !llfi_index !274
  %3 = call i32 @clock_gettime(i32 noundef 4, %struct.timespec* noundef %2) #10, !taffo.constinfo !120, !llfi_index !275
  ret void, !llfi_index !276
}

; Function Attrs: mustprogress noinline nounwind uwtable
define dso_local void @_Z12initRgbImageP8RgbImage(%struct.RgbImage* noundef %0) #7 !taffo.initweight !118 !taffo.equivalentChild !277 !taffo.funinfo !119 {
  %2 = getelementptr inbounds %struct.RgbImage, %struct.RgbImage* %0, i32 0, i32 0, !llfi_index !278
  store i32 0, i32* %2, align 8, !taffo.constinfo !111, !llfi_index !279
  %3 = getelementptr inbounds %struct.RgbImage, %struct.RgbImage* %0, i32 0, i32 1, !llfi_index !280
  store i32 0, i32* %3, align 4, !taffo.constinfo !111, !llfi_index !281
  %4 = getelementptr inbounds %struct.RgbImage, %struct.RgbImage* %0, i32 0, i32 2, !llfi_index !282
  store %struct.RgbPixel** null, %struct.RgbPixel*** %4, align 8, !taffo.constinfo !111, !llfi_index !283
  %5 = getelementptr inbounds %struct.RgbImage, %struct.RgbImage* %0, i32 0, i32 3, !llfi_index !284
  store i8* null, i8** %5, align 8, !taffo.constinfo !111, !llfi_index !285
  ret void, !llfi_index !286
}

; Function Attrs: mustprogress noinline uwtable
define dso_local noundef i32 @_Z8readCellP8_IO_FILEPc(%struct._IO_FILE* noundef %0, i8* noundef %1) #0 !taffo.initweight !21 !taffo.funinfo !287 {
  %3 = getelementptr inbounds i8, i8* %1, i64 0, !taffo.info !288, !llfi_index !290
  store i8 0, i8* %3, align 1, !taffo.constinfo !111, !llfi_index !291
  %4 = call i32 @fgetc(%struct._IO_FILE* noundef %0), !taffo.constinfo !111, !llfi_index !292
  br label %5, !llfi_index !293

5:                                                ; preds = %42, %2
  %.01 = phi i32 [ %4, %2 ], [ %43, %42 ], !taffo.info !294, !taffo.initweight !296, !llfi_index !297
  %.0 = phi i32 [ 0, %2 ], [ %.1, %42 ], !taffo.info !298, !llfi_index !300
  %6 = icmp ne i32 %.01, -1, !taffo.info !199, !taffo.initweight !25, !llfi_index !301
  br i1 %6, label %7, label %44, !taffo.info !294, !taffo.initweight !27, !llfi_index !302

7:                                                ; preds = %5
  %8 = icmp eq i32 %.01, 32, !taffo.info !298, !taffo.initweight !25, !llfi_index !303
  br i1 %8, label %11, label %9, !taffo.info !294, !taffo.initweight !27, !llfi_index !304

9:                                                ; preds = %7
  %10 = icmp eq i32 %.01, 9, !taffo.info !298, !taffo.initweight !25, !llfi_index !305
  br i1 %10, label %11, label %18, !taffo.info !294, !taffo.initweight !27, !llfi_index !306

11:                                               ; preds = %9, %7
  %12 = getelementptr inbounds i8, i8* %1, i64 0, !taffo.info !288, !llfi_index !307
  %13 = load i8, i8* %12, align 1, !taffo.info !0, !llfi_index !308
  %14 = sext i8 %13 to i32, !taffo.info !0, !llfi_index !309
  %15 = icmp ne i32 %14, 34, !taffo.info !199, !llfi_index !310
  br i1 %15, label %16, label %17, !llfi_index !311

16:                                               ; preds = %11
  br label %42, !llfi_index !312

17:                                               ; preds = %11
  br label %18, !llfi_index !313

18:                                               ; preds = %17, %9
  %19 = icmp eq i32 %.01, 44, !taffo.info !298, !taffo.initweight !25, !llfi_index !314
  br i1 %19, label %22, label %20, !taffo.info !294, !taffo.initweight !27, !llfi_index !315

20:                                               ; preds = %18
  %21 = icmp eq i32 %.01, 10, !taffo.info !298, !taffo.initweight !25, !llfi_index !316
  br i1 %21, label %22, label %37, !taffo.info !294, !taffo.initweight !27, !llfi_index !317

22:                                               ; preds = %20, %18
  %23 = getelementptr inbounds i8, i8* %1, i64 0, !taffo.info !288, !llfi_index !318
  %24 = load i8, i8* %23, align 1, !taffo.info !0, !llfi_index !319
  %25 = sext i8 %24 to i32, !taffo.info !0, !llfi_index !320
  %26 = icmp ne i32 %25, 34, !taffo.info !199, !llfi_index !321
  br i1 %26, label %27, label %28, !llfi_index !322

27:                                               ; preds = %22
  br label %44, !llfi_index !323

28:                                               ; preds = %22
  %29 = icmp eq i32 %.01, 34, !taffo.info !298, !taffo.initweight !25, !llfi_index !324
  br i1 %29, label %30, label %35, !taffo.info !294, !taffo.initweight !27, !llfi_index !325

30:                                               ; preds = %28
  %31 = trunc i32 %.01 to i8, !taffo.info !294, !taffo.initweight !25, !llfi_index !326
  %32 = sext i32 %.0 to i64, !taffo.info !0, !llfi_index !327
  %33 = getelementptr inbounds i8, i8* %1, i64 %32, !taffo.info !288, !llfi_index !328
  store i8 %31, i8* %33, align 1, !taffo.info !294, !taffo.initweight !27, !llfi_index !329
  %34 = add nsw i32 %.0, 1, !taffo.info !199, !taffo.constinfo !111, !llfi_index !330
  br label %44, !llfi_index !331

35:                                               ; preds = %28
  br label %36, !llfi_index !332

36:                                               ; preds = %35
  br label %37, !llfi_index !333

37:                                               ; preds = %36, %20
  %38 = trunc i32 %.01 to i8, !taffo.info !294, !taffo.initweight !25, !llfi_index !334
  %39 = sext i32 %.0 to i64, !taffo.info !0, !llfi_index !335
  %40 = getelementptr inbounds i8, i8* %1, i64 %39, !taffo.info !288, !llfi_index !336
  store i8 %38, i8* %40, align 1, !taffo.info !294, !taffo.initweight !27, !llfi_index !337
  %41 = add nsw i32 %.0, 1, !taffo.info !199, !taffo.constinfo !111, !llfi_index !338
  br label %42, !llfi_index !339

42:                                               ; preds = %37, %16
  %.1 = phi i32 [ %.0, %16 ], [ %41, %37 ], !taffo.info !298, !llfi_index !340
  %43 = call i32 @fgetc(%struct._IO_FILE* noundef %0), !taffo.constinfo !111, !llfi_index !341
  br label %5, !llvm.loop !342, !llfi_index !343

44:                                               ; preds = %30, %27, %5
  %.2 = phi i32 [ %.0, %27 ], [ %34, %30 ], [ %.0, %5 ], !taffo.info !298, !llfi_index !344
  %45 = sext i32 %.2 to i64, !taffo.info !298, !llfi_index !345
  %46 = getelementptr inbounds i8, i8* %1, i64 %45, !taffo.info !288, !llfi_index !346
  store i8 0, i8* %46, align 1, !taffo.constinfo !111, !llfi_index !347
  ret i32 %.01, !taffo.info !294, !taffo.initweight !25, !llfi_index !348
}

declare !taffo.initweight !118 !taffo.funinfo !119 i32 @fgetc(%struct._IO_FILE* noundef) #4

; Function Attrs: mustprogress noinline uwtable
define dso_local noundef i32 @_Z12loadRgbImagePKcP8RgbImagef(i8* noundef %0, %struct.RgbImage* noundef %1, float noundef %2) #0 !taffo.initweight !349 !taffo.equivalentChild !350 !taffo.funinfo !351 {
  %4 = fmul float 0x4170000000000000, %2, !taffo.info !24, !llfi_index !352
  %5 = fptoui float %4 to i32, !taffo.info !24, !llfi_index !353
  %6 = fmul float 0x4170000000000000, %2, !taffo.info !24, !llfi_index !354
  %7 = fptoui float %6 to i32, !taffo.info !24, !llfi_index !355
  %8 = fmul float 0x4170000000000000, %2, !taffo.info !24, !llfi_index !356
  %9 = fptoui float %8 to i32, !taffo.info !24, !llfi_index !357
  %10 = alloca [256 x i8], align 16, !llfi_index !358
  %11 = call noalias %struct._IO_FILE* @fopen(i8* noundef %0, i8* noundef getelementptr inbounds ([2 x i8], [2 x i8]* @.str.5.21, i64 0, i64 0)), !taffo.constinfo !120, !llfi_index !359
  %12 = icmp ne %struct._IO_FILE* %11, null, !llfi_index !360
  br i1 %12, label %15, label %13, !llfi_index !361

13:                                               ; preds = %3
  %14 = call i32 (i8*, ...) @printf(i8* noundef getelementptr inbounds ([32 x i8], [32 x i8]* @.str.6.22, i64 0, i64 0), i8* noundef %0), !taffo.constinfo !120, !llfi_index !362
  br label %161, !llfi_index !363

15:                                               ; preds = %3
  %16 = getelementptr inbounds [256 x i8], [256 x i8]* %10, i64 0, i64 0, !llfi_index !364
  %17 = call noundef i32 @_Z8readCellP8_IO_FILEPc(%struct._IO_FILE* noundef %11, i8* noundef %16), !taffo.constinfo !120, !llfi_index !365
  %18 = getelementptr inbounds [256 x i8], [256 x i8]* %10, i64 0, i64 0, !llfi_index !366
  %19 = call i32 @atoi(i8* noundef %18) #11, !taffo.constinfo !111, !llfi_index !367
  %20 = getelementptr inbounds %struct.RgbImage, %struct.RgbImage* %1, i32 0, i32 0, !taffo.info !24, !taffo.initweight !25, !llfi_index !368
  store i32 %19, i32* %20, align 8, !taffo.info !24, !llfi_index !369
  %21 = getelementptr inbounds [256 x i8], [256 x i8]* %10, i64 0, i64 0, !llfi_index !370
  %22 = call noundef i32 @_Z8readCellP8_IO_FILEPc(%struct._IO_FILE* noundef %11, i8* noundef %21), !taffo.constinfo !120, !llfi_index !371
  %23 = getelementptr inbounds [256 x i8], [256 x i8]* %10, i64 0, i64 0, !llfi_index !372
  %24 = call i32 @atoi(i8* noundef %23) #11, !taffo.constinfo !111, !llfi_index !373
  %25 = getelementptr inbounds %struct.RgbImage, %struct.RgbImage* %1, i32 0, i32 1, !taffo.info !24, !taffo.initweight !25, !llfi_index !374
  store i32 %24, i32* %25, align 4, !taffo.info !24, !llfi_index !375
  %26 = getelementptr inbounds %struct.RgbImage, %struct.RgbImage* %1, i32 0, i32 1, !taffo.info !24, !taffo.initweight !25, !llfi_index !376
  %27 = load i32, i32* %26, align 4, !taffo.info !24, !taffo.initweight !27, !llfi_index !377
  %28 = sext i32 %27 to i64, !taffo.info !24, !taffo.initweight !138, !llfi_index !378
  %29 = mul i64 %28, 8, !taffo.info !24, !taffo.initweight !150, !taffo.constinfo !111, !llfi_index !379
  %30 = call noalias i8* @malloc(i64 noundef %29) #12, !taffo.info !24, !taffo.initweight !380, !taffo.constinfo !111, !llfi_index !381
  %31 = bitcast i8* %30 to %struct.RgbPixel**, !taffo.structinfo !206, !taffo.initweight !382, !llfi_index !383
  %32 = icmp eq %struct.RgbPixel** %31, null, !taffo.info !24, !taffo.initweight !25, !llfi_index !384
  br i1 %32, label %33, label %36, !taffo.info !24, !taffo.initweight !27, !llfi_index !385

33:                                               ; preds = %15
  %34 = call i32 (i8*, ...) @printf(i8* noundef getelementptr inbounds ([55 x i8], [55 x i8]* @.str.7.23, i64 0, i64 0)), !taffo.constinfo !111, !llfi_index !386
  %35 = call i32 @fclose(%struct._IO_FILE* noundef %11), !taffo.constinfo !111, !llfi_index !387
  br label %161, !llfi_index !388

36:                                               ; preds = %15
  br label %37, !llfi_index !389

37:                                               ; preds = %53, %36
  %.02 = phi i32 [ 0, %36 ], [ %54, %53 ], !llfi_index !390
  %38 = getelementptr inbounds %struct.RgbImage, %struct.RgbImage* %1, i32 0, i32 1, !taffo.info !24, !taffo.initweight !25, !llfi_index !391
  %39 = load i32, i32* %38, align 4, !taffo.info !24, !taffo.initweight !27, !llfi_index !392
  %40 = icmp slt i32 %.02, %39, !taffo.info !24, !taffo.initweight !138, !llfi_index !393
  br i1 %40, label %41, label %55, !taffo.info !24, !taffo.initweight !150, !llfi_index !394

41:                                               ; preds = %37
  %42 = getelementptr inbounds %struct.RgbImage, %struct.RgbImage* %1, i32 0, i32 0, !taffo.info !24, !taffo.initweight !25, !llfi_index !395
  %43 = load i32, i32* %42, align 8, !taffo.info !24, !taffo.initweight !27, !llfi_index !396
  %44 = sext i32 %43 to i64, !taffo.info !24, !taffo.initweight !138, !llfi_index !397
  %45 = mul i64 %44, 20, !taffo.info !24, !taffo.initweight !150, !taffo.constinfo !111, !llfi_index !398
  %46 = call noalias i8* @malloc(i64 noundef %45) #12, !taffo.info !24, !taffo.initweight !380, !taffo.constinfo !111, !llfi_index !399
  %47 = bitcast i8* %46 to %struct.RgbPixel*, !taffo.structinfo !206, !taffo.initweight !382, !llfi_index !400
  %48 = sext i32 %.02 to i64, !llfi_index !401
  %.flt2 = getelementptr inbounds %struct.RgbPixel*, %struct.RgbPixel** %31, i64 %48, !taffo.structinfo !402, !taffo.initweight !25, !llfi_index !403
  store %struct.RgbPixel* %47, %struct.RgbPixel** %.flt2, align 8, !llfi_index !404
  %49 = sext i32 %.02 to i64, !llfi_index !405
  %.flt11 = getelementptr inbounds %struct.RgbPixel*, %struct.RgbPixel** %31, i64 %49, !taffo.structinfo !402, !taffo.initweight !25, !llfi_index !406
  %.flt22 = load %struct.RgbPixel*, %struct.RgbPixel** %.flt11, align 8, !taffo.structinfo !402, !taffo.initweight !27, !llfi_index !407
  %50 = icmp eq %struct.RgbPixel* %.flt22, null, !taffo.info !24, !taffo.initweight !138, !llfi_index !408
  br i1 %50, label %51, label %52, !taffo.info !24, !taffo.initweight !150, !llfi_index !409

51:                                               ; preds = %41
  br label %55, !llfi_index !410

52:                                               ; preds = %41
  br label %53, !llfi_index !411

53:                                               ; preds = %52
  %54 = add nsw i32 %.02, 1, !taffo.constinfo !111, !llfi_index !412
  br label %37, !llvm.loop !413, !llfi_index !414

55:                                               ; preds = %51, %37
  %.03 = phi i32 [ 1, %51 ], [ 0, %37 ], !llfi_index !415
  %56 = icmp eq i32 %.03, 1, !llfi_index !416
  br i1 %56, label %57, label %70, !llfi_index !417

57:                                               ; preds = %55
  %58 = call i32 (i8*, ...) @printf(i8* noundef getelementptr inbounds ([55 x i8], [55 x i8]* @.str.7.23, i64 0, i64 0)), !taffo.constinfo !111, !llfi_index !418
  %59 = add nsw i32 %.02, -1, !taffo.constinfo !111, !llfi_index !419
  br label %60, !llfi_index !420

60:                                               ; preds = %65, %57
  %.1 = phi i32 [ %59, %57 ], [ %66, %65 ], !llfi_index !421
  %61 = icmp sge i32 %.1, 0, !llfi_index !422
  br i1 %61, label %62, label %67, !llfi_index !423

62:                                               ; preds = %60
  %63 = sext i32 %.1 to i64, !llfi_index !424
  %.flt5 = getelementptr inbounds %struct.RgbPixel*, %struct.RgbPixel** %31, i64 %63, !taffo.structinfo !402, !taffo.initweight !25, !llfi_index !425
  %.flt17 = load %struct.RgbPixel*, %struct.RgbPixel** %.flt5, align 8, !taffo.structinfo !402, !taffo.initweight !27, !llfi_index !426
  %64 = bitcast %struct.RgbPixel* %.flt17 to i8*, !taffo.info !24, !taffo.initweight !138, !llfi_index !427
  call void @free(i8* noundef %64) #10, !taffo.info !24, !taffo.initweight !150, !taffo.constinfo !111, !llfi_index !428
  br label %65, !llfi_index !429

65:                                               ; preds = %62
  %66 = add nsw i32 %.1, -1, !taffo.constinfo !111, !llfi_index !430
  br label %60, !llvm.loop !431, !llfi_index !432

67:                                               ; preds = %60
  %68 = bitcast %struct.RgbPixel** %31 to i8*, !taffo.info !24, !taffo.initweight !25, !llfi_index !433
  call void @free(i8* noundef %68) #10, !taffo.info !24, !taffo.initweight !27, !taffo.constinfo !111, !llfi_index !434
  %69 = call i32 @fclose(%struct._IO_FILE* noundef %11), !taffo.constinfo !111, !llfi_index !435
  br label %161, !llfi_index !436

70:                                               ; preds = %55
  br label %71, !llfi_index !437

71:                                               ; preds = %129, %70
  %.2 = phi i32 [ 0, %70 ], [ %130, %129 ], !llfi_index !438
  %72 = getelementptr inbounds %struct.RgbImage, %struct.RgbImage* %1, i32 0, i32 1, !taffo.info !24, !taffo.initweight !25, !llfi_index !439
  %73 = load i32, i32* %72, align 4, !taffo.info !24, !taffo.initweight !27, !llfi_index !440
  %74 = icmp slt i32 %.2, %73, !taffo.info !24, !taffo.initweight !138, !llfi_index !441
  br i1 %74, label %75, label %131, !taffo.info !24, !taffo.initweight !150, !llfi_index !442

75:                                               ; preds = %71
  br label %76, !llfi_index !443

76:                                               ; preds = %126, %75
  %.01 = phi i32 [ 0, %75 ], [ %127, %126 ], !llfi_index !444
  %77 = getelementptr inbounds %struct.RgbImage, %struct.RgbImage* %1, i32 0, i32 0, !taffo.info !24, !taffo.initweight !25, !llfi_index !445
  %78 = load i32, i32* %77, align 8, !taffo.info !24, !taffo.initweight !27, !llfi_index !446
  %79 = icmp slt i32 %.01, %78, !taffo.info !24, !taffo.initweight !138, !llfi_index !447
  br i1 %79, label %80, label %128, !taffo.info !24, !taffo.initweight !150, !llfi_index !448

80:                                               ; preds = %76
  %81 = getelementptr inbounds [256 x i8], [256 x i8]* %10, i64 0, i64 0, !llfi_index !449
  %82 = call noundef i32 @_Z8readCellP8_IO_FILEPc(%struct._IO_FILE* noundef %11, i8* noundef %81), !taffo.constinfo !120, !llfi_index !450
  %83 = getelementptr inbounds [256 x i8], [256 x i8]* %10, i64 0, i64 0, !llfi_index !451
  %84 = call i32 @atoi(i8* noundef %83) #11, !taffo.constinfo !111, !llfi_index !452
  %u8_24fixp = shl i32 %84, 24, !taffo.info !453, !taffo.constinfo !111, !llfi_index !455
  %85 = zext i32 %u8_24fixp to i64, !taffo.info !453, !llfi_index !456
  %86 = shl i64 %85, 24, !taffo.info !453, !taffo.constinfo !111, !llfi_index !457
  %87 = zext i32 %9 to i64, !taffo.info !24, !llfi_index !458
  %88 = udiv i64 %86, %87, !taffo.info !459, !llfi_index !460
  %u8_24fixp15 = trunc i64 %88 to i32, !taffo.info !461, !llfi_index !462
  %89 = uitofp i32 %u8_24fixp15 to float, !taffo.info !461, !llfi_index !463
  %90 = fdiv float %89, 0x4170000000000000, !taffo.info !461, !llfi_index !464
  %91 = sext i32 %.2 to i64, !llfi_index !465
  %.flt1 = getelementptr inbounds %struct.RgbPixel*, %struct.RgbPixel** %31, i64 %91, !taffo.structinfo !402, !taffo.initweight !25, !llfi_index !466
  %.flt13 = load %struct.RgbPixel*, %struct.RgbPixel** %.flt1, align 8, !taffo.structinfo !402, !taffo.initweight !27, !llfi_index !467
  %92 = sext i32 %.01 to i64, !llfi_index !468
  %.flt24 = getelementptr inbounds %struct.RgbPixel, %struct.RgbPixel* %.flt13, i64 %92, !taffo.structinfo !402, !taffo.initweight !138, !llfi_index !469
  %93 = getelementptr inbounds %struct.RgbPixel, %struct.RgbPixel* %.flt24, i32 0, i32 0, !taffo.info !24, !taffo.initweight !150, !llfi_index !470
  store float %90, float* %93, align 4, !taffo.info !24, !llfi_index !471
  %94 = getelementptr inbounds [256 x i8], [256 x i8]* %10, i64 0, i64 0, !llfi_index !472
  %95 = call noundef i32 @_Z8readCellP8_IO_FILEPc(%struct._IO_FILE* noundef %11, i8* noundef %94), !taffo.constinfo !120, !llfi_index !473
  %96 = getelementptr inbounds [256 x i8], [256 x i8]* %10, i64 0, i64 0, !llfi_index !474
  %97 = call i32 @atoi(i8* noundef %96) #11, !taffo.constinfo !111, !llfi_index !475
  %u8_24fixp7 = shl i32 %97, 24, !taffo.info !453, !taffo.constinfo !111, !llfi_index !476
  %98 = zext i32 %u8_24fixp7 to i64, !taffo.info !453, !llfi_index !477
  %99 = shl i64 %98, 24, !taffo.info !453, !taffo.constinfo !111, !llfi_index !478
  %100 = zext i32 %5 to i64, !taffo.info !24, !llfi_index !479
  %101 = udiv i64 %99, %100, !taffo.info !459, !llfi_index !480
  %u8_24fixp19 = trunc i64 %101 to i32, !taffo.info !461, !llfi_index !481
  %102 = uitofp i32 %u8_24fixp19 to float, !taffo.info !461, !llfi_index !482
  %103 = fdiv float %102, 0x4170000000000000, !taffo.info !461, !llfi_index !483
  %104 = sext i32 %.2 to i64, !llfi_index !484
  %.flt4 = getelementptr inbounds %struct.RgbPixel*, %struct.RgbPixel** %31, i64 %104, !taffo.structinfo !402, !taffo.initweight !25, !llfi_index !485
  %.flt16 = load %struct.RgbPixel*, %struct.RgbPixel** %.flt4, align 8, !taffo.structinfo !402, !taffo.initweight !27, !llfi_index !486
  %105 = sext i32 %.01 to i64, !llfi_index !487
  %.flt25 = getelementptr inbounds %struct.RgbPixel, %struct.RgbPixel* %.flt16, i64 %105, !taffo.structinfo !402, !taffo.initweight !138, !llfi_index !488
  %106 = getelementptr inbounds %struct.RgbPixel, %struct.RgbPixel* %.flt25, i32 0, i32 1, !taffo.info !24, !taffo.initweight !150, !llfi_index !489
  store float %103, float* %106, align 4, !taffo.info !24, !llfi_index !490
  %107 = getelementptr inbounds [256 x i8], [256 x i8]* %10, i64 0, i64 0, !llfi_index !491
  %108 = call noundef i32 @_Z8readCellP8_IO_FILEPc(%struct._IO_FILE* noundef %11, i8* noundef %107), !taffo.constinfo !120, !llfi_index !492
  %109 = getelementptr inbounds [256 x i8], [256 x i8]* %10, i64 0, i64 0, !llfi_index !493
  %110 = call i32 @atoi(i8* noundef %109) #11, !taffo.constinfo !111, !llfi_index !494
  %u8_24fixp6 = shl i32 %110, 24, !taffo.info !453, !taffo.constinfo !111, !llfi_index !495
  %111 = zext i32 %u8_24fixp6 to i64, !taffo.info !453, !llfi_index !496
  %112 = shl i64 %111, 24, !taffo.info !453, !taffo.constinfo !111, !llfi_index !497
  %113 = zext i32 %7 to i64, !taffo.info !24, !llfi_index !498
  %114 = udiv i64 %112, %113, !taffo.info !459, !llfi_index !499
  %u8_24fixp18 = trunc i64 %114 to i32, !taffo.info !461, !llfi_index !500
  %115 = uitofp i32 %u8_24fixp18 to float, !taffo.info !461, !llfi_index !501
  %116 = fdiv float %115, 0x4170000000000000, !taffo.info !461, !llfi_index !502
  %117 = sext i32 %.2 to i64, !llfi_index !503
  %.flt = getelementptr inbounds %struct.RgbPixel*, %struct.RgbPixel** %31, i64 %117, !taffo.structinfo !402, !taffo.initweight !25, !llfi_index !504
  %.flt12 = load %struct.RgbPixel*, %struct.RgbPixel** %.flt, align 8, !taffo.structinfo !402, !taffo.initweight !27, !llfi_index !505
  %118 = sext i32 %.01 to i64, !llfi_index !506
  %.flt23 = getelementptr inbounds %struct.RgbPixel, %struct.RgbPixel* %.flt12, i64 %118, !taffo.structinfo !402, !taffo.initweight !138, !llfi_index !507
  %119 = getelementptr inbounds %struct.RgbPixel, %struct.RgbPixel* %.flt23, i32 0, i32 2, !taffo.info !24, !taffo.initweight !150, !llfi_index !508
  store float %116, float* %119, align 4, !taffo.info !24, !llfi_index !509
  %120 = sext i32 %.2 to i64, !llfi_index !510
  %.flt8 = getelementptr inbounds %struct.RgbPixel*, %struct.RgbPixel** %31, i64 %120, !taffo.structinfo !402, !taffo.initweight !25, !llfi_index !511
  %.flt20 = load %struct.RgbPixel*, %struct.RgbPixel** %.flt8, align 8, !taffo.structinfo !402, !taffo.initweight !27, !llfi_index !512
  %121 = sext i32 %.01 to i64, !llfi_index !513
  %.flt26 = getelementptr inbounds %struct.RgbPixel, %struct.RgbPixel* %.flt20, i64 %121, !taffo.structinfo !402, !taffo.initweight !138, !llfi_index !514
  %122 = getelementptr inbounds %struct.RgbPixel, %struct.RgbPixel* %.flt26, i32 0, i32 3, !taffo.info !24, !taffo.initweight !150, !llfi_index !515
  store i32 0, i32* %122, align 4, !taffo.info !24, !taffo.constinfo !111, !llfi_index !516
  %123 = sext i32 %.2 to i64, !llfi_index !517
  %.flt9 = getelementptr inbounds %struct.RgbPixel*, %struct.RgbPixel** %31, i64 %123, !taffo.structinfo !402, !taffo.initweight !25, !llfi_index !518
  %.flt21 = load %struct.RgbPixel*, %struct.RgbPixel** %.flt9, align 8, !taffo.structinfo !402, !taffo.initweight !27, !llfi_index !519
  %124 = sext i32 %.01 to i64, !llfi_index !520
  %.flt27 = getelementptr inbounds %struct.RgbPixel, %struct.RgbPixel* %.flt21, i64 %124, !taffo.structinfo !402, !taffo.initweight !138, !llfi_index !521
  %125 = getelementptr inbounds %struct.RgbPixel, %struct.RgbPixel* %.flt27, i32 0, i32 4, !taffo.info !24, !taffo.initweight !150, !llfi_index !522
  store float 0.000000e+00, float* %125, align 4, !taffo.info !24, !taffo.constinfo !523, !llfi_index !524
  br label %126, !llfi_index !525

126:                                              ; preds = %80
  %127 = add nsw i32 %.01, 1, !taffo.constinfo !111, !llfi_index !526
  br label %76, !llvm.loop !527, !llfi_index !528

128:                                              ; preds = %76
  br label %129, !llfi_index !529

129:                                              ; preds = %128
  %130 = add nsw i32 %.2, 1, !taffo.constinfo !111, !llfi_index !530
  br label %71, !llvm.loop !531, !llfi_index !532

131:                                              ; preds = %71
  %.flt10 = getelementptr inbounds %struct.RgbImage, %struct.RgbImage* %1, i32 0, i32 2, !taffo.structinfo !402, !taffo.initweight !25, !llfi_index !533
  store %struct.RgbPixel** %31, %struct.RgbPixel*** %.flt10, align 8, !llfi_index !534
  %132 = getelementptr inbounds [256 x i8], [256 x i8]* %10, i64 0, i64 0, !llfi_index !535
  %133 = call noundef i32 @_Z8readCellP8_IO_FILEPc(%struct._IO_FILE* noundef %11, i8* noundef %132), !taffo.constinfo !120, !llfi_index !536
  %134 = getelementptr inbounds [256 x i8], [256 x i8]* %10, i64 0, i64 0, !llfi_index !537
  %135 = call i64 @strlen(i8* noundef %134) #11, !taffo.constinfo !111, !llfi_index !538
  %136 = mul i64 %135, 1, !taffo.constinfo !111, !llfi_index !539
  %137 = call noalias i8* @malloc(i64 noundef %136) #12, !taffo.constinfo !111, !llfi_index !540
  %138 = getelementptr inbounds %struct.RgbImage, %struct.RgbImage* %1, i32 0, i32 3, !taffo.info !24, !taffo.initweight !25, !llfi_index !541
  store i8* %137, i8** %138, align 8, !taffo.info !24, !llfi_index !542
  %139 = getelementptr inbounds %struct.RgbImage, %struct.RgbImage* %1, i32 0, i32 3, !taffo.info !24, !taffo.initweight !25, !llfi_index !543
  %140 = load i8*, i8** %139, align 8, !taffo.info !24, !taffo.initweight !27, !llfi_index !544
  %141 = icmp eq i8* %140, null, !taffo.info !24, !taffo.initweight !138, !llfi_index !545
  br i1 %141, label %142, label %156, !taffo.info !24, !taffo.initweight !150, !llfi_index !546

142:                                              ; preds = %131
  %143 = call i32 (i8*, ...) @printf(i8* noundef getelementptr inbounds ([55 x i8], [55 x i8]* @.str.7.23, i64 0, i64 0)), !taffo.constinfo !111, !llfi_index !547
  br label %144, !llfi_index !548

144:                                              ; preds = %151, %142
  %.3 = phi i32 [ 0, %142 ], [ %152, %151 ], !llfi_index !549
  %145 = getelementptr inbounds %struct.RgbImage, %struct.RgbImage* %1, i32 0, i32 1, !taffo.info !24, !taffo.initweight !25, !llfi_index !550
  %146 = load i32, i32* %145, align 4, !taffo.info !24, !taffo.initweight !27, !llfi_index !551
  %147 = icmp slt i32 %.3, %146, !taffo.info !24, !taffo.initweight !138, !llfi_index !552
  br i1 %147, label %148, label %153, !taffo.info !24, !taffo.initweight !150, !llfi_index !553

148:                                              ; preds = %144
  %149 = sext i32 %.3 to i64, !llfi_index !554
  %.flt3 = getelementptr inbounds %struct.RgbPixel*, %struct.RgbPixel** %31, i64 %149, !taffo.structinfo !402, !taffo.initweight !25, !llfi_index !555
  %.flt14 = load %struct.RgbPixel*, %struct.RgbPixel** %.flt3, align 8, !taffo.structinfo !402, !taffo.initweight !27, !llfi_index !556
  %150 = bitcast %struct.RgbPixel* %.flt14 to i8*, !taffo.info !24, !taffo.initweight !138, !llfi_index !557
  call void @free(i8* noundef %150) #10, !taffo.info !24, !taffo.initweight !150, !taffo.constinfo !111, !llfi_index !558
  br label %151, !llfi_index !559

151:                                              ; preds = %148
  %152 = add nsw i32 %.3, 1, !taffo.constinfo !111, !llfi_index !560
  br label %144, !llvm.loop !561, !llfi_index !562

153:                                              ; preds = %144
  %154 = bitcast %struct.RgbPixel** %31 to i8*, !taffo.info !24, !taffo.initweight !25, !llfi_index !563
  call void @free(i8* noundef %154) #10, !taffo.info !24, !taffo.initweight !27, !taffo.constinfo !111, !llfi_index !564
  %155 = call i32 @fclose(%struct._IO_FILE* noundef %11), !taffo.constinfo !111, !llfi_index !565
  br label %161, !llfi_index !566

156:                                              ; preds = %131
  %157 = getelementptr inbounds %struct.RgbImage, %struct.RgbImage* %1, i32 0, i32 3, !taffo.info !24, !taffo.initweight !25, !llfi_index !567
  %158 = load i8*, i8** %157, align 8, !taffo.info !24, !taffo.initweight !27, !llfi_index !568
  %159 = getelementptr inbounds [256 x i8], [256 x i8]* %10, i64 0, i64 0, !llfi_index !569
  %160 = call i8* @strcpy(i8* noundef %158, i8* noundef %159) #10, !taffo.info !24, !taffo.initweight !138, !taffo.constinfo !120, !llfi_index !570
  br label %161, !llfi_index !571

161:                                              ; preds = %156, %153, %67, %33, %13
  %.0 = phi i32 [ 0, %33 ], [ 0, %67 ], [ 0, %153 ], [ 1, %156 ], [ 0, %13 ], !llfi_index !572
  ret i32 %.0, !llfi_index !573
}

declare !taffo.initweight !21 !taffo.funinfo !23 noalias %struct._IO_FILE* @fopen(i8* noundef, i8* noundef) #4

declare !taffo.initweight !118 !taffo.funinfo !119 i32 @printf(i8* noundef, ...) #4

; Function Attrs: nounwind readonly willreturn
declare !taffo.initweight !118 !taffo.funinfo !119 i32 @atoi(i8* noundef) #8

; Function Attrs: nounwind allocsize(0)
declare !taffo.initweight !118 !taffo.funinfo !119 noalias i8* @malloc(i64 noundef) #9

declare !taffo.initweight !118 !taffo.funinfo !119 i32 @fclose(%struct._IO_FILE* noundef) #4

; Function Attrs: nounwind
declare !taffo.initweight !118 !taffo.funinfo !119 void @free(i8* noundef) #2

; Function Attrs: nounwind readonly willreturn
declare !taffo.initweight !118 !taffo.funinfo !119 i64 @strlen(i8* noundef) #8

; Function Attrs: nounwind
declare !taffo.initweight !21 !taffo.funinfo !23 i8* @strcpy(i8* noundef, i8* noundef) #2

; Function Attrs: mustprogress noinline uwtable
define dso_local noundef i32 @_Z12saveRgbImageP8RgbImagePKcf(%struct.RgbImage* noundef %0, i8* noundef %1, float noundef %2) #0 !taffo.initweight !349 !taffo.equivalentChild !574 !taffo.funinfo !351 {
  %4 = call noalias %struct._IO_FILE* @fopen(i8* noundef %1, i8* noundef getelementptr inbounds ([2 x i8], [2 x i8]* @.str.9, i64 0, i64 0)), !taffo.constinfo !120, !llfi_index !575
  %5 = icmp ne %struct._IO_FILE* %4, null, !llfi_index !576
  br i1 %5, label %8, label %6, !llfi_index !577

6:                                                ; preds = %3
  %7 = call i32 (i8*, ...) @printf(i8* noundef getelementptr inbounds ([32 x i8], [32 x i8]* @.str.6.22, i64 0, i64 0), i8* noundef %1), !taffo.constinfo !120, !llfi_index !578
  br label %73, !llfi_index !579

8:                                                ; preds = %3
  %9 = getelementptr inbounds %struct.RgbImage, %struct.RgbImage* %0, i32 0, i32 0, !taffo.info !24, !taffo.initweight !25, !llfi_index !580
  %10 = load i32, i32* %9, align 8, !taffo.info !24, !taffo.initweight !27, !llfi_index !581
  %11 = getelementptr inbounds %struct.RgbImage, %struct.RgbImage* %0, i32 0, i32 1, !taffo.info !24, !taffo.initweight !25, !llfi_index !582
  %12 = load i32, i32* %11, align 4, !taffo.info !24, !taffo.initweight !27, !llfi_index !583
  %13 = call i32 (%struct._IO_FILE*, i8*, ...) @fprintf(%struct._IO_FILE* noundef %4, i8* noundef getelementptr inbounds ([7 x i8], [7 x i8]* @.str.10, i64 0, i64 0), i32 noundef %10, i32 noundef %12), !taffo.info !24, !taffo.initweight !138, !taffo.constinfo !206, !llfi_index !584
  br label %14, !llfi_index !585

14:                                               ; preds = %66, %8
  %.02 = phi i32 [ 0, %8 ], [ %67, %66 ], !llfi_index !586
  %15 = getelementptr inbounds %struct.RgbImage, %struct.RgbImage* %0, i32 0, i32 1, !taffo.info !24, !taffo.initweight !25, !llfi_index !587
  %16 = load i32, i32* %15, align 4, !taffo.info !24, !taffo.initweight !27, !llfi_index !588
  %17 = icmp slt i32 %.02, %16, !taffo.info !24, !taffo.initweight !138, !llfi_index !589
  br i1 %17, label %18, label %68, !taffo.info !24, !taffo.initweight !150, !llfi_index !590

18:                                               ; preds = %14
  br label %19, !llfi_index !591

19:                                               ; preds = %44, %18
  %.01 = phi i32 [ 0, %18 ], [ %45, %44 ], !llfi_index !592
  %20 = getelementptr inbounds %struct.RgbImage, %struct.RgbImage* %0, i32 0, i32 0, !taffo.info !24, !taffo.initweight !25, !llfi_index !593
  %21 = load i32, i32* %20, align 8, !taffo.info !24, !taffo.initweight !27, !llfi_index !594
  %22 = sub nsw i32 %21, 1, !taffo.info !24, !taffo.initweight !138, !taffo.constinfo !111, !llfi_index !595
  %23 = icmp slt i32 %.01, %22, !taffo.info !24, !taffo.initweight !150, !llfi_index !596
  br i1 %23, label %24, label %46, !taffo.info !24, !taffo.initweight !380, !llfi_index !597

24:                                               ; preds = %19
  %.flt = getelementptr inbounds %struct.RgbImage, %struct.RgbImage* %0, i32 0, i32 2, !taffo.structinfo !402, !taffo.initweight !25, !llfi_index !598
  %.flt6 = load %struct.RgbPixel**, %struct.RgbPixel*** %.flt, align 8, !taffo.structinfo !402, !taffo.initweight !27, !llfi_index !599
  %25 = sext i32 %.02 to i64, !llfi_index !600
  %.flt12 = getelementptr inbounds %struct.RgbPixel*, %struct.RgbPixel** %.flt6, i64 %25, !taffo.structinfo !402, !taffo.initweight !138, !llfi_index !601
  %.flt18 = load %struct.RgbPixel*, %struct.RgbPixel** %.flt12, align 8, !taffo.structinfo !402, !taffo.initweight !150, !llfi_index !602
  %26 = sext i32 %.01 to i64, !llfi_index !603
  %.flt24 = getelementptr inbounds %struct.RgbPixel, %struct.RgbPixel* %.flt18, i64 %26, !taffo.structinfo !402, !taffo.initweight !380, !llfi_index !604
  %27 = getelementptr inbounds %struct.RgbPixel, %struct.RgbPixel* %.flt24, i32 0, i32 0, !taffo.info !24, !taffo.initweight !382, !llfi_index !605
  %28 = load float, float* %27, align 4, !taffo.info !24, !taffo.initweight !606, !llfi_index !607
  %29 = fmul float %28, %2, !taffo.info !24, !taffo.initweight !25, !llfi_index !608
  %30 = fptosi float %29 to i32, !taffo.info !24, !taffo.initweight !27, !llfi_index !609
  %.flt2 = getelementptr inbounds %struct.RgbImage, %struct.RgbImage* %0, i32 0, i32 2, !taffo.structinfo !402, !taffo.initweight !25, !llfi_index !610
  %.flt8 = load %struct.RgbPixel**, %struct.RgbPixel*** %.flt2, align 8, !taffo.structinfo !402, !taffo.initweight !27, !llfi_index !611
  %31 = sext i32 %.02 to i64, !llfi_index !612
  %.flt14 = getelementptr inbounds %struct.RgbPixel*, %struct.RgbPixel** %.flt8, i64 %31, !taffo.structinfo !402, !taffo.initweight !138, !llfi_index !613
  %.flt20 = load %struct.RgbPixel*, %struct.RgbPixel** %.flt14, align 8, !taffo.structinfo !402, !taffo.initweight !150, !llfi_index !614
  %32 = sext i32 %.01 to i64, !llfi_index !615
  %.flt26 = getelementptr inbounds %struct.RgbPixel, %struct.RgbPixel* %.flt20, i64 %32, !taffo.structinfo !402, !taffo.initweight !380, !llfi_index !616
  %33 = getelementptr inbounds %struct.RgbPixel, %struct.RgbPixel* %.flt26, i32 0, i32 1, !taffo.info !24, !taffo.initweight !382, !llfi_index !617
  %34 = load float, float* %33, align 4, !taffo.info !24, !taffo.initweight !606, !llfi_index !618
  %35 = fmul float %34, %2, !taffo.info !24, !taffo.initweight !25, !llfi_index !619
  %36 = fptosi float %35 to i32, !taffo.info !24, !taffo.initweight !27, !llfi_index !620
  %.flt5 = getelementptr inbounds %struct.RgbImage, %struct.RgbImage* %0, i32 0, i32 2, !taffo.structinfo !402, !taffo.initweight !25, !llfi_index !621
  %.flt11 = load %struct.RgbPixel**, %struct.RgbPixel*** %.flt5, align 8, !taffo.structinfo !402, !taffo.initweight !27, !llfi_index !622
  %37 = sext i32 %.02 to i64, !llfi_index !623
  %.flt17 = getelementptr inbounds %struct.RgbPixel*, %struct.RgbPixel** %.flt11, i64 %37, !taffo.structinfo !402, !taffo.initweight !138, !llfi_index !624
  %.flt23 = load %struct.RgbPixel*, %struct.RgbPixel** %.flt17, align 8, !taffo.structinfo !402, !taffo.initweight !150, !llfi_index !625
  %38 = sext i32 %.01 to i64, !llfi_index !626
  %.flt29 = getelementptr inbounds %struct.RgbPixel, %struct.RgbPixel* %.flt23, i64 %38, !taffo.structinfo !402, !taffo.initweight !380, !llfi_index !627
  %39 = getelementptr inbounds %struct.RgbPixel, %struct.RgbPixel* %.flt29, i32 0, i32 2, !taffo.info !24, !taffo.initweight !382, !llfi_index !628
  %40 = load float, float* %39, align 4, !taffo.info !24, !taffo.initweight !606, !llfi_index !629
  %41 = fmul float %40, %2, !taffo.info !24, !taffo.initweight !25, !llfi_index !630
  %42 = fptosi float %41 to i32, !taffo.info !24, !taffo.initweight !27, !llfi_index !631
  %43 = call i32 (%struct._IO_FILE*, i8*, ...) @fprintf(%struct._IO_FILE* noundef %4, i8* noundef getelementptr inbounds ([10 x i8], [10 x i8]* @.str.11, i64 0, i64 0), i32 noundef %30, i32 noundef %36, i32 noundef %42), !taffo.info !24, !taffo.initweight !138, !taffo.constinfo !184, !llfi_index !632
  br label %44, !llfi_index !633

44:                                               ; preds = %24
  %45 = add nsw i32 %.01, 1, !taffo.constinfo !111, !llfi_index !634
  br label %19, !llvm.loop !635, !llfi_index !636

46:                                               ; preds = %19
  %.flt1 = getelementptr inbounds %struct.RgbImage, %struct.RgbImage* %0, i32 0, i32 2, !taffo.structinfo !402, !taffo.initweight !25, !llfi_index !637
  %.flt7 = load %struct.RgbPixel**, %struct.RgbPixel*** %.flt1, align 8, !taffo.structinfo !402, !taffo.initweight !27, !llfi_index !638
  %47 = sext i32 %.02 to i64, !llfi_index !639
  %.flt13 = getelementptr inbounds %struct.RgbPixel*, %struct.RgbPixel** %.flt7, i64 %47, !taffo.structinfo !402, !taffo.initweight !138, !llfi_index !640
  %.flt19 = load %struct.RgbPixel*, %struct.RgbPixel** %.flt13, align 8, !taffo.structinfo !402, !taffo.initweight !150, !llfi_index !641
  %48 = sext i32 %.01 to i64, !llfi_index !642
  %.flt25 = getelementptr inbounds %struct.RgbPixel, %struct.RgbPixel* %.flt19, i64 %48, !taffo.structinfo !402, !taffo.initweight !380, !llfi_index !643
  %49 = getelementptr inbounds %struct.RgbPixel, %struct.RgbPixel* %.flt25, i32 0, i32 0, !taffo.info !24, !taffo.initweight !382, !llfi_index !644
  %50 = load float, float* %49, align 4, !taffo.info !24, !taffo.initweight !606, !llfi_index !645
  %51 = fmul float %50, %2, !taffo.info !24, !taffo.initweight !25, !llfi_index !646
  %52 = fptosi float %51 to i32, !taffo.info !24, !taffo.initweight !27, !llfi_index !647
  %.flt4 = getelementptr inbounds %struct.RgbImage, %struct.RgbImage* %0, i32 0, i32 2, !taffo.structinfo !402, !taffo.initweight !25, !llfi_index !648
  %.flt10 = load %struct.RgbPixel**, %struct.RgbPixel*** %.flt4, align 8, !taffo.structinfo !402, !taffo.initweight !27, !llfi_index !649
  %53 = sext i32 %.02 to i64, !llfi_index !650
  %.flt16 = getelementptr inbounds %struct.RgbPixel*, %struct.RgbPixel** %.flt10, i64 %53, !taffo.structinfo !402, !taffo.initweight !138, !llfi_index !651
  %.flt22 = load %struct.RgbPixel*, %struct.RgbPixel** %.flt16, align 8, !taffo.structinfo !402, !taffo.initweight !150, !llfi_index !652
  %54 = sext i32 %.01 to i64, !llfi_index !653
  %.flt28 = getelementptr inbounds %struct.RgbPixel, %struct.RgbPixel* %.flt22, i64 %54, !taffo.structinfo !402, !taffo.initweight !380, !llfi_index !654
  %55 = getelementptr inbounds %struct.RgbPixel, %struct.RgbPixel* %.flt28, i32 0, i32 1, !taffo.info !24, !taffo.initweight !382, !llfi_index !655
  %56 = load float, float* %55, align 4, !taffo.info !24, !taffo.initweight !606, !llfi_index !656
  %57 = fmul float %56, %2, !taffo.info !24, !taffo.initweight !25, !llfi_index !657
  %58 = fptosi float %57 to i32, !taffo.info !24, !taffo.initweight !27, !llfi_index !658
  %.flt3 = getelementptr inbounds %struct.RgbImage, %struct.RgbImage* %0, i32 0, i32 2, !taffo.structinfo !402, !taffo.initweight !25, !llfi_index !659
  %.flt9 = load %struct.RgbPixel**, %struct.RgbPixel*** %.flt3, align 8, !taffo.structinfo !402, !taffo.initweight !27, !llfi_index !660
  %59 = sext i32 %.02 to i64, !llfi_index !661
  %.flt15 = getelementptr inbounds %struct.RgbPixel*, %struct.RgbPixel** %.flt9, i64 %59, !taffo.structinfo !402, !taffo.initweight !138, !llfi_index !662
  %.flt21 = load %struct.RgbPixel*, %struct.RgbPixel** %.flt15, align 8, !taffo.structinfo !402, !taffo.initweight !150, !llfi_index !663
  %60 = sext i32 %.01 to i64, !llfi_index !664
  %.flt27 = getelementptr inbounds %struct.RgbPixel, %struct.RgbPixel* %.flt21, i64 %60, !taffo.structinfo !402, !taffo.initweight !380, !llfi_index !665
  %61 = getelementptr inbounds %struct.RgbPixel, %struct.RgbPixel* %.flt27, i32 0, i32 2, !taffo.info !24, !taffo.initweight !382, !llfi_index !666
  %62 = load float, float* %61, align 4, !taffo.info !24, !taffo.initweight !606, !llfi_index !667
  %63 = fmul float %62, %2, !taffo.info !24, !taffo.initweight !25, !llfi_index !668
  %64 = fptosi float %63 to i32, !taffo.info !24, !taffo.initweight !27, !llfi_index !669
  %65 = call i32 (%struct._IO_FILE*, i8*, ...) @fprintf(%struct._IO_FILE* noundef %4, i8* noundef getelementptr inbounds ([10 x i8], [10 x i8]* @.str.12, i64 0, i64 0), i32 noundef %52, i32 noundef %58, i32 noundef %64), !taffo.info !24, !taffo.initweight !138, !taffo.constinfo !184, !llfi_index !670
  br label %66, !llfi_index !671

66:                                               ; preds = %46
  %67 = add nsw i32 %.02, 1, !taffo.constinfo !111, !llfi_index !672
  br label %14, !llvm.loop !673, !llfi_index !674

68:                                               ; preds = %14
  %69 = getelementptr inbounds %struct.RgbImage, %struct.RgbImage* %0, i32 0, i32 3, !taffo.info !24, !taffo.initweight !25, !llfi_index !675
  %70 = load i8*, i8** %69, align 8, !taffo.info !24, !taffo.initweight !27, !llfi_index !676
  %71 = call i32 (%struct._IO_FILE*, i8*, ...) @fprintf(%struct._IO_FILE* noundef %4, i8* noundef getelementptr inbounds ([3 x i8], [3 x i8]* @.str.13, i64 0, i64 0), i8* noundef %70), !taffo.info !24, !taffo.initweight !138, !taffo.constinfo !202, !llfi_index !677
  %72 = call i32 @fclose(%struct._IO_FILE* noundef %4), !taffo.constinfo !111, !llfi_index !678
  br label %73, !llfi_index !679

73:                                               ; preds = %68, %6
  %.0 = phi i32 [ 1, %68 ], [ 0, %6 ], !llfi_index !680
  ret i32 %.0, !llfi_index !681
}

declare !taffo.initweight !21 !taffo.funinfo !23 i32 @fprintf(%struct._IO_FILE* noundef, i8* noundef, ...) #4

; Function Attrs: mustprogress noinline nounwind uwtable
define dso_local void @_Z12freeRgbImageP8RgbImage(%struct.RgbImage* noundef %0) #7 !taffo.initweight !118 !taffo.equivalentChild !682 !taffo.funinfo !119 {
  %2 = getelementptr inbounds %struct.RgbImage, %struct.RgbImage* %0, i32 0, i32 3, !llfi_index !683
  %3 = load i8*, i8** %2, align 8, !llfi_index !684
  %4 = icmp ne i8* %3, null, !llfi_index !685
  br i1 %4, label %5, label %8, !llfi_index !686

5:                                                ; preds = %1
  %6 = getelementptr inbounds %struct.RgbImage, %struct.RgbImage* %0, i32 0, i32 3, !llfi_index !687
  %7 = load i8*, i8** %6, align 8, !llfi_index !688
  call void @free(i8* noundef %7) #10, !taffo.constinfo !111, !llfi_index !689
  br label %8, !llfi_index !690

8:                                                ; preds = %5, %1
  %9 = getelementptr inbounds %struct.RgbImage, %struct.RgbImage* %0, i32 0, i32 2, !llfi_index !691
  %10 = load %struct.RgbPixel**, %struct.RgbPixel*** %9, align 8, !llfi_index !692
  %11 = icmp eq %struct.RgbPixel** %10, null, !llfi_index !693
  br i1 %11, label %12, label %13, !llfi_index !694

12:                                               ; preds = %8
  br label %36, !llfi_index !695

13:                                               ; preds = %8
  br label %14, !llfi_index !696

14:                                               ; preds = %30, %13
  %.0 = phi i32 [ 0, %13 ], [ %31, %30 ], !llfi_index !697
  %15 = getelementptr inbounds %struct.RgbImage, %struct.RgbImage* %0, i32 0, i32 1, !llfi_index !698
  %16 = load i32, i32* %15, align 4, !llfi_index !699
  %17 = icmp slt i32 %.0, %16, !llfi_index !700
  br i1 %17, label %18, label %32, !llfi_index !701

18:                                               ; preds = %14
  %19 = getelementptr inbounds %struct.RgbImage, %struct.RgbImage* %0, i32 0, i32 2, !llfi_index !702
  %20 = load %struct.RgbPixel**, %struct.RgbPixel*** %19, align 8, !llfi_index !703
  %21 = icmp ne %struct.RgbPixel** %20, null, !llfi_index !704
  br i1 %21, label %22, label %29, !llfi_index !705

22:                                               ; preds = %18
  %23 = getelementptr inbounds %struct.RgbImage, %struct.RgbImage* %0, i32 0, i32 2, !llfi_index !706
  %24 = load %struct.RgbPixel**, %struct.RgbPixel*** %23, align 8, !llfi_index !707
  %25 = sext i32 %.0 to i64, !llfi_index !708
  %26 = getelementptr inbounds %struct.RgbPixel*, %struct.RgbPixel** %24, i64 %25, !llfi_index !709
  %27 = load %struct.RgbPixel*, %struct.RgbPixel** %26, align 8, !llfi_index !710
  %28 = bitcast %struct.RgbPixel* %27 to i8*, !llfi_index !711
  call void @free(i8* noundef %28) #10, !taffo.constinfo !111, !llfi_index !712
  br label %29, !llfi_index !713

29:                                               ; preds = %22, %18
  br label %30, !llfi_index !714

30:                                               ; preds = %29
  %31 = add nsw i32 %.0, 1, !taffo.constinfo !111, !llfi_index !715
  br label %14, !llvm.loop !716, !llfi_index !717

32:                                               ; preds = %14
  %33 = getelementptr inbounds %struct.RgbImage, %struct.RgbImage* %0, i32 0, i32 2, !llfi_index !718
  %34 = load %struct.RgbPixel**, %struct.RgbPixel*** %33, align 8, !llfi_index !719
  %35 = bitcast %struct.RgbPixel** %34 to i8*, !llfi_index !720
  call void @free(i8* noundef %35) #10, !taffo.constinfo !111, !llfi_index !721
  br label %36, !llfi_index !722

36:                                               ; preds = %32, %12
  ret void, !llfi_index !723
}

; Function Attrs: mustprogress noinline nounwind uwtable
define dso_local void @_Z13makeGrayscaleP8RgbImage(%struct.RgbImage* noundef %0) #7 !taffo.initweight !118 !taffo.funinfo !119 {
  br label %2, !llfi_index !724

2:                                                ; preds = %45, %1
  %.01 = phi i32 [ 0, %1 ], [ %46, %45 ], !llfi_index !725
  %3 = getelementptr inbounds %struct.RgbImage, %struct.RgbImage* %0, i32 0, i32 1, !taffo.info !24, !taffo.initweight !25, !llfi_index !726
  %4 = load i32, i32* %3, align 4, !taffo.info !24, !taffo.initweight !27, !llfi_index !727
  %5 = icmp slt i32 %.01, %4, !taffo.info !24, !taffo.initweight !138, !llfi_index !728
  br i1 %5, label %6, label %47, !taffo.info !24, !taffo.initweight !150, !llfi_index !729

6:                                                ; preds = %2
  br label %7, !llfi_index !730

7:                                                ; preds = %42, %6
  %.0 = phi i32 [ 0, %6 ], [ %43, %42 ], !llfi_index !731
  %8 = getelementptr inbounds %struct.RgbImage, %struct.RgbImage* %0, i32 0, i32 0, !taffo.info !24, !taffo.initweight !25, !llfi_index !732
  %9 = load i32, i32* %8, align 8, !taffo.info !24, !taffo.initweight !27, !llfi_index !733
  %10 = icmp slt i32 %.0, %9, !taffo.info !24, !taffo.initweight !138, !llfi_index !734
  br i1 %10, label %11, label %44, !taffo.info !24, !taffo.initweight !150, !llfi_index !735

11:                                               ; preds = %7
  %.flt3 = getelementptr inbounds %struct.RgbImage, %struct.RgbImage* %0, i32 0, i32 2, !taffo.structinfo !402, !taffo.initweight !25, !llfi_index !736
  %.flt9 = load %struct.RgbPixel**, %struct.RgbPixel*** %.flt3, align 8, !taffo.structinfo !402, !taffo.initweight !27, !llfi_index !737
  %12 = sext i32 %.01 to i64, !llfi_index !738
  %.flt15 = getelementptr inbounds %struct.RgbPixel*, %struct.RgbPixel** %.flt9, i64 %12, !taffo.structinfo !402, !taffo.initweight !138, !llfi_index !739
  %.flt21 = load %struct.RgbPixel*, %struct.RgbPixel** %.flt15, align 8, !taffo.structinfo !402, !taffo.initweight !150, !llfi_index !740
  %13 = sext i32 %.0 to i64, !llfi_index !741
  %.flt27 = getelementptr inbounds %struct.RgbPixel, %struct.RgbPixel* %.flt21, i64 %13, !taffo.structinfo !402, !taffo.initweight !380, !llfi_index !742
  %14 = getelementptr inbounds %struct.RgbPixel, %struct.RgbPixel* %.flt27, i32 0, i32 0, !taffo.info !24, !taffo.initweight !382, !llfi_index !743
  %15 = load float, float* %14, align 4, !taffo.info !24, !taffo.initweight !606, !llfi_index !744
  %.flt5 = getelementptr inbounds %struct.RgbImage, %struct.RgbImage* %0, i32 0, i32 2, !taffo.structinfo !402, !taffo.initweight !25, !llfi_index !745
  %.flt11 = load %struct.RgbPixel**, %struct.RgbPixel*** %.flt5, align 8, !taffo.structinfo !402, !taffo.initweight !27, !llfi_index !746
  %16 = sext i32 %.01 to i64, !llfi_index !747
  %.flt17 = getelementptr inbounds %struct.RgbPixel*, %struct.RgbPixel** %.flt11, i64 %16, !taffo.structinfo !402, !taffo.initweight !138, !llfi_index !748
  %.flt23 = load %struct.RgbPixel*, %struct.RgbPixel** %.flt17, align 8, !taffo.structinfo !402, !taffo.initweight !150, !llfi_index !749
  %17 = sext i32 %.0 to i64, !llfi_index !750
  %.flt29 = getelementptr inbounds %struct.RgbPixel, %struct.RgbPixel* %.flt23, i64 %17, !taffo.structinfo !402, !taffo.initweight !380, !llfi_index !751
  %18 = getelementptr inbounds %struct.RgbPixel, %struct.RgbPixel* %.flt29, i32 0, i32 1, !taffo.info !24, !taffo.initweight !382, !llfi_index !752
  %19 = load float, float* %18, align 4, !taffo.info !24, !taffo.initweight !606, !llfi_index !753
  %20 = fmul float 0x3FE2E147A0000000, %19, !taffo.info !24, !taffo.initweight !25, !taffo.constinfo !754, !llfi_index !757
  %21 = call float @llvm.fmuladd.f32(float 0x3FD3333340000000, float %15, float %20), !taffo.info !24, !taffo.initweight !25, !taffo.constinfo !758, !llfi_index !761
  %.flt2 = getelementptr inbounds %struct.RgbImage, %struct.RgbImage* %0, i32 0, i32 2, !taffo.structinfo !402, !taffo.initweight !25, !llfi_index !762
  %.flt8 = load %struct.RgbPixel**, %struct.RgbPixel*** %.flt2, align 8, !taffo.structinfo !402, !taffo.initweight !27, !llfi_index !763
  %22 = sext i32 %.01 to i64, !llfi_index !764
  %.flt14 = getelementptr inbounds %struct.RgbPixel*, %struct.RgbPixel** %.flt8, i64 %22, !taffo.structinfo !402, !taffo.initweight !138, !llfi_index !765
  %.flt20 = load %struct.RgbPixel*, %struct.RgbPixel** %.flt14, align 8, !taffo.structinfo !402, !taffo.initweight !150, !llfi_index !766
  %23 = sext i32 %.0 to i64, !llfi_index !767
  %.flt26 = getelementptr inbounds %struct.RgbPixel, %struct.RgbPixel* %.flt20, i64 %23, !taffo.structinfo !402, !taffo.initweight !380, !llfi_index !768
  %24 = getelementptr inbounds %struct.RgbPixel, %struct.RgbPixel* %.flt26, i32 0, i32 2, !taffo.info !24, !taffo.initweight !382, !llfi_index !769
  %25 = load float, float* %24, align 4, !taffo.info !24, !taffo.initweight !606, !llfi_index !770
  %26 = call float @llvm.fmuladd.f32(float 0x3FBC28F5C0000000, float %25, float %21), !taffo.info !24, !taffo.initweight !25, !taffo.constinfo !771, !llfi_index !774
  %27 = fptoui float %26 to i8, !taffo.info !24, !taffo.initweight !25, !llfi_index !775
  %28 = uitofp i8 %27 to float, !taffo.info !24, !taffo.initweight !27, !llfi_index !776
  %.flt4 = getelementptr inbounds %struct.RgbImage, %struct.RgbImage* %0, i32 0, i32 2, !taffo.structinfo !402, !taffo.initweight !25, !llfi_index !777
  %.flt10 = load %struct.RgbPixel**, %struct.RgbPixel*** %.flt4, align 8, !taffo.structinfo !402, !taffo.initweight !27, !llfi_index !778
  %29 = sext i32 %.01 to i64, !llfi_index !779
  %.flt16 = getelementptr inbounds %struct.RgbPixel*, %struct.RgbPixel** %.flt10, i64 %29, !taffo.structinfo !402, !taffo.initweight !138, !llfi_index !780
  %.flt22 = load %struct.RgbPixel*, %struct.RgbPixel** %.flt16, align 8, !taffo.structinfo !402, !taffo.initweight !150, !llfi_index !781
  %30 = sext i32 %.0 to i64, !llfi_index !782
  %.flt28 = getelementptr inbounds %struct.RgbPixel, %struct.RgbPixel* %.flt22, i64 %30, !taffo.structinfo !402, !taffo.initweight !380, !llfi_index !783
  %31 = getelementptr inbounds %struct.RgbPixel, %struct.RgbPixel* %.flt28, i32 0, i32 0, !taffo.info !24, !taffo.initweight !382, !llfi_index !784
  store float %28, float* %31, align 4, !taffo.info !24, !llfi_index !785
  %32 = fptoui float %26 to i8, !taffo.info !24, !taffo.initweight !25, !llfi_index !786
  %33 = uitofp i8 %32 to float, !taffo.info !24, !taffo.initweight !27, !llfi_index !787
  %.flt1 = getelementptr inbounds %struct.RgbImage, %struct.RgbImage* %0, i32 0, i32 2, !taffo.structinfo !402, !taffo.initweight !25, !llfi_index !788
  %.flt7 = load %struct.RgbPixel**, %struct.RgbPixel*** %.flt1, align 8, !taffo.structinfo !402, !taffo.initweight !27, !llfi_index !789
  %34 = sext i32 %.01 to i64, !llfi_index !790
  %.flt13 = getelementptr inbounds %struct.RgbPixel*, %struct.RgbPixel** %.flt7, i64 %34, !taffo.structinfo !402, !taffo.initweight !138, !llfi_index !791
  %.flt19 = load %struct.RgbPixel*, %struct.RgbPixel** %.flt13, align 8, !taffo.structinfo !402, !taffo.initweight !150, !llfi_index !792
  %35 = sext i32 %.0 to i64, !llfi_index !793
  %.flt25 = getelementptr inbounds %struct.RgbPixel, %struct.RgbPixel* %.flt19, i64 %35, !taffo.structinfo !402, !taffo.initweight !380, !llfi_index !794
  %36 = getelementptr inbounds %struct.RgbPixel, %struct.RgbPixel* %.flt25, i32 0, i32 1, !taffo.info !24, !taffo.initweight !382, !llfi_index !795
  store float %33, float* %36, align 4, !taffo.info !24, !llfi_index !796
  %37 = fptoui float %26 to i8, !taffo.info !24, !taffo.initweight !25, !llfi_index !797
  %38 = uitofp i8 %37 to float, !taffo.info !24, !taffo.initweight !27, !llfi_index !798
  %.flt = getelementptr inbounds %struct.RgbImage, %struct.RgbImage* %0, i32 0, i32 2, !taffo.structinfo !402, !taffo.initweight !25, !llfi_index !799
  %.flt6 = load %struct.RgbPixel**, %struct.RgbPixel*** %.flt, align 8, !taffo.structinfo !402, !taffo.initweight !27, !llfi_index !800
  %39 = sext i32 %.01 to i64, !llfi_index !801
  %.flt12 = getelementptr inbounds %struct.RgbPixel*, %struct.RgbPixel** %.flt6, i64 %39, !taffo.structinfo !402, !taffo.initweight !138, !llfi_index !802
  %.flt18 = load %struct.RgbPixel*, %struct.RgbPixel** %.flt12, align 8, !taffo.structinfo !402, !taffo.initweight !150, !llfi_index !803
  %40 = sext i32 %.0 to i64, !llfi_index !804
  %.flt24 = getelementptr inbounds %struct.RgbPixel, %struct.RgbPixel* %.flt18, i64 %40, !taffo.structinfo !402, !taffo.initweight !380, !llfi_index !805
  %41 = getelementptr inbounds %struct.RgbPixel, %struct.RgbPixel* %.flt24, i32 0, i32 2, !taffo.info !24, !taffo.initweight !382, !llfi_index !806
  store float %38, float* %41, align 4, !taffo.info !24, !llfi_index !807
  br label %42, !llfi_index !808

42:                                               ; preds = %11
  %43 = add nsw i32 %.0, 1, !taffo.constinfo !111, !llfi_index !809
  br label %7, !llvm.loop !810, !llfi_index !811

44:                                               ; preds = %7
  br label %45, !llfi_index !812

45:                                               ; preds = %44
  %46 = add nsw i32 %.01, 1, !taffo.constinfo !111, !llfi_index !813
  br label %2, !llvm.loop !814, !llfi_index !815

47:                                               ; preds = %2
  ret void, !llfi_index !816
}

; Function Attrs: mustprogress noinline uwtable
define dso_local noundef i32 @_Z12initClustersP8Clustersif(%struct.Clusters* noundef %0, i32 noundef %1, float noundef %2) #0 !taffo.initweight !349 !taffo.equivalentChild !817 !taffo.funinfo !351 {
  %4 = sext i32 %1 to i64, !llfi_index !818
  %5 = mul i64 %4, 16, !taffo.constinfo !111, !llfi_index !819
  %6 = call noalias i8* @malloc(i64 noundef %5) #12, !taffo.constinfo !111, !llfi_index !820
  %7 = bitcast i8* %6 to %struct.Centroid*, !llfi_index !821
  %.flt1 = getelementptr inbounds %struct.Clusters, %struct.Clusters* %0, i32 0, i32 1, !taffo.structinfo !132, !taffo.initweight !25, !llfi_index !822
  store %struct.Centroid* %7, %struct.Centroid** %.flt1, align 8, !llfi_index !823
  %8 = icmp eq %struct.Clusters* %0, null, !taffo.info !24, !taffo.initweight !25, !llfi_index !824
  br i1 %8, label %9, label %11, !taffo.info !24, !taffo.initweight !27, !llfi_index !825

9:                                                ; preds = %3
  %10 = call i32 (i8*, ...) @printf(i8* noundef getelementptr inbounds ([57 x i8], [57 x i8]* @.str.3.33, i64 0, i64 0)), !taffo.constinfo !111, !llfi_index !826
  br label %38, !llfi_index !827

11:                                               ; preds = %3
  %12 = getelementptr inbounds %struct.Clusters, %struct.Clusters* %0, i32 0, i32 0, !taffo.info !24, !taffo.initweight !25, !llfi_index !828
  store i32 %1, i32* %12, align 8, !taffo.info !24, !llfi_index !829
  br label %13, !llfi_index !830

13:                                               ; preds = %35, %11
  %.01 = phi i32 [ 0, %11 ], [ %36, %35 ], !llfi_index !831
  %14 = getelementptr inbounds %struct.Clusters, %struct.Clusters* %0, i32 0, i32 0, !taffo.info !24, !taffo.initweight !25, !llfi_index !832
  %15 = load i32, i32* %14, align 8, !taffo.info !24, !taffo.initweight !27, !llfi_index !833
  %16 = icmp slt i32 %.01, %15, !taffo.info !24, !taffo.initweight !138, !llfi_index !834
  br i1 %16, label %17, label %37, !taffo.info !24, !taffo.initweight !150, !llfi_index !835

17:                                               ; preds = %13
  %18 = call i32 @rand() #10, !taffo.constinfo !836, !llfi_index !837
  %19 = sitofp i32 %18 to float, !llfi_index !838
  %20 = fdiv float %19, 0x41E0000000000000, !taffo.constinfo !839, !llfi_index !842
  %21 = fmul float %20, %2, !taffo.info !24, !taffo.initweight !25, !llfi_index !843
  %.flt3 = getelementptr inbounds %struct.Clusters, %struct.Clusters* %0, i32 0, i32 1, !taffo.structinfo !132, !taffo.initweight !25, !llfi_index !844
  %.flt7 = load %struct.Centroid*, %struct.Centroid** %.flt3, align 8, !taffo.structinfo !132, !taffo.initweight !27, !llfi_index !845
  %22 = sext i32 %.01 to i64, !llfi_index !846
  %.flt11 = getelementptr inbounds %struct.Centroid, %struct.Centroid* %.flt7, i64 %22, !taffo.structinfo !132, !taffo.initweight !138, !llfi_index !847
  %.flt14.s20_12fixp = getelementptr inbounds %struct.Centroid, %struct.Centroid* %.flt11, i32 0, i32 0, !taffo.info !29, !taffo.initweight !150, !llfi_index !848
  store float %21, float* %.flt14.s20_12fixp, align 4, !taffo.info !24, !llfi_index !849
  %23 = call i32 @rand() #10, !taffo.constinfo !836, !llfi_index !850
  %24 = sitofp i32 %23 to float, !llfi_index !851
  %25 = fdiv float %24, 0x41E0000000000000, !taffo.constinfo !839, !llfi_index !852
  %26 = fmul float %25, %2, !taffo.info !24, !taffo.initweight !25, !llfi_index !853
  %.flt = getelementptr inbounds %struct.Clusters, %struct.Clusters* %0, i32 0, i32 1, !taffo.structinfo !132, !taffo.initweight !25, !llfi_index !854
  %.flt5 = load %struct.Centroid*, %struct.Centroid** %.flt, align 8, !taffo.structinfo !132, !taffo.initweight !27, !llfi_index !855
  %27 = sext i32 %.01 to i64, !llfi_index !856
  %.flt9 = getelementptr inbounds %struct.Centroid, %struct.Centroid* %.flt5, i64 %27, !taffo.structinfo !132, !taffo.initweight !138, !llfi_index !857
  %.flt13.s20_12fixp = getelementptr inbounds %struct.Centroid, %struct.Centroid* %.flt9, i32 0, i32 1, !taffo.info !29, !taffo.initweight !150, !llfi_index !858
  store float %26, float* %.flt13.s20_12fixp, align 4, !taffo.info !24, !llfi_index !859
  %28 = call i32 @rand() #10, !taffo.constinfo !836, !llfi_index !860
  %29 = sitofp i32 %28 to float, !llfi_index !861
  %30 = fdiv float %29, 0x41E0000000000000, !taffo.constinfo !839, !llfi_index !862
  %31 = fmul float %30, %2, !taffo.info !24, !taffo.initweight !25, !llfi_index !863
  %.flt4 = getelementptr inbounds %struct.Clusters, %struct.Clusters* %0, i32 0, i32 1, !taffo.structinfo !132, !taffo.initweight !25, !llfi_index !864
  %.flt8 = load %struct.Centroid*, %struct.Centroid** %.flt4, align 8, !taffo.structinfo !132, !taffo.initweight !27, !llfi_index !865
  %32 = sext i32 %.01 to i64, !llfi_index !866
  %.flt12 = getelementptr inbounds %struct.Centroid, %struct.Centroid* %.flt8, i64 %32, !taffo.structinfo !132, !taffo.initweight !138, !llfi_index !867
  %.flt15.s20_12fixp = getelementptr inbounds %struct.Centroid, %struct.Centroid* %.flt12, i32 0, i32 2, !taffo.info !29, !taffo.initweight !150, !llfi_index !868
  store float %31, float* %.flt15.s20_12fixp, align 4, !taffo.info !24, !llfi_index !869
  %.flt2 = getelementptr inbounds %struct.Clusters, %struct.Clusters* %0, i32 0, i32 1, !taffo.structinfo !132, !taffo.initweight !25, !llfi_index !870
  %.flt6 = load %struct.Centroid*, %struct.Centroid** %.flt2, align 8, !taffo.structinfo !132, !taffo.initweight !27, !llfi_index !871
  %33 = sext i32 %.01 to i64, !llfi_index !872
  %.flt10 = getelementptr inbounds %struct.Centroid, %struct.Centroid* %.flt6, i64 %33, !taffo.structinfo !132, !taffo.initweight !138, !llfi_index !873
  %34 = getelementptr inbounds %struct.Centroid, %struct.Centroid* %.flt10, i32 0, i32 3, !taffo.info !133, !taffo.initweight !150, !llfi_index !874
  store i32 0, i32* %34, align 4, !taffo.info !133, !taffo.constinfo !111, !llfi_index !875
  br label %35, !llfi_index !876

35:                                               ; preds = %17
  %36 = add nsw i32 %.01, 1, !taffo.constinfo !111, !llfi_index !877
  br label %13, !llvm.loop !878, !llfi_index !879

37:                                               ; preds = %13
  br label %38, !llfi_index !880

38:                                               ; preds = %37, %9
  %.0 = phi i32 [ 0, %9 ], [ 1, %37 ], !llfi_index !881
  ret i32 %.0, !llfi_index !882
}

; Function Attrs: nounwind
declare !taffo.initweight !2 !taffo.funinfo !2 i32 @rand() #2

; Function Attrs: mustprogress noinline nounwind uwtable
define dso_local void @_Z12freeClustersP8Clusters(%struct.Clusters* noundef %0) #7 !taffo.initweight !118 !taffo.equivalentChild !883 !taffo.funinfo !119 {
  %2 = icmp ne %struct.Clusters* %0, null, !taffo.info !24, !taffo.initweight !25, !llfi_index !884
  br i1 %2, label %3, label %5, !taffo.info !24, !taffo.initweight !27, !llfi_index !885

3:                                                ; preds = %1
  %.flt = getelementptr inbounds %struct.Clusters, %struct.Clusters* %0, i32 0, i32 1, !taffo.structinfo !132, !taffo.initweight !25, !llfi_index !886
  %.flt1 = load %struct.Centroid*, %struct.Centroid** %.flt, align 8, !taffo.structinfo !132, !taffo.initweight !27, !llfi_index !887
  %4 = bitcast %struct.Centroid* %.flt1 to i8*, !taffo.info !140, !taffo.initweight !138, !llfi_index !888
  call void @free(i8* noundef %4) #10, !taffo.info !24, !taffo.initweight !150, !taffo.constinfo !111, !llfi_index !889
  br label %5, !llfi_index !890

5:                                                ; preds = %3, %1
  ret void, !llfi_index !891
}

; Function Attrs: mustprogress noinline uwtable
define dso_local void @_Z12segmentImageP8RgbImageP8Clustersi(%struct.RgbImage* noundef %0, %struct.Clusters* noundef %1, i32 noundef %2) #0 !taffo.initweight !116 !taffo.equivalentChild !892 !taffo.funinfo !117 {
  br label %4, !llfi_index !893

4:                                                ; preds = %142, %3
  %.06 = phi i32 [ 0, %3 ], [ %143, %142 ], !llfi_index !894
  %5 = icmp slt i32 %.06, %2, !llfi_index !895
  br i1 %5, label %6, label %144, !llfi_index !896

6:                                                ; preds = %4
  br label %7, !llfi_index !897

7:                                                ; preds = %22, %6
  %.01 = phi i32 [ 0, %6 ], [ %23, %22 ], !llfi_index !898
  %8 = getelementptr inbounds %struct.RgbImage, %struct.RgbImage* %0, i32 0, i32 1, !taffo.info !24, !taffo.initweight !25, !llfi_index !899
  %9 = load i32, i32* %8, align 4, !taffo.info !24, !taffo.initweight !27, !llfi_index !900
  %10 = icmp slt i32 %.01, %9, !taffo.info !24, !taffo.initweight !138, !llfi_index !901
  br i1 %10, label %11, label %24, !taffo.info !24, !taffo.initweight !150, !llfi_index !902

11:                                               ; preds = %7
  br label %12, !llfi_index !903

12:                                               ; preds = %19, %11
  %.03 = phi i32 [ 0, %11 ], [ %20, %19 ], !llfi_index !904
  %13 = getelementptr inbounds %struct.RgbImage, %struct.RgbImage* %0, i32 0, i32 0, !taffo.info !24, !taffo.initweight !25, !llfi_index !905
  %14 = load i32, i32* %13, align 8, !taffo.info !24, !taffo.initweight !27, !llfi_index !906
  %15 = icmp slt i32 %.03, %14, !taffo.info !24, !taffo.initweight !138, !llfi_index !907
  br i1 %15, label %16, label %21, !taffo.info !24, !taffo.initweight !150, !llfi_index !908

16:                                               ; preds = %12
  %.flt24 = getelementptr inbounds %struct.RgbImage, %struct.RgbImage* %0, i32 0, i32 2, !taffo.structinfo !402, !taffo.initweight !25, !llfi_index !909
  %.flt59 = load %struct.RgbPixel**, %struct.RgbPixel*** %.flt24, align 8, !taffo.structinfo !402, !taffo.initweight !27, !llfi_index !910
  %17 = sext i32 %.01 to i64, !llfi_index !911
  %.flt88 = getelementptr inbounds %struct.RgbPixel*, %struct.RgbPixel** %.flt59, i64 %17, !taffo.structinfo !402, !taffo.initweight !138, !llfi_index !912
  %.flt113 = load %struct.RgbPixel*, %struct.RgbPixel** %.flt88, align 8, !taffo.structinfo !402, !taffo.initweight !150, !llfi_index !913
  %18 = sext i32 %.03 to i64, !llfi_index !914
  %.flt133 = getelementptr inbounds %struct.RgbPixel, %struct.RgbPixel* %.flt113, i64 %18, !taffo.structinfo !402, !taffo.initweight !380, !llfi_index !915
  %.salvaged = bitcast %struct.Clusters* %1 to { i32, { i32, i32, i32, i32 }* }*, !llfi_index !916
  call void @_Z13assignClusterP8RgbPixelP8Clusters.12_fixp(%struct.RgbPixel* %.flt133, { i32, { i32, i32, i32, i32 }* }* %.salvaged), !taffo.info !24, !taffo.constinfo !120, !llfi_index !917
  br label %19, !llfi_index !918

19:                                               ; preds = %16
  %20 = add nsw i32 %.03, 1, !taffo.constinfo !111, !llfi_index !919
  br label %12, !llvm.loop !920, !llfi_index !921

21:                                               ; preds = %12
  br label %22, !llfi_index !922

22:                                               ; preds = %21
  %23 = add nsw i32 %.01, 1, !taffo.constinfo !111, !llfi_index !923
  br label %7, !llvm.loop !924, !llfi_index !925

24:                                               ; preds = %7
  br label %25, !llfi_index !926

25:                                               ; preds = %35, %24
  %.0 = phi i32 [ 0, %24 ], [ %36, %35 ], !llfi_index !927
  %26 = getelementptr inbounds %struct.Clusters, %struct.Clusters* %1, i32 0, i32 0, !taffo.info !24, !taffo.initweight !25, !llfi_index !928
  %27 = load i32, i32* %26, align 8, !taffo.info !24, !taffo.initweight !27, !llfi_index !929
  %28 = icmp slt i32 %.0, %27, !taffo.info !24, !taffo.initweight !138, !llfi_index !930
  br i1 %28, label %29, label %37, !taffo.info !24, !taffo.initweight !150, !llfi_index !931

29:                                               ; preds = %25
  %.flt26 = getelementptr inbounds %struct.Clusters, %struct.Clusters* %1, i32 0, i32 1, !taffo.structinfo !132, !taffo.initweight !25, !llfi_index !932
  %.flt61 = load %struct.Centroid*, %struct.Centroid** %.flt26, align 8, !taffo.structinfo !132, !taffo.initweight !27, !llfi_index !933
  %30 = sext i32 %.0 to i64, !llfi_index !934
  %.flt90 = getelementptr inbounds %struct.Centroid, %struct.Centroid* %.flt61, i64 %30, !taffo.structinfo !132, !taffo.initweight !138, !llfi_index !935
  %.flt115.s20_12fixp = getelementptr inbounds %struct.Centroid, %struct.Centroid* %.flt90, i32 0, i32 0, !taffo.info !29, !taffo.initweight !150, !llfi_index !936
  store float 0.000000e+00, float* %.flt115.s20_12fixp, align 4, !taffo.info !29, !taffo.constinfo !523, !llfi_index !937
  %.flt32 = getelementptr inbounds %struct.Clusters, %struct.Clusters* %1, i32 0, i32 1, !taffo.structinfo !132, !taffo.initweight !25, !llfi_index !938
  %.flt67 = load %struct.Centroid*, %struct.Centroid** %.flt32, align 8, !taffo.structinfo !132, !taffo.initweight !27, !llfi_index !939
  %31 = sext i32 %.0 to i64, !llfi_index !940
  %.flt95 = getelementptr inbounds %struct.Centroid, %struct.Centroid* %.flt67, i64 %31, !taffo.structinfo !132, !taffo.initweight !138, !llfi_index !941
  %.flt118.s20_12fixp = getelementptr inbounds %struct.Centroid, %struct.Centroid* %.flt95, i32 0, i32 1, !taffo.info !29, !taffo.initweight !150, !llfi_index !942
  store float 0.000000e+00, float* %.flt118.s20_12fixp, align 4, !taffo.info !29, !taffo.constinfo !523, !llfi_index !943
  %.flt1 = getelementptr inbounds %struct.Clusters, %struct.Clusters* %1, i32 0, i32 1, !taffo.structinfo !132, !taffo.initweight !25, !llfi_index !944
  %.flt36 = load %struct.Centroid*, %struct.Centroid** %.flt1, align 8, !taffo.structinfo !132, !taffo.initweight !27, !llfi_index !945
  %32 = sext i32 %.0 to i64, !llfi_index !946
  %.flt71 = getelementptr inbounds %struct.Centroid, %struct.Centroid* %.flt36, i64 %32, !taffo.structinfo !132, !taffo.initweight !138, !llfi_index !947
  %.flt98.s20_12fixp = getelementptr inbounds %struct.Centroid, %struct.Centroid* %.flt71, i32 0, i32 2, !taffo.info !29, !taffo.initweight !150, !llfi_index !948
  store float 0.000000e+00, float* %.flt98.s20_12fixp, align 4, !taffo.info !29, !taffo.constinfo !523, !llfi_index !949
  %.flt2 = getelementptr inbounds %struct.Clusters, %struct.Clusters* %1, i32 0, i32 1, !taffo.structinfo !132, !taffo.initweight !25, !llfi_index !950
  %.flt37 = load %struct.Centroid*, %struct.Centroid** %.flt2, align 8, !taffo.structinfo !132, !taffo.initweight !27, !llfi_index !951
  %33 = sext i32 %.0 to i64, !llfi_index !952
  %.flt72 = getelementptr inbounds %struct.Centroid, %struct.Centroid* %.flt37, i64 %33, !taffo.structinfo !132, !taffo.initweight !138, !llfi_index !953
  %34 = getelementptr inbounds %struct.Centroid, %struct.Centroid* %.flt72, i32 0, i32 3, !taffo.info !133, !taffo.initweight !150, !llfi_index !954
  store i32 0, i32* %34, align 4, !taffo.info !133, !taffo.constinfo !111, !llfi_index !955
  br label %35, !llfi_index !956

35:                                               ; preds = %29
  %36 = add nsw i32 %.0, 1, !taffo.constinfo !111, !llfi_index !957
  br label %25, !llvm.loop !958, !llfi_index !959

37:                                               ; preds = %25
  br label %38, !llfi_index !960

38:                                               ; preds = %101, %37
  %.12 = phi i32 [ 0, %37 ], [ %102, %101 ], !llfi_index !961
  %39 = getelementptr inbounds %struct.RgbImage, %struct.RgbImage* %0, i32 0, i32 1, !taffo.info !24, !taffo.initweight !25, !llfi_index !962
  %40 = load i32, i32* %39, align 4, !taffo.info !24, !taffo.initweight !27, !llfi_index !963
  %41 = icmp slt i32 %.12, %40, !taffo.info !24, !taffo.initweight !138, !llfi_index !964
  br i1 %41, label %42, label %103, !taffo.info !24, !taffo.initweight !150, !llfi_index !965

42:                                               ; preds = %38
  br label %43, !llfi_index !966

43:                                               ; preds = %98, %42
  %.14 = phi i32 [ 0, %42 ], [ %99, %98 ], !llfi_index !967
  %44 = getelementptr inbounds %struct.RgbImage, %struct.RgbImage* %0, i32 0, i32 0, !taffo.info !24, !taffo.initweight !25, !llfi_index !968
  %45 = load i32, i32* %44, align 8, !taffo.info !24, !taffo.initweight !27, !llfi_index !969
  %46 = icmp slt i32 %.14, %45, !taffo.info !24, !taffo.initweight !138, !llfi_index !970
  br i1 %46, label %47, label %100, !taffo.info !24, !taffo.initweight !150, !llfi_index !971

47:                                               ; preds = %43
  %.flt7 = getelementptr inbounds %struct.RgbImage, %struct.RgbImage* %0, i32 0, i32 2, !taffo.structinfo !402, !taffo.initweight !25, !llfi_index !972
  %.flt42 = load %struct.RgbPixel**, %struct.RgbPixel*** %.flt7, align 8, !taffo.structinfo !402, !taffo.initweight !27, !llfi_index !973
  %48 = sext i32 %.12 to i64, !llfi_index !974
  %.flt76 = getelementptr inbounds %struct.RgbPixel*, %struct.RgbPixel** %.flt42, i64 %48, !taffo.structinfo !402, !taffo.initweight !138, !llfi_index !975
  %.flt102 = load %struct.RgbPixel*, %struct.RgbPixel** %.flt76, align 8, !taffo.structinfo !402, !taffo.initweight !150, !llfi_index !976
  %49 = sext i32 %.14 to i64, !llfi_index !977
  %.flt124 = getelementptr inbounds %struct.RgbPixel, %struct.RgbPixel* %.flt102, i64 %49, !taffo.structinfo !402, !taffo.initweight !380, !llfi_index !978
  %50 = getelementptr inbounds %struct.RgbPixel, %struct.RgbPixel* %.flt124, i32 0, i32 0, !taffo.info !24, !taffo.initweight !382, !llfi_index !979
  %51 = load float, float* %50, align 4, !taffo.info !24, !taffo.initweight !606, !llfi_index !980
  %.flt23 = getelementptr inbounds %struct.Clusters, %struct.Clusters* %1, i32 0, i32 1, !taffo.structinfo !132, !taffo.initweight !25, !llfi_index !981
  %.flt58 = load %struct.Centroid*, %struct.Centroid** %.flt23, align 8, !taffo.structinfo !132, !taffo.initweight !27, !llfi_index !982
  %.flt22 = getelementptr inbounds %struct.RgbImage, %struct.RgbImage* %0, i32 0, i32 2, !taffo.structinfo !402, !taffo.initweight !25, !llfi_index !983
  %.flt57 = load %struct.RgbPixel**, %struct.RgbPixel*** %.flt22, align 8, !taffo.structinfo !402, !taffo.initweight !27, !llfi_index !984
  %52 = sext i32 %.12 to i64, !llfi_index !985
  %.flt87 = getelementptr inbounds %struct.RgbPixel*, %struct.RgbPixel** %.flt57, i64 %52, !taffo.structinfo !402, !taffo.initweight !138, !llfi_index !986
  %.flt112 = load %struct.RgbPixel*, %struct.RgbPixel** %.flt87, align 8, !taffo.structinfo !402, !taffo.initweight !150, !llfi_index !987
  %53 = sext i32 %.14 to i64, !llfi_index !988
  %.flt132 = getelementptr inbounds %struct.RgbPixel, %struct.RgbPixel* %.flt112, i64 %53, !taffo.structinfo !402, !taffo.initweight !380, !llfi_index !989
  %54 = getelementptr inbounds %struct.RgbPixel, %struct.RgbPixel* %.flt132, i32 0, i32 3, !taffo.info !24, !taffo.initweight !382, !llfi_index !990
  %55 = load i32, i32* %54, align 4, !taffo.info !24, !taffo.initweight !606, !llfi_index !991
  %56 = sext i32 %55 to i64, !taffo.info !24, !taffo.initweight !992, !llfi_index !993
  %.flt146 = getelementptr inbounds %struct.Centroid, %struct.Centroid* %.flt58, i64 %56, !taffo.structinfo !132, !taffo.initweight !138, !llfi_index !994
  %.flt152.s20_12fixp = getelementptr inbounds %struct.Centroid, %struct.Centroid* %.flt146, i32 0, i32 0, !taffo.info !29, !taffo.initweight !150, !llfi_index !995
  %.flt158 = load float, float* %.flt152.s20_12fixp, align 4, !taffo.info !29, !taffo.initweight !380, !llfi_index !996
  %57 = fmul float 4.096000e+03, %.flt158, !taffo.info !29, !llfi_index !997
  %.flt158.fallback.s20_12fixp = fptosi float %57 to i32, !taffo.info !29, !llfi_index !998
  %58 = fmul float 4.096000e+03, %51, !taffo.info !24, !llfi_index !999
  %59 = fptosi float %58 to i32, !taffo.info !24, !llfi_index !1000
  %s20_12fixp161 = add i32 %.flt158.fallback.s20_12fixp, %59, !taffo.info !29, !llfi_index !1001
  %60 = sitofp i32 %s20_12fixp161 to float, !taffo.info !29, !llfi_index !1002
  %61 = fdiv float %60, 4.096000e+03, !taffo.info !29, !llfi_index !1003
  store float %61, float* %.flt152.s20_12fixp, align 4, !taffo.info !29, !llfi_index !1004
  %.flt10 = getelementptr inbounds %struct.RgbImage, %struct.RgbImage* %0, i32 0, i32 2, !taffo.structinfo !402, !taffo.initweight !25, !llfi_index !1005
  %.flt45 = load %struct.RgbPixel**, %struct.RgbPixel*** %.flt10, align 8, !taffo.structinfo !402, !taffo.initweight !27, !llfi_index !1006
  %62 = sext i32 %.12 to i64, !llfi_index !1007
  %.flt79 = getelementptr inbounds %struct.RgbPixel*, %struct.RgbPixel** %.flt45, i64 %62, !taffo.structinfo !402, !taffo.initweight !138, !llfi_index !1008
  %.flt105 = load %struct.RgbPixel*, %struct.RgbPixel** %.flt79, align 8, !taffo.structinfo !402, !taffo.initweight !150, !llfi_index !1009
  %63 = sext i32 %.14 to i64, !llfi_index !1010
  %.flt127 = getelementptr inbounds %struct.RgbPixel, %struct.RgbPixel* %.flt105, i64 %63, !taffo.structinfo !402, !taffo.initweight !380, !llfi_index !1011
  %64 = getelementptr inbounds %struct.RgbPixel, %struct.RgbPixel* %.flt127, i32 0, i32 1, !taffo.info !24, !taffo.initweight !382, !llfi_index !1012
  %65 = load float, float* %64, align 4, !taffo.info !24, !taffo.initweight !606, !llfi_index !1013
  %.flt14 = getelementptr inbounds %struct.Clusters, %struct.Clusters* %1, i32 0, i32 1, !taffo.structinfo !132, !taffo.initweight !25, !llfi_index !1014
  %.flt49 = load %struct.Centroid*, %struct.Centroid** %.flt14, align 8, !taffo.structinfo !132, !taffo.initweight !27, !llfi_index !1015
  %.flt21 = getelementptr inbounds %struct.RgbImage, %struct.RgbImage* %0, i32 0, i32 2, !taffo.structinfo !402, !taffo.initweight !25, !llfi_index !1016
  %.flt56 = load %struct.RgbPixel**, %struct.RgbPixel*** %.flt21, align 8, !taffo.structinfo !402, !taffo.initweight !27, !llfi_index !1017
  %66 = sext i32 %.12 to i64, !llfi_index !1018
  %.flt86 = getelementptr inbounds %struct.RgbPixel*, %struct.RgbPixel** %.flt56, i64 %66, !taffo.structinfo !402, !taffo.initweight !138, !llfi_index !1019
  %.flt111 = load %struct.RgbPixel*, %struct.RgbPixel** %.flt86, align 8, !taffo.structinfo !402, !taffo.initweight !150, !llfi_index !1020
  %67 = sext i32 %.14 to i64, !llfi_index !1021
  %.flt131 = getelementptr inbounds %struct.RgbPixel, %struct.RgbPixel* %.flt111, i64 %67, !taffo.structinfo !402, !taffo.initweight !380, !llfi_index !1022
  %68 = getelementptr inbounds %struct.RgbPixel, %struct.RgbPixel* %.flt131, i32 0, i32 3, !taffo.info !24, !taffo.initweight !382, !llfi_index !1023
  %69 = load i32, i32* %68, align 4, !taffo.info !24, !taffo.initweight !606, !llfi_index !1024
  %70 = sext i32 %69 to i64, !taffo.info !24, !taffo.initweight !992, !llfi_index !1025
  %.flt145 = getelementptr inbounds %struct.Centroid, %struct.Centroid* %.flt49, i64 %70, !taffo.structinfo !132, !taffo.initweight !138, !llfi_index !1026
  %.flt151.s20_12fixp = getelementptr inbounds %struct.Centroid, %struct.Centroid* %.flt145, i32 0, i32 1, !taffo.info !29, !taffo.initweight !150, !llfi_index !1027
  %.flt157 = load float, float* %.flt151.s20_12fixp, align 4, !taffo.info !29, !taffo.initweight !380, !llfi_index !1028
  %71 = fmul float 4.096000e+03, %.flt157, !taffo.info !29, !llfi_index !1029
  %.flt157.fallback.s20_12fixp = fptosi float %71 to i32, !taffo.info !29, !llfi_index !1030
  %72 = fmul float 4.096000e+03, %65, !taffo.info !24, !llfi_index !1031
  %73 = fptosi float %72 to i32, !taffo.info !24, !llfi_index !1032
  %s20_12fixp160 = add i32 %.flt157.fallback.s20_12fixp, %73, !taffo.info !29, !llfi_index !1033
  %74 = sitofp i32 %s20_12fixp160 to float, !taffo.info !29, !llfi_index !1034
  %75 = fdiv float %74, 4.096000e+03, !taffo.info !29, !llfi_index !1035
  store float %75, float* %.flt151.s20_12fixp, align 4, !taffo.info !29, !llfi_index !1036
  %.flt34 = getelementptr inbounds %struct.RgbImage, %struct.RgbImage* %0, i32 0, i32 2, !taffo.structinfo !402, !taffo.initweight !25, !llfi_index !1037
  %.flt69 = load %struct.RgbPixel**, %struct.RgbPixel*** %.flt34, align 8, !taffo.structinfo !402, !taffo.initweight !27, !llfi_index !1038
  %76 = sext i32 %.12 to i64, !llfi_index !1039
  %.flt97 = getelementptr inbounds %struct.RgbPixel*, %struct.RgbPixel** %.flt69, i64 %76, !taffo.structinfo !402, !taffo.initweight !138, !llfi_index !1040
  %.flt120 = load %struct.RgbPixel*, %struct.RgbPixel** %.flt97, align 8, !taffo.structinfo !402, !taffo.initweight !150, !llfi_index !1041
  %77 = sext i32 %.14 to i64, !llfi_index !1042
  %.flt137 = getelementptr inbounds %struct.RgbPixel, %struct.RgbPixel* %.flt120, i64 %77, !taffo.structinfo !402, !taffo.initweight !380, !llfi_index !1043
  %78 = getelementptr inbounds %struct.RgbPixel, %struct.RgbPixel* %.flt137, i32 0, i32 2, !taffo.info !24, !taffo.initweight !382, !llfi_index !1044
  %79 = load float, float* %78, align 4, !taffo.info !24, !taffo.initweight !606, !llfi_index !1045
  %.flt11 = getelementptr inbounds %struct.Clusters, %struct.Clusters* %1, i32 0, i32 1, !taffo.structinfo !132, !taffo.initweight !25, !llfi_index !1046
  %.flt46 = load %struct.Centroid*, %struct.Centroid** %.flt11, align 8, !taffo.structinfo !132, !taffo.initweight !27, !llfi_index !1047
  %.flt8 = getelementptr inbounds %struct.RgbImage, %struct.RgbImage* %0, i32 0, i32 2, !taffo.structinfo !402, !taffo.initweight !25, !llfi_index !1048
  %.flt43 = load %struct.RgbPixel**, %struct.RgbPixel*** %.flt8, align 8, !taffo.structinfo !402, !taffo.initweight !27, !llfi_index !1049
  %80 = sext i32 %.12 to i64, !llfi_index !1050
  %.flt77 = getelementptr inbounds %struct.RgbPixel*, %struct.RgbPixel** %.flt43, i64 %80, !taffo.structinfo !402, !taffo.initweight !138, !llfi_index !1051
  %.flt103 = load %struct.RgbPixel*, %struct.RgbPixel** %.flt77, align 8, !taffo.structinfo !402, !taffo.initweight !150, !llfi_index !1052
  %81 = sext i32 %.14 to i64, !llfi_index !1053
  %.flt125 = getelementptr inbounds %struct.RgbPixel, %struct.RgbPixel* %.flt103, i64 %81, !taffo.structinfo !402, !taffo.initweight !380, !llfi_index !1054
  %82 = getelementptr inbounds %struct.RgbPixel, %struct.RgbPixel* %.flt125, i32 0, i32 3, !taffo.info !24, !taffo.initweight !382, !llfi_index !1055
  %83 = load i32, i32* %82, align 4, !taffo.info !24, !taffo.initweight !606, !llfi_index !1056
  %84 = sext i32 %83 to i64, !taffo.info !24, !taffo.initweight !992, !llfi_index !1057
  %.flt142 = getelementptr inbounds %struct.Centroid, %struct.Centroid* %.flt46, i64 %84, !taffo.structinfo !132, !taffo.initweight !138, !llfi_index !1058
  %.flt148.s20_12fixp = getelementptr inbounds %struct.Centroid, %struct.Centroid* %.flt142, i32 0, i32 2, !taffo.info !29, !taffo.initweight !150, !llfi_index !1059
  %.flt154 = load float, float* %.flt148.s20_12fixp, align 4, !taffo.info !29, !taffo.initweight !380, !llfi_index !1060
  %85 = fmul float 4.096000e+03, %.flt154, !taffo.info !29, !llfi_index !1061
  %.flt154.fallback.s20_12fixp = fptosi float %85 to i32, !taffo.info !29, !llfi_index !1062
  %86 = fmul float 4.096000e+03, %79, !taffo.info !24, !llfi_index !1063
  %87 = fptosi float %86 to i32, !taffo.info !24, !llfi_index !1064
  %s20_12fixp159 = add i32 %.flt154.fallback.s20_12fixp, %87, !taffo.info !29, !llfi_index !1065
  %88 = sitofp i32 %s20_12fixp159 to float, !taffo.info !29, !llfi_index !1066
  %89 = fdiv float %88, 4.096000e+03, !taffo.info !29, !llfi_index !1067
  store float %89, float* %.flt148.s20_12fixp, align 4, !taffo.info !29, !llfi_index !1068
  %.flt4 = getelementptr inbounds %struct.Clusters, %struct.Clusters* %1, i32 0, i32 1, !taffo.structinfo !132, !taffo.initweight !25, !llfi_index !1069
  %.flt39 = load %struct.Centroid*, %struct.Centroid** %.flt4, align 8, !taffo.structinfo !132, !taffo.initweight !27, !llfi_index !1070
  %.flt5 = getelementptr inbounds %struct.RgbImage, %struct.RgbImage* %0, i32 0, i32 2, !taffo.structinfo !402, !taffo.initweight !25, !llfi_index !1071
  %.flt40 = load %struct.RgbPixel**, %struct.RgbPixel*** %.flt5, align 8, !taffo.structinfo !402, !taffo.initweight !27, !llfi_index !1072
  %90 = sext i32 %.12 to i64, !llfi_index !1073
  %.flt74 = getelementptr inbounds %struct.RgbPixel*, %struct.RgbPixel** %.flt40, i64 %90, !taffo.structinfo !402, !taffo.initweight !138, !llfi_index !1074
  %.flt100 = load %struct.RgbPixel*, %struct.RgbPixel** %.flt74, align 8, !taffo.structinfo !402, !taffo.initweight !150, !llfi_index !1075
  %91 = sext i32 %.14 to i64, !llfi_index !1076
  %.flt122 = getelementptr inbounds %struct.RgbPixel, %struct.RgbPixel* %.flt100, i64 %91, !taffo.structinfo !402, !taffo.initweight !380, !llfi_index !1077
  %92 = getelementptr inbounds %struct.RgbPixel, %struct.RgbPixel* %.flt122, i32 0, i32 3, !taffo.info !24, !taffo.initweight !382, !llfi_index !1078
  %93 = load i32, i32* %92, align 4, !taffo.info !24, !taffo.initweight !606, !llfi_index !1079
  %94 = sext i32 %93 to i64, !taffo.info !24, !taffo.initweight !992, !llfi_index !1080
  %.flt141 = getelementptr inbounds %struct.Centroid, %struct.Centroid* %.flt39, i64 %94, !taffo.structinfo !132, !taffo.initweight !138, !llfi_index !1081
  %95 = getelementptr inbounds %struct.Centroid, %struct.Centroid* %.flt141, i32 0, i32 3, !taffo.info !133, !taffo.initweight !150, !llfi_index !1082
  %96 = load i32, i32* %95, align 4, !taffo.info !133, !taffo.initweight !380, !llfi_index !1083
  %97 = add nsw i32 %96, 1, !taffo.info !133, !taffo.initweight !382, !taffo.constinfo !111, !llfi_index !1084
  store i32 %97, i32* %95, align 4, !taffo.info !133, !llfi_index !1085
  br label %98, !llfi_index !1086

98:                                               ; preds = %47
  %99 = add nsw i32 %.14, 1, !taffo.constinfo !111, !llfi_index !1087
  br label %43, !llvm.loop !1088, !llfi_index !1089

100:                                              ; preds = %43
  br label %101, !llfi_index !1090

101:                                              ; preds = %100
  %102 = add nsw i32 %.12, 1, !taffo.constinfo !111, !llfi_index !1091
  br label %38, !llvm.loop !1092, !llfi_index !1093

103:                                              ; preds = %38
  br label %104, !llfi_index !1094

104:                                              ; preds = %139, %103
  %.1 = phi i32 [ 0, %103 ], [ %140, %139 ], !llfi_index !1095
  %105 = getelementptr inbounds %struct.Clusters, %struct.Clusters* %1, i32 0, i32 0, !taffo.info !24, !taffo.initweight !25, !llfi_index !1096
  %106 = load i32, i32* %105, align 8, !taffo.info !24, !taffo.initweight !27, !llfi_index !1097
  %107 = icmp slt i32 %.1, %106, !taffo.info !24, !taffo.initweight !138, !llfi_index !1098
  br i1 %107, label %108, label %141, !taffo.info !24, !taffo.initweight !150, !llfi_index !1099

108:                                              ; preds = %104
  %.flt27 = getelementptr inbounds %struct.Clusters, %struct.Clusters* %1, i32 0, i32 1, !taffo.structinfo !132, !taffo.initweight !25, !llfi_index !1100
  %.flt62 = load %struct.Centroid*, %struct.Centroid** %.flt27, align 8, !taffo.structinfo !132, !taffo.initweight !27, !llfi_index !1101
  %109 = sext i32 %.1 to i64, !llfi_index !1102
  %.flt91 = getelementptr inbounds %struct.Centroid, %struct.Centroid* %.flt62, i64 %109, !taffo.structinfo !132, !taffo.initweight !138, !llfi_index !1103
  %110 = getelementptr inbounds %struct.Centroid, %struct.Centroid* %.flt91, i32 0, i32 3, !taffo.info !133, !taffo.initweight !150, !llfi_index !1104
  %111 = load i32, i32* %110, align 4, !taffo.info !133, !taffo.initweight !380, !llfi_index !1105
  %112 = icmp ne i32 %111, 0, !taffo.info !133, !taffo.initweight !382, !llfi_index !1106
  br i1 %112, label %113, label %138, !taffo.info !133, !taffo.initweight !606, !llfi_index !1107

113:                                              ; preds = %108
  %.flt9 = getelementptr inbounds %struct.Clusters, %struct.Clusters* %1, i32 0, i32 1, !taffo.structinfo !132, !taffo.initweight !25, !llfi_index !1108
  %.flt44 = load %struct.Centroid*, %struct.Centroid** %.flt9, align 8, !taffo.structinfo !132, !taffo.initweight !27, !llfi_index !1109
  %114 = sext i32 %.1 to i64, !llfi_index !1110
  %.flt78 = getelementptr inbounds %struct.Centroid, %struct.Centroid* %.flt44, i64 %114, !taffo.structinfo !132, !taffo.initweight !138, !llfi_index !1111
  %.flt104.s20_12fixp = getelementptr inbounds %struct.Centroid, %struct.Centroid* %.flt78, i32 0, i32 0, !taffo.info !29, !taffo.initweight !150, !llfi_index !1112
  %.flt126 = load float, float* %.flt104.s20_12fixp, align 4, !taffo.info !29, !taffo.initweight !380, !llfi_index !1113
  %115 = fmul float 4.096000e+03, %.flt126, !taffo.info !29, !llfi_index !1114
  %.flt126.fallback.s20_12fixp = fptosi float %115 to i32, !taffo.info !29, !llfi_index !1115
  %.flt = getelementptr inbounds %struct.Clusters, %struct.Clusters* %1, i32 0, i32 1, !taffo.structinfo !132, !taffo.initweight !25, !llfi_index !1116
  %.flt35 = load %struct.Centroid*, %struct.Centroid** %.flt, align 8, !taffo.structinfo !132, !taffo.initweight !27, !llfi_index !1117
  %116 = sext i32 %.1 to i64, !llfi_index !1118
  %.flt70 = getelementptr inbounds %struct.Centroid, %struct.Centroid* %.flt35, i64 %116, !taffo.structinfo !132, !taffo.initweight !138, !llfi_index !1119
  %117 = getelementptr inbounds %struct.Centroid, %struct.Centroid* %.flt70, i32 0, i32 3, !taffo.info !133, !taffo.initweight !150, !llfi_index !1120
  %118 = load i32, i32* %117, align 4, !taffo.info !133, !taffo.initweight !380, !llfi_index !1121
  %s20_12fixp = sdiv i32 %.flt126.fallback.s20_12fixp, %118, !taffo.info !29, !llfi_index !1122
  %119 = sitofp i32 %s20_12fixp to float, !taffo.info !29, !llfi_index !1123
  %120 = fdiv float %119, 4.096000e+03, !taffo.info !29, !llfi_index !1124
  %.flt19 = getelementptr inbounds %struct.Clusters, %struct.Clusters* %1, i32 0, i32 1, !taffo.structinfo !132, !taffo.initweight !25, !llfi_index !1125
  %.flt54 = load %struct.Centroid*, %struct.Centroid** %.flt19, align 8, !taffo.structinfo !132, !taffo.initweight !27, !llfi_index !1126
  %121 = sext i32 %.1 to i64, !llfi_index !1127
  %.flt85 = getelementptr inbounds %struct.Centroid, %struct.Centroid* %.flt54, i64 %121, !taffo.structinfo !132, !taffo.initweight !138, !llfi_index !1128
  %.flt110.s20_12fixp = getelementptr inbounds %struct.Centroid, %struct.Centroid* %.flt85, i32 0, i32 0, !taffo.info !29, !taffo.initweight !150, !llfi_index !1129
  store float %120, float* %.flt110.s20_12fixp, align 4, !taffo.info !29, !llfi_index !1130
  %.flt25 = getelementptr inbounds %struct.Clusters, %struct.Clusters* %1, i32 0, i32 1, !taffo.structinfo !132, !taffo.initweight !25, !llfi_index !1131
  %.flt60 = load %struct.Centroid*, %struct.Centroid** %.flt25, align 8, !taffo.structinfo !132, !taffo.initweight !27, !llfi_index !1132
  %122 = sext i32 %.1 to i64, !llfi_index !1133
  %.flt89 = getelementptr inbounds %struct.Centroid, %struct.Centroid* %.flt60, i64 %122, !taffo.structinfo !132, !taffo.initweight !138, !llfi_index !1134
  %.flt114.s20_12fixp = getelementptr inbounds %struct.Centroid, %struct.Centroid* %.flt89, i32 0, i32 1, !taffo.info !29, !taffo.initweight !150, !llfi_index !1135
  %.flt134 = load float, float* %.flt114.s20_12fixp, align 4, !taffo.info !29, !taffo.initweight !380, !llfi_index !1136
  %123 = fmul float 4.096000e+03, %.flt134, !taffo.info !29, !llfi_index !1137
  %.flt134.fallback.s20_12fixp = fptosi float %123 to i32, !taffo.info !29, !llfi_index !1138
  %.flt30 = getelementptr inbounds %struct.Clusters, %struct.Clusters* %1, i32 0, i32 1, !taffo.structinfo !132, !taffo.initweight !25, !llfi_index !1139
  %.flt65 = load %struct.Centroid*, %struct.Centroid** %.flt30, align 8, !taffo.structinfo !132, !taffo.initweight !27, !llfi_index !1140
  %124 = sext i32 %.1 to i64, !llfi_index !1141
  %.flt93 = getelementptr inbounds %struct.Centroid, %struct.Centroid* %.flt65, i64 %124, !taffo.structinfo !132, !taffo.initweight !138, !llfi_index !1142
  %125 = getelementptr inbounds %struct.Centroid, %struct.Centroid* %.flt93, i32 0, i32 3, !taffo.info !133, !taffo.initweight !150, !llfi_index !1143
  %126 = load i32, i32* %125, align 4, !taffo.info !133, !taffo.initweight !380, !llfi_index !1144
  %s20_12fixp139 = sdiv i32 %.flt134.fallback.s20_12fixp, %126, !taffo.info !29, !llfi_index !1145
  %127 = sitofp i32 %s20_12fixp139 to float, !taffo.info !29, !llfi_index !1146
  %128 = fdiv float %127, 4.096000e+03, !taffo.info !29, !llfi_index !1147
  %.flt12 = getelementptr inbounds %struct.Clusters, %struct.Clusters* %1, i32 0, i32 1, !taffo.structinfo !132, !taffo.initweight !25, !llfi_index !1148
  %.flt47 = load %struct.Centroid*, %struct.Centroid** %.flt12, align 8, !taffo.structinfo !132, !taffo.initweight !27, !llfi_index !1149
  %129 = sext i32 %.1 to i64, !llfi_index !1150
  %.flt80 = getelementptr inbounds %struct.Centroid, %struct.Centroid* %.flt47, i64 %129, !taffo.structinfo !132, !taffo.initweight !138, !llfi_index !1151
  %.flt106.s20_12fixp = getelementptr inbounds %struct.Centroid, %struct.Centroid* %.flt80, i32 0, i32 1, !taffo.info !29, !taffo.initweight !150, !llfi_index !1152
  store float %128, float* %.flt106.s20_12fixp, align 4, !taffo.info !29, !llfi_index !1153
  %.flt6 = getelementptr inbounds %struct.Clusters, %struct.Clusters* %1, i32 0, i32 1, !taffo.structinfo !132, !taffo.initweight !25, !llfi_index !1154
  %.flt41 = load %struct.Centroid*, %struct.Centroid** %.flt6, align 8, !taffo.structinfo !132, !taffo.initweight !27, !llfi_index !1155
  %130 = sext i32 %.1 to i64, !llfi_index !1156
  %.flt75 = getelementptr inbounds %struct.Centroid, %struct.Centroid* %.flt41, i64 %130, !taffo.structinfo !132, !taffo.initweight !138, !llfi_index !1157
  %.flt101.s20_12fixp = getelementptr inbounds %struct.Centroid, %struct.Centroid* %.flt75, i32 0, i32 2, !taffo.info !29, !taffo.initweight !150, !llfi_index !1158
  %.flt123 = load float, float* %.flt101.s20_12fixp, align 4, !taffo.info !29, !taffo.initweight !380, !llfi_index !1159
  %131 = fmul float 4.096000e+03, %.flt123, !taffo.info !29, !llfi_index !1160
  %.flt123.fallback.s20_12fixp = fptosi float %131 to i32, !taffo.info !29, !llfi_index !1161
  %.flt17 = getelementptr inbounds %struct.Clusters, %struct.Clusters* %1, i32 0, i32 1, !taffo.structinfo !132, !taffo.initweight !25, !llfi_index !1162
  %.flt52 = load %struct.Centroid*, %struct.Centroid** %.flt17, align 8, !taffo.structinfo !132, !taffo.initweight !27, !llfi_index !1163
  %132 = sext i32 %.1 to i64, !llfi_index !1164
  %.flt83 = getelementptr inbounds %struct.Centroid, %struct.Centroid* %.flt52, i64 %132, !taffo.structinfo !132, !taffo.initweight !138, !llfi_index !1165
  %133 = getelementptr inbounds %struct.Centroid, %struct.Centroid* %.flt83, i32 0, i32 3, !taffo.info !133, !taffo.initweight !150, !llfi_index !1166
  %134 = load i32, i32* %133, align 4, !taffo.info !133, !taffo.initweight !380, !llfi_index !1167
  %s20_12fixp138 = sdiv i32 %.flt123.fallback.s20_12fixp, %134, !taffo.info !29, !llfi_index !1168
  %135 = sitofp i32 %s20_12fixp138 to float, !taffo.info !29, !llfi_index !1169
  %136 = fdiv float %135, 4.096000e+03, !taffo.info !29, !llfi_index !1170
  %.flt31 = getelementptr inbounds %struct.Clusters, %struct.Clusters* %1, i32 0, i32 1, !taffo.structinfo !132, !taffo.initweight !25, !llfi_index !1171
  %.flt66 = load %struct.Centroid*, %struct.Centroid** %.flt31, align 8, !taffo.structinfo !132, !taffo.initweight !27, !llfi_index !1172
  %137 = sext i32 %.1 to i64, !llfi_index !1173
  %.flt94 = getelementptr inbounds %struct.Centroid, %struct.Centroid* %.flt66, i64 %137, !taffo.structinfo !132, !taffo.initweight !138, !llfi_index !1174
  %.flt117.s20_12fixp = getelementptr inbounds %struct.Centroid, %struct.Centroid* %.flt94, i32 0, i32 2, !taffo.info !29, !taffo.initweight !150, !llfi_index !1175
  store float %136, float* %.flt117.s20_12fixp, align 4, !taffo.info !29, !llfi_index !1176
  br label %138, !llfi_index !1177

138:                                              ; preds = %113, %108
  br label %139, !llfi_index !1178

139:                                              ; preds = %138
  %140 = add nsw i32 %.1, 1, !taffo.constinfo !111, !llfi_index !1179
  br label %104, !llvm.loop !1180, !llfi_index !1181

141:                                              ; preds = %104
  br label %142, !llfi_index !1182

142:                                              ; preds = %141
  %143 = add nsw i32 %.06, 1, !taffo.constinfo !111, !llfi_index !1183
  br label %4, !llvm.loop !1184, !llfi_index !1185

144:                                              ; preds = %4
  br label %145, !llfi_index !1186

145:                                              ; preds = %191, %144
  %.2 = phi i32 [ 0, %144 ], [ %192, %191 ], !llfi_index !1187
  %146 = getelementptr inbounds %struct.RgbImage, %struct.RgbImage* %0, i32 0, i32 1, !taffo.info !24, !taffo.initweight !25, !llfi_index !1188
  %147 = load i32, i32* %146, align 4, !taffo.info !24, !taffo.initweight !27, !llfi_index !1189
  %148 = icmp slt i32 %.2, %147, !taffo.info !24, !taffo.initweight !138, !llfi_index !1190
  br i1 %148, label %149, label %193, !taffo.info !24, !taffo.initweight !150, !llfi_index !1191

149:                                              ; preds = %145
  br label %150, !llfi_index !1192

150:                                              ; preds = %188, %149
  %.25 = phi i32 [ 0, %149 ], [ %189, %188 ], !llfi_index !1193
  %151 = getelementptr inbounds %struct.RgbImage, %struct.RgbImage* %0, i32 0, i32 0, !taffo.info !24, !taffo.initweight !25, !llfi_index !1194
  %152 = load i32, i32* %151, align 8, !taffo.info !24, !taffo.initweight !27, !llfi_index !1195
  %153 = icmp slt i32 %.25, %152, !taffo.info !24, !taffo.initweight !138, !llfi_index !1196
  br i1 %153, label %154, label %190, !taffo.info !24, !taffo.initweight !150, !llfi_index !1197

154:                                              ; preds = %150
  %.flt16 = getelementptr inbounds %struct.Clusters, %struct.Clusters* %1, i32 0, i32 1, !taffo.structinfo !132, !taffo.initweight !25, !llfi_index !1198
  %.flt51 = load %struct.Centroid*, %struct.Centroid** %.flt16, align 8, !taffo.structinfo !132, !taffo.initweight !27, !llfi_index !1199
  %.flt15 = getelementptr inbounds %struct.RgbImage, %struct.RgbImage* %0, i32 0, i32 2, !taffo.structinfo !402, !taffo.initweight !25, !llfi_index !1200
  %.flt50 = load %struct.RgbPixel**, %struct.RgbPixel*** %.flt15, align 8, !taffo.structinfo !402, !taffo.initweight !27, !llfi_index !1201
  %155 = sext i32 %.2 to i64, !llfi_index !1202
  %.flt82 = getelementptr inbounds %struct.RgbPixel*, %struct.RgbPixel** %.flt50, i64 %155, !taffo.structinfo !402, !taffo.initweight !138, !llfi_index !1203
  %.flt108 = load %struct.RgbPixel*, %struct.RgbPixel** %.flt82, align 8, !taffo.structinfo !402, !taffo.initweight !150, !llfi_index !1204
  %156 = sext i32 %.25 to i64, !llfi_index !1205
  %.flt129 = getelementptr inbounds %struct.RgbPixel, %struct.RgbPixel* %.flt108, i64 %156, !taffo.structinfo !402, !taffo.initweight !380, !llfi_index !1206
  %157 = getelementptr inbounds %struct.RgbPixel, %struct.RgbPixel* %.flt129, i32 0, i32 3, !taffo.info !24, !taffo.initweight !382, !llfi_index !1207
  %158 = load i32, i32* %157, align 4, !taffo.info !24, !taffo.initweight !606, !llfi_index !1208
  %159 = sext i32 %158 to i64, !taffo.info !24, !taffo.initweight !992, !llfi_index !1209
  %.flt143 = getelementptr inbounds %struct.Centroid, %struct.Centroid* %.flt51, i64 %159, !taffo.structinfo !132, !taffo.initweight !138, !llfi_index !1210
  %.flt149.s20_12fixp = getelementptr inbounds %struct.Centroid, %struct.Centroid* %.flt143, i32 0, i32 0, !taffo.info !29, !taffo.initweight !150, !llfi_index !1211
  %.flt155 = load float, float* %.flt149.s20_12fixp, align 4, !taffo.info !29, !taffo.initweight !380, !llfi_index !1212
  %160 = fmul float 4.096000e+03, %.flt155, !taffo.info !29, !llfi_index !1213
  %.flt155.fallback.s20_12fixp = fptosi float %160 to i32, !taffo.info !29, !llfi_index !1214
  %161 = sitofp i32 %.flt155.fallback.s20_12fixp to float, !taffo.info !29, !llfi_index !1215
  %162 = fdiv float %161, 4.096000e+03, !taffo.info !29, !llfi_index !1216
  %.flt13 = getelementptr inbounds %struct.RgbImage, %struct.RgbImage* %0, i32 0, i32 2, !taffo.structinfo !402, !taffo.initweight !25, !llfi_index !1217
  %.flt48 = load %struct.RgbPixel**, %struct.RgbPixel*** %.flt13, align 8, !taffo.structinfo !402, !taffo.initweight !27, !llfi_index !1218
  %163 = sext i32 %.2 to i64, !llfi_index !1219
  %.flt81 = getelementptr inbounds %struct.RgbPixel*, %struct.RgbPixel** %.flt48, i64 %163, !taffo.structinfo !402, !taffo.initweight !138, !llfi_index !1220
  %.flt107 = load %struct.RgbPixel*, %struct.RgbPixel** %.flt81, align 8, !taffo.structinfo !402, !taffo.initweight !150, !llfi_index !1221
  %164 = sext i32 %.25 to i64, !llfi_index !1222
  %.flt128 = getelementptr inbounds %struct.RgbPixel, %struct.RgbPixel* %.flt107, i64 %164, !taffo.structinfo !402, !taffo.initweight !380, !llfi_index !1223
  %165 = getelementptr inbounds %struct.RgbPixel, %struct.RgbPixel* %.flt128, i32 0, i32 0, !taffo.info !24, !taffo.initweight !382, !llfi_index !1224
  store float %162, float* %165, align 4, !taffo.info !29, !llfi_index !1225
  %.flt20 = getelementptr inbounds %struct.Clusters, %struct.Clusters* %1, i32 0, i32 1, !taffo.structinfo !132, !taffo.initweight !25, !llfi_index !1226
  %.flt55 = load %struct.Centroid*, %struct.Centroid** %.flt20, align 8, !taffo.structinfo !132, !taffo.initweight !27, !llfi_index !1227
  %.flt3 = getelementptr inbounds %struct.RgbImage, %struct.RgbImage* %0, i32 0, i32 2, !taffo.structinfo !402, !taffo.initweight !25, !llfi_index !1228
  %.flt38 = load %struct.RgbPixel**, %struct.RgbPixel*** %.flt3, align 8, !taffo.structinfo !402, !taffo.initweight !27, !llfi_index !1229
  %166 = sext i32 %.2 to i64, !llfi_index !1230
  %.flt73 = getelementptr inbounds %struct.RgbPixel*, %struct.RgbPixel** %.flt38, i64 %166, !taffo.structinfo !402, !taffo.initweight !138, !llfi_index !1231
  %.flt99 = load %struct.RgbPixel*, %struct.RgbPixel** %.flt73, align 8, !taffo.structinfo !402, !taffo.initweight !150, !llfi_index !1232
  %167 = sext i32 %.25 to i64, !llfi_index !1233
  %.flt121 = getelementptr inbounds %struct.RgbPixel, %struct.RgbPixel* %.flt99, i64 %167, !taffo.structinfo !402, !taffo.initweight !380, !llfi_index !1234
  %168 = getelementptr inbounds %struct.RgbPixel, %struct.RgbPixel* %.flt121, i32 0, i32 3, !taffo.info !24, !taffo.initweight !382, !llfi_index !1235
  %169 = load i32, i32* %168, align 4, !taffo.info !24, !taffo.initweight !606, !llfi_index !1236
  %170 = sext i32 %169 to i64, !taffo.info !24, !taffo.initweight !992, !llfi_index !1237
  %.flt140 = getelementptr inbounds %struct.Centroid, %struct.Centroid* %.flt55, i64 %170, !taffo.structinfo !132, !taffo.initweight !138, !llfi_index !1238
  %.flt147.s20_12fixp = getelementptr inbounds %struct.Centroid, %struct.Centroid* %.flt140, i32 0, i32 1, !taffo.info !29, !taffo.initweight !150, !llfi_index !1239
  %.flt153 = load float, float* %.flt147.s20_12fixp, align 4, !taffo.info !29, !taffo.initweight !380, !llfi_index !1240
  %171 = fmul float 4.096000e+03, %.flt153, !taffo.info !29, !llfi_index !1241
  %.flt153.fallback.s20_12fixp = fptosi float %171 to i32, !taffo.info !29, !llfi_index !1242
  %172 = sitofp i32 %.flt153.fallback.s20_12fixp to float, !taffo.info !29, !llfi_index !1243
  %173 = fdiv float %172, 4.096000e+03, !taffo.info !29, !llfi_index !1244
  %.flt33 = getelementptr inbounds %struct.RgbImage, %struct.RgbImage* %0, i32 0, i32 2, !taffo.structinfo !402, !taffo.initweight !25, !llfi_index !1245
  %.flt68 = load %struct.RgbPixel**, %struct.RgbPixel*** %.flt33, align 8, !taffo.structinfo !402, !taffo.initweight !27, !llfi_index !1246
  %174 = sext i32 %.2 to i64, !llfi_index !1247
  %.flt96 = getelementptr inbounds %struct.RgbPixel*, %struct.RgbPixel** %.flt68, i64 %174, !taffo.structinfo !402, !taffo.initweight !138, !llfi_index !1248
  %.flt119 = load %struct.RgbPixel*, %struct.RgbPixel** %.flt96, align 8, !taffo.structinfo !402, !taffo.initweight !150, !llfi_index !1249
  %175 = sext i32 %.25 to i64, !llfi_index !1250
  %.flt136 = getelementptr inbounds %struct.RgbPixel, %struct.RgbPixel* %.flt119, i64 %175, !taffo.structinfo !402, !taffo.initweight !380, !llfi_index !1251
  %176 = getelementptr inbounds %struct.RgbPixel, %struct.RgbPixel* %.flt136, i32 0, i32 1, !taffo.info !24, !taffo.initweight !382, !llfi_index !1252
  store float %173, float* %176, align 4, !taffo.info !29, !llfi_index !1253
  %.flt29 = getelementptr inbounds %struct.Clusters, %struct.Clusters* %1, i32 0, i32 1, !taffo.structinfo !132, !taffo.initweight !25, !llfi_index !1254
  %.flt64 = load %struct.Centroid*, %struct.Centroid** %.flt29, align 8, !taffo.structinfo !132, !taffo.initweight !27, !llfi_index !1255
  %.flt18 = getelementptr inbounds %struct.RgbImage, %struct.RgbImage* %0, i32 0, i32 2, !taffo.structinfo !402, !taffo.initweight !25, !llfi_index !1256
  %.flt53 = load %struct.RgbPixel**, %struct.RgbPixel*** %.flt18, align 8, !taffo.structinfo !402, !taffo.initweight !27, !llfi_index !1257
  %177 = sext i32 %.2 to i64, !llfi_index !1258
  %.flt84 = getelementptr inbounds %struct.RgbPixel*, %struct.RgbPixel** %.flt53, i64 %177, !taffo.structinfo !402, !taffo.initweight !138, !llfi_index !1259
  %.flt109 = load %struct.RgbPixel*, %struct.RgbPixel** %.flt84, align 8, !taffo.structinfo !402, !taffo.initweight !150, !llfi_index !1260
  %178 = sext i32 %.25 to i64, !llfi_index !1261
  %.flt130 = getelementptr inbounds %struct.RgbPixel, %struct.RgbPixel* %.flt109, i64 %178, !taffo.structinfo !402, !taffo.initweight !380, !llfi_index !1262
  %179 = getelementptr inbounds %struct.RgbPixel, %struct.RgbPixel* %.flt130, i32 0, i32 3, !taffo.info !24, !taffo.initweight !382, !llfi_index !1263
  %180 = load i32, i32* %179, align 4, !taffo.info !24, !taffo.initweight !606, !llfi_index !1264
  %181 = sext i32 %180 to i64, !taffo.info !24, !taffo.initweight !992, !llfi_index !1265
  %.flt144 = getelementptr inbounds %struct.Centroid, %struct.Centroid* %.flt64, i64 %181, !taffo.structinfo !132, !taffo.initweight !138, !llfi_index !1266
  %.flt150.s20_12fixp = getelementptr inbounds %struct.Centroid, %struct.Centroid* %.flt144, i32 0, i32 2, !taffo.info !29, !taffo.initweight !150, !llfi_index !1267
  %.flt156 = load float, float* %.flt150.s20_12fixp, align 4, !taffo.info !29, !taffo.initweight !380, !llfi_index !1268
  %182 = fmul float 4.096000e+03, %.flt156, !taffo.info !29, !llfi_index !1269
  %.flt156.fallback.s20_12fixp = fptosi float %182 to i32, !taffo.info !29, !llfi_index !1270
  %183 = sitofp i32 %.flt156.fallback.s20_12fixp to float, !taffo.info !29, !llfi_index !1271
  %184 = fdiv float %183, 4.096000e+03, !taffo.info !29, !llfi_index !1272
  %.flt28 = getelementptr inbounds %struct.RgbImage, %struct.RgbImage* %0, i32 0, i32 2, !taffo.structinfo !402, !taffo.initweight !25, !llfi_index !1273
  %.flt63 = load %struct.RgbPixel**, %struct.RgbPixel*** %.flt28, align 8, !taffo.structinfo !402, !taffo.initweight !27, !llfi_index !1274
  %185 = sext i32 %.2 to i64, !llfi_index !1275
  %.flt92 = getelementptr inbounds %struct.RgbPixel*, %struct.RgbPixel** %.flt63, i64 %185, !taffo.structinfo !402, !taffo.initweight !138, !llfi_index !1276
  %.flt116 = load %struct.RgbPixel*, %struct.RgbPixel** %.flt92, align 8, !taffo.structinfo !402, !taffo.initweight !150, !llfi_index !1277
  %186 = sext i32 %.25 to i64, !llfi_index !1278
  %.flt135 = getelementptr inbounds %struct.RgbPixel, %struct.RgbPixel* %.flt116, i64 %186, !taffo.structinfo !402, !taffo.initweight !380, !llfi_index !1279
  %187 = getelementptr inbounds %struct.RgbPixel, %struct.RgbPixel* %.flt135, i32 0, i32 2, !taffo.info !24, !taffo.initweight !382, !llfi_index !1280
  store float %184, float* %187, align 4, !taffo.info !29, !llfi_index !1281
  br label %188, !llfi_index !1282

188:                                              ; preds = %154
  %189 = add nsw i32 %.25, 1, !taffo.constinfo !111, !llfi_index !1283
  br label %150, !llvm.loop !1284, !llfi_index !1285

190:                                              ; preds = %150
  br label %191, !llfi_index !1286

191:                                              ; preds = %190
  %192 = add nsw i32 %.2, 1, !taffo.constinfo !111, !llfi_index !1287
  br label %145, !llvm.loop !1288, !llfi_index !1289

193:                                              ; preds = %145
  ret void, !llfi_index !1290
}

; Function Attrs: mustprogress noinline uwtable
define internal noundef float @_Z17euclideanDistanceP8RgbPixelP8Centroid.9(%struct.RgbPixel* noundef %0, %struct.Centroid* noundef %1) #0 !taffo.initweight !1291 !taffo.funinfo !1292 !taffo.sourceFunction !121 {
  %3 = getelementptr inbounds %struct.RgbPixel, %struct.RgbPixel* %0, i32 0, i32 0, !taffo.info !24, !taffo.initweight !25, !llfi_index !1293
  %4 = load float, float* %3, align 4, !taffo.info !24, !taffo.initweight !27, !llfi_index !1294
  %5 = getelementptr inbounds %struct.Centroid, %struct.Centroid* %1, i32 0, i32 0, !taffo.info !29, !taffo.initweight !25, !llfi_index !1295
  %6 = load float, float* %5, align 4, !taffo.info !29, !taffo.initweight !27, !llfi_index !1296
  %7 = fsub float %4, %6, !taffo.info !29, !taffo.initweight !138, !llfi_index !1297
  %8 = getelementptr inbounds %struct.RgbPixel, %struct.RgbPixel* %0, i32 0, i32 0, !taffo.info !24, !taffo.initweight !25, !llfi_index !1298
  %9 = load float, float* %8, align 4, !taffo.info !24, !taffo.initweight !27, !llfi_index !1299
  %10 = getelementptr inbounds %struct.Centroid, %struct.Centroid* %1, i32 0, i32 0, !taffo.info !29, !taffo.initweight !25, !llfi_index !1300
  %11 = load float, float* %10, align 4, !taffo.info !29, !taffo.initweight !27, !llfi_index !1301
  %12 = fsub float %9, %11, !taffo.info !29, !taffo.initweight !138, !llfi_index !1302
  %13 = call float @llvm.fmuladd.f32(float %7, float %12, float 0.000000e+00), !taffo.info !29, !taffo.initweight !25, !taffo.constinfo !1303, !llfi_index !1304
  %14 = getelementptr inbounds %struct.RgbPixel, %struct.RgbPixel* %0, i32 0, i32 1, !taffo.info !24, !taffo.initweight !25, !llfi_index !1305
  %15 = load float, float* %14, align 4, !taffo.info !24, !taffo.initweight !27, !llfi_index !1306
  %16 = getelementptr inbounds %struct.Centroid, %struct.Centroid* %1, i32 0, i32 1, !taffo.info !29, !taffo.initweight !25, !llfi_index !1307
  %17 = load float, float* %16, align 4, !taffo.info !29, !taffo.initweight !27, !llfi_index !1308
  %18 = fsub float %15, %17, !taffo.info !29, !taffo.initweight !138, !llfi_index !1309
  %19 = getelementptr inbounds %struct.RgbPixel, %struct.RgbPixel* %0, i32 0, i32 1, !taffo.info !24, !taffo.initweight !25, !llfi_index !1310
  %20 = load float, float* %19, align 4, !taffo.info !24, !taffo.initweight !27, !llfi_index !1311
  %21 = getelementptr inbounds %struct.Centroid, %struct.Centroid* %1, i32 0, i32 1, !taffo.info !29, !taffo.initweight !25, !llfi_index !1312
  %22 = load float, float* %21, align 4, !taffo.info !29, !taffo.initweight !27, !llfi_index !1313
  %23 = fsub float %20, %22, !taffo.info !29, !taffo.initweight !138, !llfi_index !1314
  %24 = call float @llvm.fmuladd.f32(float %18, float %23, float %13), !taffo.info !29, !taffo.initweight !25, !taffo.constinfo !202, !llfi_index !1315
  %25 = getelementptr inbounds %struct.RgbPixel, %struct.RgbPixel* %0, i32 0, i32 2, !taffo.info !24, !taffo.initweight !25, !llfi_index !1316
  %26 = load float, float* %25, align 4, !taffo.info !24, !taffo.initweight !27, !llfi_index !1317
  %27 = getelementptr inbounds %struct.Centroid, %struct.Centroid* %1, i32 0, i32 2, !taffo.info !29, !taffo.initweight !25, !llfi_index !1318
  %28 = load float, float* %27, align 4, !taffo.info !29, !taffo.initweight !27, !llfi_index !1319
  %29 = fsub float %26, %28, !taffo.info !29, !taffo.initweight !138, !llfi_index !1320
  %30 = getelementptr inbounds %struct.RgbPixel, %struct.RgbPixel* %0, i32 0, i32 2, !taffo.info !24, !taffo.initweight !25, !llfi_index !1321
  %31 = load float, float* %30, align 4, !taffo.info !24, !taffo.initweight !27, !llfi_index !1322
  %32 = getelementptr inbounds %struct.Centroid, %struct.Centroid* %1, i32 0, i32 2, !taffo.info !29, !taffo.initweight !25, !llfi_index !1323
  %33 = load float, float* %32, align 4, !taffo.info !29, !taffo.initweight !27, !llfi_index !1324
  %34 = fsub float %31, %33, !taffo.info !29, !taffo.initweight !138, !llfi_index !1325
  %35 = call float @llvm.fmuladd.f32(float %29, float %34, float %24), !taffo.info !107, !taffo.initweight !25, !taffo.constinfo !202, !llfi_index !1326
  %36 = call noundef float @_ZSt4sqrtf.8.14(float noundef %35), !taffo.info !107, !taffo.initweight !25, !taffo.constinfo !111, !taffo.originalCall !1327, !llfi_index !1328
  %37 = fpext float %36 to double, !taffo.info !107, !taffo.initweight !27, !llfi_index !1329
  %38 = fptrunc double %37 to float, !taffo.info !110, !taffo.initweight !25, !llfi_index !1330
  ret float %38, !taffo.info !24, !taffo.initweight !27, !llfi_index !1331
}

; Function Attrs: mustprogress noinline uwtable
define internal noundef float @_Z17euclideanDistanceP8RgbPixelP8Centroid.10(%struct.RgbPixel* noundef %0, %struct.Centroid* noundef %1) #0 !taffo.initweight !1332 !taffo.equivalentChild !1333 !taffo.funinfo !1292 !taffo.sourceFunction !121 {
  %3 = getelementptr inbounds %struct.RgbPixel, %struct.RgbPixel* %0, i32 0, i32 0, !taffo.info !24, !taffo.initweight !25, !llfi_index !1334
  %4 = load float, float* %3, align 4, !taffo.info !24, !taffo.initweight !27, !llfi_index !1335
  %5 = getelementptr inbounds %struct.Centroid, %struct.Centroid* %1, i32 0, i32 0, !taffo.info !29, !taffo.initweight !25, !llfi_index !1336
  %6 = load float, float* %5, align 4, !taffo.info !29, !taffo.initweight !27, !llfi_index !1337
  %7 = fsub float %4, %6, !taffo.info !29, !taffo.initweight !138, !llfi_index !1338
  %8 = getelementptr inbounds %struct.RgbPixel, %struct.RgbPixel* %0, i32 0, i32 0, !taffo.info !24, !taffo.initweight !25, !llfi_index !1339
  %9 = load float, float* %8, align 4, !taffo.info !24, !taffo.initweight !27, !llfi_index !1340
  %10 = getelementptr inbounds %struct.Centroid, %struct.Centroid* %1, i32 0, i32 0, !taffo.info !29, !taffo.initweight !25, !llfi_index !1341
  %11 = load float, float* %10, align 4, !taffo.info !29, !taffo.initweight !27, !llfi_index !1342
  %12 = fsub float %9, %11, !taffo.info !29, !taffo.initweight !138, !llfi_index !1343
  %13 = call float @llvm.fmuladd.f32(float %7, float %12, float 0.000000e+00), !taffo.info !29, !taffo.initweight !25, !taffo.constinfo !1303, !llfi_index !1344
  %14 = getelementptr inbounds %struct.RgbPixel, %struct.RgbPixel* %0, i32 0, i32 1, !taffo.info !24, !taffo.initweight !25, !llfi_index !1345
  %15 = load float, float* %14, align 4, !taffo.info !24, !taffo.initweight !27, !llfi_index !1346
  %16 = getelementptr inbounds %struct.Centroid, %struct.Centroid* %1, i32 0, i32 1, !taffo.info !29, !taffo.initweight !25, !llfi_index !1347
  %17 = load float, float* %16, align 4, !taffo.info !29, !taffo.initweight !27, !llfi_index !1348
  %18 = fsub float %15, %17, !taffo.info !29, !taffo.initweight !138, !llfi_index !1349
  %19 = getelementptr inbounds %struct.RgbPixel, %struct.RgbPixel* %0, i32 0, i32 1, !taffo.info !24, !taffo.initweight !25, !llfi_index !1350
  %20 = load float, float* %19, align 4, !taffo.info !24, !taffo.initweight !27, !llfi_index !1351
  %21 = getelementptr inbounds %struct.Centroid, %struct.Centroid* %1, i32 0, i32 1, !taffo.info !29, !taffo.initweight !25, !llfi_index !1352
  %22 = load float, float* %21, align 4, !taffo.info !29, !taffo.initweight !27, !llfi_index !1353
  %23 = fsub float %20, %22, !taffo.info !29, !taffo.initweight !138, !llfi_index !1354
  %24 = call float @llvm.fmuladd.f32(float %18, float %23, float %13), !taffo.info !29, !taffo.initweight !25, !taffo.constinfo !202, !llfi_index !1355
  %25 = getelementptr inbounds %struct.RgbPixel, %struct.RgbPixel* %0, i32 0, i32 2, !taffo.info !24, !taffo.initweight !25, !llfi_index !1356
  %26 = load float, float* %25, align 4, !taffo.info !24, !taffo.initweight !27, !llfi_index !1357
  %27 = getelementptr inbounds %struct.Centroid, %struct.Centroid* %1, i32 0, i32 2, !taffo.info !29, !taffo.initweight !25, !llfi_index !1358
  %28 = load float, float* %27, align 4, !taffo.info !29, !taffo.initweight !27, !llfi_index !1359
  %29 = fsub float %26, %28, !taffo.info !29, !taffo.initweight !138, !llfi_index !1360
  %30 = getelementptr inbounds %struct.RgbPixel, %struct.RgbPixel* %0, i32 0, i32 2, !taffo.info !24, !taffo.initweight !25, !llfi_index !1361
  %31 = load float, float* %30, align 4, !taffo.info !24, !taffo.initweight !27, !llfi_index !1362
  %32 = getelementptr inbounds %struct.Centroid, %struct.Centroid* %1, i32 0, i32 2, !taffo.info !29, !taffo.initweight !25, !llfi_index !1363
  %33 = load float, float* %32, align 4, !taffo.info !29, !taffo.initweight !27, !llfi_index !1364
  %34 = fsub float %31, %33, !taffo.info !29, !taffo.initweight !138, !llfi_index !1365
  %35 = call float @llvm.fmuladd.f32(float %29, float %34, float %24), !taffo.info !107, !taffo.initweight !25, !taffo.constinfo !202, !llfi_index !1366
  %36 = call noundef float @_ZSt4sqrtf.8.14(float noundef %35), !taffo.info !107, !taffo.initweight !25, !taffo.constinfo !111, !taffo.originalCall !1327, !llfi_index !1367
  %37 = fpext float %36 to double, !taffo.info !107, !taffo.initweight !27, !llfi_index !1368
  %38 = fptrunc double %37 to float, !taffo.info !110, !taffo.initweight !25, !llfi_index !1369
  ret float %38, !taffo.info !24, !taffo.initweight !27, !llfi_index !1370
}

; Function Attrs: mustprogress noinline uwtable
define internal noundef float @_Z17euclideanDistanceP8RgbPixelP8Centroid.11(%struct.RgbPixel* noundef %0, %struct.Centroid* noundef %1) #0 !taffo.initweight !1332 !taffo.equivalentChild !1371 !taffo.funinfo !1292 !taffo.sourceFunction !121 {
  %3 = getelementptr inbounds %struct.RgbPixel, %struct.RgbPixel* %0, i32 0, i32 0, !taffo.info !24, !taffo.initweight !25, !llfi_index !1372
  %4 = load float, float* %3, align 4, !taffo.info !24, !taffo.initweight !27, !llfi_index !1373
  %5 = getelementptr inbounds %struct.Centroid, %struct.Centroid* %1, i32 0, i32 0, !taffo.info !29, !taffo.initweight !25, !llfi_index !1374
  %6 = load float, float* %5, align 4, !taffo.info !29, !taffo.initweight !27, !llfi_index !1375
  %7 = fsub float %4, %6, !taffo.info !29, !taffo.initweight !138, !llfi_index !1376
  %8 = getelementptr inbounds %struct.RgbPixel, %struct.RgbPixel* %0, i32 0, i32 0, !taffo.info !24, !taffo.initweight !25, !llfi_index !1377
  %9 = load float, float* %8, align 4, !taffo.info !24, !taffo.initweight !27, !llfi_index !1378
  %10 = getelementptr inbounds %struct.Centroid, %struct.Centroid* %1, i32 0, i32 0, !taffo.info !29, !taffo.initweight !25, !llfi_index !1379
  %11 = load float, float* %10, align 4, !taffo.info !29, !taffo.initweight !27, !llfi_index !1380
  %12 = fsub float %9, %11, !taffo.info !29, !taffo.initweight !138, !llfi_index !1381
  %13 = call float @llvm.fmuladd.f32(float %7, float %12, float 0.000000e+00), !taffo.info !29, !taffo.initweight !25, !taffo.constinfo !1303, !llfi_index !1382
  %14 = getelementptr inbounds %struct.RgbPixel, %struct.RgbPixel* %0, i32 0, i32 1, !taffo.info !24, !taffo.initweight !25, !llfi_index !1383
  %15 = load float, float* %14, align 4, !taffo.info !24, !taffo.initweight !27, !llfi_index !1384
  %16 = getelementptr inbounds %struct.Centroid, %struct.Centroid* %1, i32 0, i32 1, !taffo.info !29, !taffo.initweight !25, !llfi_index !1385
  %17 = load float, float* %16, align 4, !taffo.info !29, !taffo.initweight !27, !llfi_index !1386
  %18 = fsub float %15, %17, !taffo.info !29, !taffo.initweight !138, !llfi_index !1387
  %19 = getelementptr inbounds %struct.RgbPixel, %struct.RgbPixel* %0, i32 0, i32 1, !taffo.info !24, !taffo.initweight !25, !llfi_index !1388
  %20 = load float, float* %19, align 4, !taffo.info !24, !taffo.initweight !27, !llfi_index !1389
  %21 = getelementptr inbounds %struct.Centroid, %struct.Centroid* %1, i32 0, i32 1, !taffo.info !29, !taffo.initweight !25, !llfi_index !1390
  %22 = load float, float* %21, align 4, !taffo.info !29, !taffo.initweight !27, !llfi_index !1391
  %23 = fsub float %20, %22, !taffo.info !29, !taffo.initweight !138, !llfi_index !1392
  %24 = call float @llvm.fmuladd.f32(float %18, float %23, float %13), !taffo.info !29, !taffo.initweight !25, !taffo.constinfo !202, !llfi_index !1393
  %25 = getelementptr inbounds %struct.RgbPixel, %struct.RgbPixel* %0, i32 0, i32 2, !taffo.info !24, !taffo.initweight !25, !llfi_index !1394
  %26 = load float, float* %25, align 4, !taffo.info !24, !taffo.initweight !27, !llfi_index !1395
  %27 = getelementptr inbounds %struct.Centroid, %struct.Centroid* %1, i32 0, i32 2, !taffo.info !29, !taffo.initweight !25, !llfi_index !1396
  %28 = load float, float* %27, align 4, !taffo.info !29, !taffo.initweight !27, !llfi_index !1397
  %29 = fsub float %26, %28, !taffo.info !29, !taffo.initweight !138, !llfi_index !1398
  %30 = getelementptr inbounds %struct.RgbPixel, %struct.RgbPixel* %0, i32 0, i32 2, !taffo.info !24, !taffo.initweight !25, !llfi_index !1399
  %31 = load float, float* %30, align 4, !taffo.info !24, !taffo.initweight !27, !llfi_index !1400
  %32 = getelementptr inbounds %struct.Centroid, %struct.Centroid* %1, i32 0, i32 2, !taffo.info !29, !taffo.initweight !25, !llfi_index !1401
  %33 = load float, float* %32, align 4, !taffo.info !29, !taffo.initweight !27, !llfi_index !1402
  %34 = fsub float %31, %33, !taffo.info !29, !taffo.initweight !138, !llfi_index !1403
  %35 = call float @llvm.fmuladd.f32(float %29, float %34, float %24), !taffo.info !107, !taffo.initweight !25, !taffo.constinfo !202, !llfi_index !1404
  %36 = call noundef float @_ZSt4sqrtf.8.14(float noundef %35), !taffo.info !107, !taffo.initweight !25, !taffo.constinfo !111, !taffo.originalCall !1327, !llfi_index !1405
  %37 = fpext float %36 to double, !taffo.info !107, !taffo.initweight !27, !llfi_index !1406
  %38 = fptrunc double %37 to float, !taffo.info !110, !taffo.initweight !25, !llfi_index !1407
  ret float %38, !taffo.info !24, !taffo.initweight !27, !llfi_index !1408
}

; Function Attrs: mustprogress noinline nounwind uwtable
define internal noundef float @_ZSt4sqrtf.8.14(float noundef %0) #7 !taffo.initweight !25 !taffo.funinfo !1409 !taffo.sourceFunction !1327 {
  %2 = call float @sqrtf(float noundef %0) #10, !taffo.info !107, !taffo.initweight !150, !taffo.constinfo !111, !llfi_index !1410
  ret float %2, !taffo.info !1411, !taffo.initweight !380, !llfi_index !1412
}

; Function Attrs: mustprogress noinline nounwind uwtable
define internal void @_Z12freeClustersP8Clusters.5_fixp({ i32, { i32, i32, i32, i32 }* }* noundef %".<u0_0fixp,<s20_12fixp,s20_12fixp,s20_12fixp,u0_0fixp>>") #7 !taffo.initweight !1413 !taffo.funinfo !1414 !taffo.sourceFunction !1423 {
  %1 = bitcast { i32, { i32, i32, i32, i32 }* }* %".<u0_0fixp,<s20_12fixp,s20_12fixp,s20_12fixp,u0_0fixp>>" to %struct.Clusters*, !llfi_index !1424
  %2 = icmp ne %struct.Clusters* %1, null, !taffo.info !140, !taffo.initweight !25, !llfi_index !1425
  br i1 %2, label %3, label %8, !taffo.info !24, !taffo.initweight !27, !llfi_index !1426

3:                                                ; preds = %0
  %4 = getelementptr inbounds { i32, { i32, i32, i32, i32 }* }, { i32, { i32, i32, i32, i32 }* }* %".<u0_0fixp,<s20_12fixp,s20_12fixp,s20_12fixp,u0_0fixp>>", i32 0, i32 1, !llfi_index !1427
  %5 = load { i32, i32, i32, i32 }*, { i32, i32, i32, i32 }** %4, align 8, !llfi_index !1428
  %6 = bitcast { i32, i32, i32, i32 }* %5 to %struct.Centroid*, !llfi_index !1429
  %7 = bitcast %struct.Centroid* %6 to i8*, !taffo.info !140, !taffo.initweight !138, !llfi_index !1430
  call void @free(i8* noundef %7) #10, !taffo.info !24, !taffo.initweight !150, !taffo.constinfo !111, !llfi_index !1431
  br label %8, !llfi_index !1432

8:                                                ; preds = %3, %0
  ret void, !llfi_index !1433
}

; Function Attrs: mustprogress noinline uwtable
define internal noundef i32 @_Z12initClustersP8Clustersif.7_fixp({ i32, { i32, i32, i32, i32 }* }* noundef %".<u0_0fixp,<s20_12fixp,s20_12fixp,s20_12fixp,u0_0fixp>>", i32 noundef %0, float noundef %1) #0 !taffo.initweight !1434 !taffo.funinfo !1435 !taffo.sourceFunction !1436 {
  %3 = fmul float 0x41E0000000000000, %1, !taffo.info !199, !llfi_index !1437
  %4 = fptoui float %3 to i32, !taffo.info !199, !llfi_index !1438
  %5 = fmul float 0x41E0000000000000, %1, !taffo.info !199, !llfi_index !1439
  %6 = fptoui float %5 to i32, !taffo.info !199, !llfi_index !1440
  %7 = fmul float 0x41E0000000000000, %1, !taffo.info !199, !llfi_index !1441
  %8 = fptoui float %7 to i32, !taffo.info !199, !llfi_index !1442
  %9 = sext i32 %0 to i64, !taffo.info !1416, !llfi_index !1443
  %10 = mul i64 %9, 16, !taffo.info !1444, !taffo.constinfo !111, !llfi_index !1446
  %11 = call noalias i8* @malloc(i64 noundef %10) #12, !taffo.constinfo !111, !llfi_index !1447
  %12 = bitcast i8* %11 to %struct.Centroid*, !llfi_index !1448
  %13 = getelementptr inbounds { i32, { i32, i32, i32, i32 }* }, { i32, { i32, i32, i32, i32 }* }* %".<u0_0fixp,<s20_12fixp,s20_12fixp,s20_12fixp,u0_0fixp>>", i32 0, i32 1, !llfi_index !1449
  %14 = bitcast %struct.Centroid* %12 to { i32, i32, i32, i32 }*, !llfi_index !1450
  store { i32, i32, i32, i32 }* %14, { i32, i32, i32, i32 }** %13, align 8, !llfi_index !1451
  %15 = bitcast { i32, { i32, i32, i32, i32 }* }* %".<u0_0fixp,<s20_12fixp,s20_12fixp,s20_12fixp,u0_0fixp>>" to %struct.Clusters*, !llfi_index !1452
  %16 = icmp eq %struct.Clusters* %15, null, !taffo.info !140, !taffo.initweight !25, !llfi_index !1453
  br i1 %16, label %17, label %19, !taffo.info !24, !taffo.initweight !27, !llfi_index !1454

17:                                               ; preds = %2
  %18 = call i32 (i8*, ...) @printf(i8* noundef getelementptr inbounds ([57 x i8], [57 x i8]* @.str.3.33, i64 0, i64 0)), !taffo.constinfo !111, !llfi_index !1455
  br label %73, !llfi_index !1456

19:                                               ; preds = %2
  %matchop = getelementptr inbounds { i32, { i32, i32, i32, i32 }* }, { i32, { i32, i32, i32, i32 }* }* %".<u0_0fixp,<s20_12fixp,s20_12fixp,s20_12fixp,u0_0fixp>>", i32 0, i32 0, !taffo.info !140, !llfi_index !1457
  store i32 %0, i32* %matchop, align 8, !taffo.info !24, !llfi_index !1458
  br label %20, !llfi_index !1459

20:                                               ; preds = %70, %19
  %.01 = phi i32 [ 0, %19 ], [ %71, %70 ], !taffo.info !298, !llfi_index !1460
  %matchop3 = getelementptr inbounds { i32, { i32, i32, i32, i32 }* }, { i32, { i32, i32, i32, i32 }* }* %".<u0_0fixp,<s20_12fixp,s20_12fixp,s20_12fixp,u0_0fixp>>", i32 0, i32 0, !taffo.info !140, !llfi_index !1461
  %21 = load i32, i32* %matchop3, align 8, !taffo.info !140, !taffo.initweight !27, !llfi_index !1462
  %22 = icmp slt i32 %.01, %21, !taffo.info !140, !taffo.initweight !138, !llfi_index !1463
  br i1 %22, label %23, label %72, !taffo.info !24, !taffo.initweight !150, !llfi_index !1464

23:                                               ; preds = %20
  %24 = call i32 @rand() #10, !taffo.info !1465, !taffo.constinfo !836, !llfi_index !1467
  %25 = sitofp i32 %24 to float, !taffo.info !1465, !llfi_index !1468
  %26 = fdiv float %25, 0x41E0000000000000, !taffo.info !1469, !taffo.constinfo !839, !llfi_index !1471
  %27 = fmul float 0x41E0000000000000, %26, !taffo.info !1469, !taffo.constinfo !839, !llfi_index !1472
  %28 = fptoui float %27 to i32, !taffo.info !1469, !llfi_index !1473
  %29 = zext i32 %28 to i64, !taffo.info !1469, !llfi_index !1474
  %30 = zext i32 %8 to i64, !taffo.info !199, !llfi_index !1475
  %31 = mul i64 %29, %30, !taffo.info !1476, !llfi_index !1478
  %32 = lshr i64 %31, 31, !taffo.info !1476, !llfi_index !1479
  %u1_31fixp = trunc i64 %32 to i32, !taffo.info !1480, !llfi_index !1482
  %33 = getelementptr inbounds { i32, { i32, i32, i32, i32 }* }, { i32, { i32, i32, i32, i32 }* }* %".<u0_0fixp,<s20_12fixp,s20_12fixp,s20_12fixp,u0_0fixp>>", i32 0, i32 1, !llfi_index !1483
  %34 = load { i32, i32, i32, i32 }*, { i32, i32, i32, i32 }** %33, align 8, !llfi_index !1484
  %35 = sext i32 %.01 to i64, !taffo.info !0, !llfi_index !1485
  %36 = getelementptr inbounds { i32, i32, i32, i32 }, { i32, i32, i32, i32 }* %34, i64 %35, !llfi_index !1486
  %s20_12fixp = getelementptr inbounds { i32, i32, i32, i32 }, { i32, i32, i32, i32 }* %36, i32 0, i32 0, !taffo.info !1419, !llfi_index !1487
  %37 = lshr i32 %u1_31fixp, 19, !taffo.info !1480, !llfi_index !1488
  store i32 %37, i32* %s20_12fixp, align 4, !taffo.info !24, !llfi_index !1489
  %38 = call i32 @rand() #10, !taffo.info !1465, !taffo.constinfo !836, !llfi_index !1490
  %39 = sitofp i32 %38 to float, !taffo.info !1465, !llfi_index !1491
  %40 = fdiv float %39, 0x41E0000000000000, !taffo.info !1469, !taffo.constinfo !839, !llfi_index !1492
  %41 = fmul float 0x41E0000000000000, %40, !taffo.info !1469, !taffo.constinfo !839, !llfi_index !1493
  %42 = fptoui float %41 to i32, !taffo.info !1469, !llfi_index !1494
  %43 = zext i32 %42 to i64, !taffo.info !1469, !llfi_index !1495
  %44 = zext i32 %6 to i64, !taffo.info !199, !llfi_index !1496
  %45 = mul i64 %43, %44, !taffo.info !1476, !llfi_index !1497
  %46 = lshr i64 %45, 31, !taffo.info !1476, !llfi_index !1498
  %u1_31fixp1 = trunc i64 %46 to i32, !taffo.info !1480, !llfi_index !1499
  %47 = getelementptr inbounds { i32, { i32, i32, i32, i32 }* }, { i32, { i32, i32, i32, i32 }* }* %".<u0_0fixp,<s20_12fixp,s20_12fixp,s20_12fixp,u0_0fixp>>", i32 0, i32 1, !llfi_index !1500
  %48 = load { i32, i32, i32, i32 }*, { i32, i32, i32, i32 }** %47, align 8, !llfi_index !1501
  %49 = sext i32 %.01 to i64, !taffo.info !0, !llfi_index !1502
  %50 = getelementptr inbounds { i32, i32, i32, i32 }, { i32, i32, i32, i32 }* %48, i64 %49, !llfi_index !1503
  %s20_12fixp4 = getelementptr inbounds { i32, i32, i32, i32 }, { i32, i32, i32, i32 }* %50, i32 0, i32 1, !taffo.info !1419, !llfi_index !1504
  %51 = lshr i32 %u1_31fixp1, 19, !taffo.info !1480, !llfi_index !1505
  store i32 %51, i32* %s20_12fixp4, align 4, !taffo.info !24, !llfi_index !1506
  %52 = call i32 @rand() #10, !taffo.info !1465, !taffo.constinfo !836, !llfi_index !1507
  %53 = sitofp i32 %52 to float, !taffo.info !1465, !llfi_index !1508
  %54 = fdiv float %53, 0x41E0000000000000, !taffo.info !1469, !taffo.constinfo !839, !llfi_index !1509
  %55 = fmul float 0x41E0000000000000, %54, !taffo.info !1469, !taffo.constinfo !839, !llfi_index !1510
  %56 = fptoui float %55 to i32, !taffo.info !1469, !llfi_index !1511
  %57 = zext i32 %56 to i64, !taffo.info !1469, !llfi_index !1512
  %58 = zext i32 %4 to i64, !taffo.info !199, !llfi_index !1513
  %59 = mul i64 %57, %58, !taffo.info !1476, !llfi_index !1514
  %60 = lshr i64 %59, 31, !taffo.info !1476, !llfi_index !1515
  %u1_31fixp2 = trunc i64 %60 to i32, !taffo.info !1480, !llfi_index !1516
  %61 = getelementptr inbounds { i32, { i32, i32, i32, i32 }* }, { i32, { i32, i32, i32, i32 }* }* %".<u0_0fixp,<s20_12fixp,s20_12fixp,s20_12fixp,u0_0fixp>>", i32 0, i32 1, !llfi_index !1517
  %62 = load { i32, i32, i32, i32 }*, { i32, i32, i32, i32 }** %61, align 8, !llfi_index !1518
  %63 = sext i32 %.01 to i64, !taffo.info !0, !llfi_index !1519
  %64 = getelementptr inbounds { i32, i32, i32, i32 }, { i32, i32, i32, i32 }* %62, i64 %63, !llfi_index !1520
  %s20_12fixp5 = getelementptr inbounds { i32, i32, i32, i32 }, { i32, i32, i32, i32 }* %64, i32 0, i32 2, !taffo.info !1419, !llfi_index !1521
  %65 = lshr i32 %u1_31fixp2, 19, !taffo.info !1480, !llfi_index !1522
  store i32 %65, i32* %s20_12fixp5, align 4, !taffo.info !24, !llfi_index !1523
  %66 = getelementptr inbounds { i32, { i32, i32, i32, i32 }* }, { i32, { i32, i32, i32, i32 }* }* %".<u0_0fixp,<s20_12fixp,s20_12fixp,s20_12fixp,u0_0fixp>>", i32 0, i32 1, !llfi_index !1524
  %67 = load { i32, i32, i32, i32 }*, { i32, i32, i32, i32 }** %66, align 8, !llfi_index !1525
  %68 = sext i32 %.01 to i64, !taffo.info !0, !llfi_index !1526
  %69 = getelementptr inbounds { i32, i32, i32, i32 }, { i32, i32, i32, i32 }* %67, i64 %68, !llfi_index !1527
  %matchop6 = getelementptr inbounds { i32, i32, i32, i32 }, { i32, i32, i32, i32 }* %69, i32 0, i32 3, !taffo.info !1421, !llfi_index !1528
  store i32 0, i32* %matchop6, align 4, !taffo.info !133, !taffo.constinfo !111, !llfi_index !1529
  br label %70, !llfi_index !1530

70:                                               ; preds = %23
  %71 = add nsw i32 %.01, 1, !taffo.info !199, !taffo.constinfo !111, !llfi_index !1531
  br label %20, !llvm.loop !1532, !llfi_index !1533

72:                                               ; preds = %20
  br label %73, !llfi_index !1534

73:                                               ; preds = %72, %17
  %.0 = phi i32 [ 0, %17 ], [ 1, %72 ], !taffo.info !298, !llfi_index !1535
  ret i32 %.0, !llfi_index !1536
}

; Function Attrs: mustprogress noinline nounwind uwtable
define internal void @_Z12freeRgbImageP8RgbImage.1_fixp({ i32, i32, { i32, i32, i32, i32, i32 }**, i8* }* noundef %".<u0_0fixp,u0_0fixp,<u27_5fixp,u27_5fixp,u27_5fixp,u0_0fixp,u2_30fixp>,u0_0fixp>") #7 !taffo.initweight !1413 !taffo.funinfo !1537 !taffo.sourceFunction !1544 {
  %matchop = getelementptr inbounds { i32, i32, { i32, i32, i32, i32, i32 }**, i8* }, { i32, i32, { i32, i32, i32, i32, i32 }**, i8* }* %".<u0_0fixp,u0_0fixp,<u27_5fixp,u27_5fixp,u27_5fixp,u0_0fixp,u2_30fixp>,u0_0fixp>", i32 0, i32 3, !taffo.info !140, !llfi_index !1545
  %1 = load i8*, i8** %matchop, align 8, !taffo.info !140, !taffo.initweight !150, !llfi_index !1546
  %2 = icmp ne i8* %1, null, !taffo.info !140, !taffo.initweight !380, !llfi_index !1547
  br i1 %2, label %3, label %5, !taffo.info !24, !taffo.initweight !382, !llfi_index !1548

3:                                                ; preds = %0
  %matchop1 = getelementptr inbounds { i32, i32, { i32, i32, i32, i32, i32 }**, i8* }, { i32, i32, { i32, i32, i32, i32, i32 }**, i8* }* %".<u0_0fixp,u0_0fixp,<u27_5fixp,u27_5fixp,u27_5fixp,u0_0fixp,u2_30fixp>,u0_0fixp>", i32 0, i32 3, !taffo.info !140, !llfi_index !1549
  %4 = load i8*, i8** %matchop1, align 8, !taffo.info !140, !taffo.initweight !150, !llfi_index !1550
  call void @free(i8* noundef %4) #10, !taffo.info !24, !taffo.initweight !380, !taffo.constinfo !111, !llfi_index !1551
  br label %5, !llfi_index !1552

5:                                                ; preds = %3, %0
  %6 = getelementptr inbounds { i32, i32, { i32, i32, i32, i32, i32 }**, i8* }, { i32, i32, { i32, i32, i32, i32, i32 }**, i8* }* %".<u0_0fixp,u0_0fixp,<u27_5fixp,u27_5fixp,u27_5fixp,u0_0fixp,u2_30fixp>,u0_0fixp>", i32 0, i32 2, !llfi_index !1553
  %7 = load { i32, i32, i32, i32, i32 }**, { i32, i32, i32, i32, i32 }*** %6, align 8, !llfi_index !1554
  %8 = bitcast { i32, i32, i32, i32, i32 }** %7 to %struct.RgbPixel**, !llfi_index !1555
  %9 = icmp eq %struct.RgbPixel** %8, null, !taffo.info !140, !taffo.initweight !380, !llfi_index !1556
  br i1 %9, label %10, label %11, !taffo.info !24, !taffo.initweight !382, !llfi_index !1557

10:                                               ; preds = %5
  br label %36, !llfi_index !1558

11:                                               ; preds = %5
  br label %12, !llfi_index !1559

12:                                               ; preds = %29, %11
  %.0 = phi i32 [ 0, %11 ], [ %30, %29 ], !taffo.info !298, !llfi_index !1560
  %matchop2 = getelementptr inbounds { i32, i32, { i32, i32, i32, i32, i32 }**, i8* }, { i32, i32, { i32, i32, i32, i32, i32 }**, i8* }* %".<u0_0fixp,u0_0fixp,<u27_5fixp,u27_5fixp,u27_5fixp,u0_0fixp,u2_30fixp>,u0_0fixp>", i32 0, i32 1, !taffo.info !140, !llfi_index !1561
  %13 = load i32, i32* %matchop2, align 4, !taffo.info !140, !taffo.initweight !150, !llfi_index !1562
  %14 = icmp slt i32 %.0, %13, !taffo.info !140, !taffo.initweight !380, !llfi_index !1563
  br i1 %14, label %15, label %31, !taffo.info !24, !taffo.initweight !382, !llfi_index !1564

15:                                               ; preds = %12
  %16 = getelementptr inbounds { i32, i32, { i32, i32, i32, i32, i32 }**, i8* }, { i32, i32, { i32, i32, i32, i32, i32 }**, i8* }* %".<u0_0fixp,u0_0fixp,<u27_5fixp,u27_5fixp,u27_5fixp,u0_0fixp,u2_30fixp>,u0_0fixp>", i32 0, i32 2, !llfi_index !1565
  %17 = load { i32, i32, i32, i32, i32 }**, { i32, i32, i32, i32, i32 }*** %16, align 8, !llfi_index !1566
  %18 = bitcast { i32, i32, i32, i32, i32 }** %17 to %struct.RgbPixel**, !llfi_index !1567
  %19 = icmp ne %struct.RgbPixel** %18, null, !taffo.info !140, !taffo.initweight !380, !llfi_index !1568
  br i1 %19, label %20, label %28, !taffo.info !24, !taffo.initweight !382, !llfi_index !1569

20:                                               ; preds = %15
  %21 = getelementptr inbounds { i32, i32, { i32, i32, i32, i32, i32 }**, i8* }, { i32, i32, { i32, i32, i32, i32, i32 }**, i8* }* %".<u0_0fixp,u0_0fixp,<u27_5fixp,u27_5fixp,u27_5fixp,u0_0fixp,u2_30fixp>,u0_0fixp>", i32 0, i32 2, !llfi_index !1570
  %22 = load { i32, i32, i32, i32, i32 }**, { i32, i32, i32, i32, i32 }*** %21, align 8, !llfi_index !1571
  %23 = sext i32 %.0 to i64, !taffo.info !0, !llfi_index !1572
  %24 = getelementptr inbounds { i32, i32, i32, i32, i32 }*, { i32, i32, i32, i32, i32 }** %22, i64 %23, !llfi_index !1573
  %25 = load { i32, i32, i32, i32, i32 }*, { i32, i32, i32, i32, i32 }** %24, align 8, !llfi_index !1574
  %26 = bitcast { i32, i32, i32, i32, i32 }* %25 to %struct.RgbPixel*, !llfi_index !1575
  %27 = bitcast %struct.RgbPixel* %26 to i8*, !taffo.info !140, !taffo.initweight !606, !llfi_index !1576
  call void @free(i8* noundef %27) #10, !taffo.info !24, !taffo.initweight !992, !taffo.constinfo !111, !llfi_index !1577
  br label %28, !llfi_index !1578

28:                                               ; preds = %20, %15
  br label %29, !llfi_index !1579

29:                                               ; preds = %28
  %30 = add nsw i32 %.0, 1, !taffo.info !199, !taffo.constinfo !111, !llfi_index !1580
  br label %12, !llvm.loop !1581, !llfi_index !1582

31:                                               ; preds = %12
  %32 = getelementptr inbounds { i32, i32, { i32, i32, i32, i32, i32 }**, i8* }, { i32, i32, { i32, i32, i32, i32, i32 }**, i8* }* %".<u0_0fixp,u0_0fixp,<u27_5fixp,u27_5fixp,u27_5fixp,u0_0fixp,u2_30fixp>,u0_0fixp>", i32 0, i32 2, !llfi_index !1583
  %33 = load { i32, i32, i32, i32, i32 }**, { i32, i32, i32, i32, i32 }*** %32, align 8, !llfi_index !1584
  %34 = bitcast { i32, i32, i32, i32, i32 }** %33 to %struct.RgbPixel**, !llfi_index !1585
  %35 = bitcast %struct.RgbPixel** %34 to i8*, !taffo.info !140, !taffo.initweight !380, !llfi_index !1586
  call void @free(i8* noundef %35) #10, !taffo.info !24, !taffo.initweight !382, !taffo.constinfo !111, !llfi_index !1587
  br label %36, !llfi_index !1588

36:                                               ; preds = %31, %10
  ret void, !llfi_index !1589
}

; Function Attrs: mustprogress noinline uwtable
define internal noundef i32 @_Z12saveRgbImageP8RgbImagePKcf.2_fixp({ i32, i32, { i32, i32, i32, i32, i32 }**, i8* }* noundef %".<u0_0fixp,u0_0fixp,<u27_5fixp,u27_5fixp,u27_5fixp,u0_0fixp,u2_30fixp>,u0_0fixp>", i8* noundef %0, float noundef %1) #0 !taffo.initweight !1434 !taffo.funinfo !1590 !taffo.sourceFunction !1591 {
  %3 = fmul float 0x4370000000000000, %1, !taffo.info !218, !llfi_index !1592
  %4 = fptoui float %3 to i64, !taffo.info !218, !llfi_index !1593
  %5 = fmul float 0x4370000000000000, %1, !taffo.info !218, !llfi_index !1594
  %6 = fptoui float %5 to i64, !taffo.info !218, !llfi_index !1595
  %7 = fmul float 0x4370000000000000, %1, !taffo.info !218, !llfi_index !1596
  %8 = fptoui float %7 to i64, !taffo.info !218, !llfi_index !1597
  %9 = fmul float 0x4370000000000000, %1, !taffo.info !218, !llfi_index !1598
  %10 = fptoui float %9 to i64, !taffo.info !218, !llfi_index !1599
  %11 = fmul float 0x4370000000000000, %1, !taffo.info !218, !llfi_index !1600
  %12 = fptoui float %11 to i64, !taffo.info !218, !llfi_index !1601
  %13 = fmul float 0x4370000000000000, %1, !taffo.info !218, !llfi_index !1602
  %14 = fptoui float %13 to i64, !taffo.info !218, !llfi_index !1603
  %15 = call noalias %struct._IO_FILE* @fopen(i8* noundef %0, i8* noundef getelementptr inbounds ([2 x i8], [2 x i8]* @.str.9, i64 0, i64 0)), !taffo.constinfo !120, !llfi_index !1604
  %16 = icmp ne %struct._IO_FILE* %15, null, !taffo.info !298, !llfi_index !1605
  br i1 %16, label %19, label %17, !llfi_index !1606

17:                                               ; preds = %2
  %18 = call i32 (i8*, ...) @printf(i8* noundef getelementptr inbounds ([32 x i8], [32 x i8]* @.str.6.22, i64 0, i64 0), i8* noundef %0), !taffo.constinfo !120, !llfi_index !1607
  br label %119, !llfi_index !1608

19:                                               ; preds = %2
  %matchop = getelementptr inbounds { i32, i32, { i32, i32, i32, i32, i32 }**, i8* }, { i32, i32, { i32, i32, i32, i32, i32 }**, i8* }* %".<u0_0fixp,u0_0fixp,<u27_5fixp,u27_5fixp,u27_5fixp,u0_0fixp,u2_30fixp>,u0_0fixp>", i32 0, i32 0, !taffo.info !140, !llfi_index !1609
  %20 = load i32, i32* %matchop, align 8, !taffo.info !140, !taffo.initweight !27, !llfi_index !1610
  %matchop1 = getelementptr inbounds { i32, i32, { i32, i32, i32, i32, i32 }**, i8* }, { i32, i32, { i32, i32, i32, i32, i32 }**, i8* }* %".<u0_0fixp,u0_0fixp,<u27_5fixp,u27_5fixp,u27_5fixp,u0_0fixp,u2_30fixp>,u0_0fixp>", i32 0, i32 1, !taffo.info !140, !llfi_index !1611
  %21 = load i32, i32* %matchop1, align 4, !taffo.info !140, !taffo.initweight !27, !llfi_index !1612
  %22 = call i32 (%struct._IO_FILE*, i8*, ...) @fprintf(%struct._IO_FILE* noundef %15, i8* noundef getelementptr inbounds ([7 x i8], [7 x i8]* @.str.10, i64 0, i64 0), i32 noundef %20, i32 noundef %21), !taffo.info !140, !taffo.initweight !138, !taffo.constinfo !206, !llfi_index !1613
  br label %23, !llfi_index !1614

23:                                               ; preds = %113, %19
  %.02 = phi i32 [ 0, %19 ], [ %114, %113 ], !taffo.info !298, !llfi_index !1615
  %matchop2 = getelementptr inbounds { i32, i32, { i32, i32, i32, i32, i32 }**, i8* }, { i32, i32, { i32, i32, i32, i32, i32 }**, i8* }* %".<u0_0fixp,u0_0fixp,<u27_5fixp,u27_5fixp,u27_5fixp,u0_0fixp,u2_30fixp>,u0_0fixp>", i32 0, i32 1, !taffo.info !140, !llfi_index !1616
  %24 = load i32, i32* %matchop2, align 4, !taffo.info !140, !taffo.initweight !27, !llfi_index !1617
  %25 = icmp slt i32 %.02, %24, !taffo.info !140, !taffo.initweight !138, !llfi_index !1618
  br i1 %25, label %26, label %115, !taffo.info !24, !taffo.initweight !150, !llfi_index !1619

26:                                               ; preds = %23
  br label %27, !llfi_index !1620

27:                                               ; preds = %71, %26
  %.01 = phi i32 [ 0, %26 ], [ %72, %71 ], !taffo.info !298, !llfi_index !1621
  %matchop3 = getelementptr inbounds { i32, i32, { i32, i32, i32, i32, i32 }**, i8* }, { i32, i32, { i32, i32, i32, i32, i32 }**, i8* }* %".<u0_0fixp,u0_0fixp,<u27_5fixp,u27_5fixp,u27_5fixp,u0_0fixp,u2_30fixp>,u0_0fixp>", i32 0, i32 0, !taffo.info !140, !llfi_index !1622
  %28 = load i32, i32* %matchop3, align 8, !taffo.info !140, !taffo.initweight !27, !llfi_index !1623
  %29 = sub nsw i32 %28, 1, !taffo.info !140, !taffo.initweight !138, !taffo.constinfo !111, !llfi_index !1624
  %30 = icmp slt i32 %.01, %29, !taffo.info !140, !taffo.initweight !150, !llfi_index !1625
  br i1 %30, label %31, label %73, !taffo.info !24, !taffo.initweight !380, !llfi_index !1626

31:                                               ; preds = %27
  %32 = getelementptr inbounds { i32, i32, { i32, i32, i32, i32, i32 }**, i8* }, { i32, i32, { i32, i32, i32, i32, i32 }**, i8* }* %".<u0_0fixp,u0_0fixp,<u27_5fixp,u27_5fixp,u27_5fixp,u0_0fixp,u2_30fixp>,u0_0fixp>", i32 0, i32 2, !llfi_index !1627
  %33 = load { i32, i32, i32, i32, i32 }**, { i32, i32, i32, i32, i32 }*** %32, align 8, !llfi_index !1628
  %34 = sext i32 %.02 to i64, !taffo.info !0, !llfi_index !1629
  %35 = getelementptr inbounds { i32, i32, i32, i32, i32 }*, { i32, i32, i32, i32, i32 }** %33, i64 %34, !llfi_index !1630
  %36 = load { i32, i32, i32, i32, i32 }*, { i32, i32, i32, i32, i32 }** %35, align 8, !llfi_index !1631
  %37 = sext i32 %.01 to i64, !taffo.info !0, !llfi_index !1632
  %38 = getelementptr inbounds { i32, i32, i32, i32, i32 }, { i32, i32, i32, i32, i32 }* %36, i64 %37, !llfi_index !1633
  %u27_5fixp = getelementptr inbounds { i32, i32, i32, i32, i32 }, { i32, i32, i32, i32, i32 }* %38, i32 0, i32 0, !taffo.info !1540, !llfi_index !1634
  %u27_5fixp10 = load i32, i32* %u27_5fixp, align 4, !taffo.info !1540, !llfi_index !1635
  %39 = zext i32 %u27_5fixp10 to i96, !taffo.info !1540, !llfi_index !1636
  %40 = zext i64 %14 to i96, !taffo.info !218, !llfi_index !1637
  %41 = mul i96 %39, %40, !taffo.info !1638, !llfi_index !1641
  %42 = lshr i96 %41, 32, !taffo.info !1638, !llfi_index !1642
  %u35_29fixp = trunc i96 %42 to i64, !taffo.info !1643, !llfi_index !1645
  %43 = lshr i64 %u35_29fixp, 29, !taffo.info !1643, !llfi_index !1646
  %44 = trunc i64 %43 to i32, !taffo.info !1647, !llfi_index !1648
  %45 = getelementptr inbounds { i32, i32, { i32, i32, i32, i32, i32 }**, i8* }, { i32, i32, { i32, i32, i32, i32, i32 }**, i8* }* %".<u0_0fixp,u0_0fixp,<u27_5fixp,u27_5fixp,u27_5fixp,u0_0fixp,u2_30fixp>,u0_0fixp>", i32 0, i32 2, !llfi_index !1649
  %46 = load { i32, i32, i32, i32, i32 }**, { i32, i32, i32, i32, i32 }*** %45, align 8, !llfi_index !1650
  %47 = sext i32 %.02 to i64, !taffo.info !0, !llfi_index !1651
  %48 = getelementptr inbounds { i32, i32, i32, i32, i32 }*, { i32, i32, i32, i32, i32 }** %46, i64 %47, !llfi_index !1652
  %49 = load { i32, i32, i32, i32, i32 }*, { i32, i32, i32, i32, i32 }** %48, align 8, !llfi_index !1653
  %50 = sext i32 %.01 to i64, !taffo.info !0, !llfi_index !1654
  %51 = getelementptr inbounds { i32, i32, i32, i32, i32 }, { i32, i32, i32, i32, i32 }* %49, i64 %50, !llfi_index !1655
  %u27_5fixp5 = getelementptr inbounds { i32, i32, i32, i32, i32 }, { i32, i32, i32, i32, i32 }* %51, i32 0, i32 1, !taffo.info !1540, !llfi_index !1656
  %u27_5fixp11 = load i32, i32* %u27_5fixp5, align 4, !taffo.info !1540, !llfi_index !1657
  %52 = zext i32 %u27_5fixp11 to i96, !taffo.info !1540, !llfi_index !1658
  %53 = zext i64 %12 to i96, !taffo.info !218, !llfi_index !1659
  %54 = mul i96 %52, %53, !taffo.info !1638, !llfi_index !1660
  %55 = lshr i96 %54, 32, !taffo.info !1638, !llfi_index !1661
  %u35_29fixp16 = trunc i96 %55 to i64, !taffo.info !1643, !llfi_index !1662
  %56 = lshr i64 %u35_29fixp16, 29, !taffo.info !1643, !llfi_index !1663
  %57 = trunc i64 %56 to i32, !taffo.info !1647, !llfi_index !1664
  %58 = getelementptr inbounds { i32, i32, { i32, i32, i32, i32, i32 }**, i8* }, { i32, i32, { i32, i32, i32, i32, i32 }**, i8* }* %".<u0_0fixp,u0_0fixp,<u27_5fixp,u27_5fixp,u27_5fixp,u0_0fixp,u2_30fixp>,u0_0fixp>", i32 0, i32 2, !llfi_index !1665
  %59 = load { i32, i32, i32, i32, i32 }**, { i32, i32, i32, i32, i32 }*** %58, align 8, !llfi_index !1666
  %60 = sext i32 %.02 to i64, !taffo.info !0, !llfi_index !1667
  %61 = getelementptr inbounds { i32, i32, i32, i32, i32 }*, { i32, i32, i32, i32, i32 }** %59, i64 %60, !llfi_index !1668
  %62 = load { i32, i32, i32, i32, i32 }*, { i32, i32, i32, i32, i32 }** %61, align 8, !llfi_index !1669
  %63 = sext i32 %.01 to i64, !taffo.info !0, !llfi_index !1670
  %64 = getelementptr inbounds { i32, i32, i32, i32, i32 }, { i32, i32, i32, i32, i32 }* %62, i64 %63, !llfi_index !1671
  %u27_5fixp6 = getelementptr inbounds { i32, i32, i32, i32, i32 }, { i32, i32, i32, i32, i32 }* %64, i32 0, i32 2, !taffo.info !1540, !llfi_index !1672
  %u27_5fixp12 = load i32, i32* %u27_5fixp6, align 4, !taffo.info !1540, !llfi_index !1673
  %65 = zext i32 %u27_5fixp12 to i96, !taffo.info !1540, !llfi_index !1674
  %66 = zext i64 %10 to i96, !taffo.info !218, !llfi_index !1675
  %67 = mul i96 %65, %66, !taffo.info !1638, !llfi_index !1676
  %68 = lshr i96 %67, 32, !taffo.info !1638, !llfi_index !1677
  %u35_29fixp17 = trunc i96 %68 to i64, !taffo.info !1643, !llfi_index !1678
  %69 = lshr i64 %u35_29fixp17, 29, !taffo.info !1643, !llfi_index !1679
  %70 = trunc i64 %69 to i32, !taffo.info !1647, !llfi_index !1680
  %.flt = call i32 (%struct._IO_FILE*, i8*, ...) @fprintf(%struct._IO_FILE* noundef %15, i8* noundef getelementptr inbounds ([10 x i8], [10 x i8]* @.str.11, i64 0, i64 0), i32 noundef %44, i32 noundef %57, i32 noundef %70), !taffo.info !1647, !taffo.initweight !138, !taffo.constinfo !184, !llfi_index !1681
  br label %71, !llfi_index !1682

71:                                               ; preds = %31
  %72 = add nsw i32 %.01, 1, !taffo.info !199, !taffo.constinfo !111, !llfi_index !1683
  br label %27, !llvm.loop !1684, !llfi_index !1685

73:                                               ; preds = %27
  %74 = getelementptr inbounds { i32, i32, { i32, i32, i32, i32, i32 }**, i8* }, { i32, i32, { i32, i32, i32, i32, i32 }**, i8* }* %".<u0_0fixp,u0_0fixp,<u27_5fixp,u27_5fixp,u27_5fixp,u0_0fixp,u2_30fixp>,u0_0fixp>", i32 0, i32 2, !llfi_index !1686
  %75 = load { i32, i32, i32, i32, i32 }**, { i32, i32, i32, i32, i32 }*** %74, align 8, !llfi_index !1687
  %76 = sext i32 %.02 to i64, !taffo.info !0, !llfi_index !1688
  %77 = getelementptr inbounds { i32, i32, i32, i32, i32 }*, { i32, i32, i32, i32, i32 }** %75, i64 %76, !llfi_index !1689
  %78 = load { i32, i32, i32, i32, i32 }*, { i32, i32, i32, i32, i32 }** %77, align 8, !llfi_index !1690
  %79 = sext i32 %.01 to i64, !taffo.info !298, !llfi_index !1691
  %80 = getelementptr inbounds { i32, i32, i32, i32, i32 }, { i32, i32, i32, i32, i32 }* %78, i64 %79, !llfi_index !1692
  %u27_5fixp7 = getelementptr inbounds { i32, i32, i32, i32, i32 }, { i32, i32, i32, i32, i32 }* %80, i32 0, i32 0, !taffo.info !1540, !llfi_index !1693
  %u27_5fixp13 = load i32, i32* %u27_5fixp7, align 4, !taffo.info !1540, !llfi_index !1694
  %81 = zext i32 %u27_5fixp13 to i96, !taffo.info !1540, !llfi_index !1695
  %82 = zext i64 %8 to i96, !taffo.info !218, !llfi_index !1696
  %83 = mul i96 %81, %82, !taffo.info !1638, !llfi_index !1697
  %84 = lshr i96 %83, 32, !taffo.info !1638, !llfi_index !1698
  %u35_29fixp18 = trunc i96 %84 to i64, !taffo.info !1643, !llfi_index !1699
  %85 = lshr i64 %u35_29fixp18, 29, !taffo.info !1643, !llfi_index !1700
  %86 = trunc i64 %85 to i32, !taffo.info !1647, !llfi_index !1701
  %87 = getelementptr inbounds { i32, i32, { i32, i32, i32, i32, i32 }**, i8* }, { i32, i32, { i32, i32, i32, i32, i32 }**, i8* }* %".<u0_0fixp,u0_0fixp,<u27_5fixp,u27_5fixp,u27_5fixp,u0_0fixp,u2_30fixp>,u0_0fixp>", i32 0, i32 2, !llfi_index !1702
  %88 = load { i32, i32, i32, i32, i32 }**, { i32, i32, i32, i32, i32 }*** %87, align 8, !llfi_index !1703
  %89 = sext i32 %.02 to i64, !taffo.info !0, !llfi_index !1704
  %90 = getelementptr inbounds { i32, i32, i32, i32, i32 }*, { i32, i32, i32, i32, i32 }** %88, i64 %89, !llfi_index !1705
  %91 = load { i32, i32, i32, i32, i32 }*, { i32, i32, i32, i32, i32 }** %90, align 8, !llfi_index !1706
  %92 = sext i32 %.01 to i64, !taffo.info !298, !llfi_index !1707
  %93 = getelementptr inbounds { i32, i32, i32, i32, i32 }, { i32, i32, i32, i32, i32 }* %91, i64 %92, !llfi_index !1708
  %u27_5fixp8 = getelementptr inbounds { i32, i32, i32, i32, i32 }, { i32, i32, i32, i32, i32 }* %93, i32 0, i32 1, !taffo.info !1540, !llfi_index !1709
  %u27_5fixp14 = load i32, i32* %u27_5fixp8, align 4, !taffo.info !1540, !llfi_index !1710
  %94 = zext i32 %u27_5fixp14 to i96, !taffo.info !1540, !llfi_index !1711
  %95 = zext i64 %6 to i96, !taffo.info !218, !llfi_index !1712
  %96 = mul i96 %94, %95, !taffo.info !1638, !llfi_index !1713
  %97 = lshr i96 %96, 32, !taffo.info !1638, !llfi_index !1714
  %u35_29fixp19 = trunc i96 %97 to i64, !taffo.info !1643, !llfi_index !1715
  %98 = lshr i64 %u35_29fixp19, 29, !taffo.info !1643, !llfi_index !1716
  %99 = trunc i64 %98 to i32, !taffo.info !1647, !llfi_index !1717
  %100 = getelementptr inbounds { i32, i32, { i32, i32, i32, i32, i32 }**, i8* }, { i32, i32, { i32, i32, i32, i32, i32 }**, i8* }* %".<u0_0fixp,u0_0fixp,<u27_5fixp,u27_5fixp,u27_5fixp,u0_0fixp,u2_30fixp>,u0_0fixp>", i32 0, i32 2, !llfi_index !1718
  %101 = load { i32, i32, i32, i32, i32 }**, { i32, i32, i32, i32, i32 }*** %100, align 8, !llfi_index !1719
  %102 = sext i32 %.02 to i64, !taffo.info !0, !llfi_index !1720
  %103 = getelementptr inbounds { i32, i32, i32, i32, i32 }*, { i32, i32, i32, i32, i32 }** %101, i64 %102, !llfi_index !1721
  %104 = load { i32, i32, i32, i32, i32 }*, { i32, i32, i32, i32, i32 }** %103, align 8, !llfi_index !1722
  %105 = sext i32 %.01 to i64, !taffo.info !298, !llfi_index !1723
  %106 = getelementptr inbounds { i32, i32, i32, i32, i32 }, { i32, i32, i32, i32, i32 }* %104, i64 %105, !llfi_index !1724
  %u27_5fixp9 = getelementptr inbounds { i32, i32, i32, i32, i32 }, { i32, i32, i32, i32, i32 }* %106, i32 0, i32 2, !taffo.info !1540, !llfi_index !1725
  %u27_5fixp15 = load i32, i32* %u27_5fixp9, align 4, !taffo.info !1540, !llfi_index !1726
  %107 = zext i32 %u27_5fixp15 to i96, !taffo.info !1540, !llfi_index !1727
  %108 = zext i64 %4 to i96, !taffo.info !218, !llfi_index !1728
  %109 = mul i96 %107, %108, !taffo.info !1638, !llfi_index !1729
  %110 = lshr i96 %109, 32, !taffo.info !1638, !llfi_index !1730
  %u35_29fixp20 = trunc i96 %110 to i64, !taffo.info !1643, !llfi_index !1731
  %111 = lshr i64 %u35_29fixp20, 29, !taffo.info !1643, !llfi_index !1732
  %112 = trunc i64 %111 to i32, !taffo.info !1647, !llfi_index !1733
  %.flt21 = call i32 (%struct._IO_FILE*, i8*, ...) @fprintf(%struct._IO_FILE* noundef %15, i8* noundef getelementptr inbounds ([10 x i8], [10 x i8]* @.str.12, i64 0, i64 0), i32 noundef %86, i32 noundef %99, i32 noundef %112), !taffo.info !1647, !taffo.initweight !138, !taffo.constinfo !184, !llfi_index !1734
  br label %113, !llfi_index !1735

113:                                              ; preds = %73
  %114 = add nsw i32 %.02, 1, !taffo.info !199, !taffo.constinfo !111, !llfi_index !1736
  br label %23, !llvm.loop !1737, !llfi_index !1738

115:                                              ; preds = %23
  %matchop4 = getelementptr inbounds { i32, i32, { i32, i32, i32, i32, i32 }**, i8* }, { i32, i32, { i32, i32, i32, i32, i32 }**, i8* }* %".<u0_0fixp,u0_0fixp,<u27_5fixp,u27_5fixp,u27_5fixp,u0_0fixp,u2_30fixp>,u0_0fixp>", i32 0, i32 3, !taffo.info !140, !llfi_index !1739
  %116 = load i8*, i8** %matchop4, align 8, !taffo.info !140, !taffo.initweight !27, !llfi_index !1740
  %117 = call i32 (%struct._IO_FILE*, i8*, ...) @fprintf(%struct._IO_FILE* noundef %15, i8* noundef getelementptr inbounds ([3 x i8], [3 x i8]* @.str.13, i64 0, i64 0), i8* noundef %116), !taffo.info !140, !taffo.initweight !138, !taffo.constinfo !202, !llfi_index !1741
  %118 = call i32 @fclose(%struct._IO_FILE* noundef %15), !taffo.constinfo !111, !llfi_index !1742
  br label %119, !llfi_index !1743

119:                                              ; preds = %115, %17
  %.0 = phi i32 [ 1, %115 ], [ 0, %17 ], !taffo.info !298, !llfi_index !1744
  ret i32 %.0, !llfi_index !1745
}

; Function Attrs: mustprogress noinline uwtable
define internal void @_Z12segmentImageP8RgbImageP8Clustersi.6_fixp({ i32, i32, { i32, i32, i32, i32, i32 }**, i8* }* noundef %".<u0_0fixp,u0_0fixp,<u27_5fixp,u27_5fixp,u27_5fixp,u0_0fixp,u2_30fixp>,u0_0fixp>", { i32, { i32, i32, i32, i32 }* }* noundef %".<u0_0fixp,<s20_12fixp,s20_12fixp,s20_12fixp,u0_0fixp>>", i32 noundef %0) #0 !taffo.initweight !1746 !taffo.funinfo !1747 !taffo.sourceFunction !1748 {
  br label %2, !llfi_index !1749

2:                                                ; preds = %191, %1
  %.06 = phi i32 [ 0, %1 ], [ %192, %191 ], !taffo.info !298, !llfi_index !1750
  %3 = icmp slt i32 %.06, %0, !taffo.info !298, !llfi_index !1751
  br i1 %3, label %4, label %193, !llfi_index !1752

4:                                                ; preds = %2
  br label %5, !llfi_index !1753

5:                                                ; preds = %23, %4
  %.01 = phi i32 [ 0, %4 ], [ %24, %23 ], !taffo.info !298, !llfi_index !1754
  %matchop = getelementptr inbounds { i32, i32, { i32, i32, i32, i32, i32 }**, i8* }, { i32, i32, { i32, i32, i32, i32, i32 }**, i8* }* %".<u0_0fixp,u0_0fixp,<u27_5fixp,u27_5fixp,u27_5fixp,u0_0fixp,u2_30fixp>,u0_0fixp>", i32 0, i32 1, !taffo.info !140, !llfi_index !1755
  %6 = load i32, i32* %matchop, align 4, !taffo.info !140, !taffo.initweight !27, !llfi_index !1756
  %7 = icmp slt i32 %.01, %6, !taffo.info !140, !taffo.initweight !138, !llfi_index !1757
  br i1 %7, label %8, label %25, !taffo.info !24, !taffo.initweight !150, !llfi_index !1758

8:                                                ; preds = %5
  br label %9, !llfi_index !1759

9:                                                ; preds = %20, %8
  %.03 = phi i32 [ 0, %8 ], [ %21, %20 ], !taffo.info !298, !llfi_index !1760
  %matchop1 = getelementptr inbounds { i32, i32, { i32, i32, i32, i32, i32 }**, i8* }, { i32, i32, { i32, i32, i32, i32, i32 }**, i8* }* %".<u0_0fixp,u0_0fixp,<u27_5fixp,u27_5fixp,u27_5fixp,u0_0fixp,u2_30fixp>,u0_0fixp>", i32 0, i32 0, !taffo.info !140, !llfi_index !1761
  %10 = load i32, i32* %matchop1, align 8, !taffo.info !140, !taffo.initweight !27, !llfi_index !1762
  %11 = icmp slt i32 %.03, %10, !taffo.info !140, !taffo.initweight !138, !llfi_index !1763
  br i1 %11, label %12, label %22, !taffo.info !24, !taffo.initweight !150, !llfi_index !1764

12:                                               ; preds = %9
  %13 = getelementptr inbounds { i32, i32, { i32, i32, i32, i32, i32 }**, i8* }, { i32, i32, { i32, i32, i32, i32, i32 }**, i8* }* %".<u0_0fixp,u0_0fixp,<u27_5fixp,u27_5fixp,u27_5fixp,u0_0fixp,u2_30fixp>,u0_0fixp>", i32 0, i32 2, !llfi_index !1765
  %14 = load { i32, i32, i32, i32, i32 }**, { i32, i32, i32, i32, i32 }*** %13, align 8, !llfi_index !1766
  %15 = sext i32 %.01 to i64, !taffo.info !0, !llfi_index !1767
  %16 = getelementptr inbounds { i32, i32, i32, i32, i32 }*, { i32, i32, i32, i32, i32 }** %14, i64 %15, !llfi_index !1768
  %17 = load { i32, i32, i32, i32, i32 }*, { i32, i32, i32, i32, i32 }** %16, align 8, !llfi_index !1769
  %18 = sext i32 %.03 to i64, !taffo.info !0, !llfi_index !1770
  %19 = getelementptr inbounds { i32, i32, i32, i32, i32 }, { i32, i32, i32, i32, i32 }* %17, i64 %18, !llfi_index !1771
  call void @_Z13assignClusterP8RgbPixelP8Clusters.13_fixp({ i32, i32, i32, i32, i32 }* %19, { i32, { i32, i32, i32, i32 }* }* %".<u0_0fixp,<s20_12fixp,s20_12fixp,s20_12fixp,u0_0fixp>>"), !taffo.info !24, !taffo.constinfo !120, !llfi_index !1772
  br label %20, !llfi_index !1773

20:                                               ; preds = %12
  %21 = add nsw i32 %.03, 1, !taffo.info !199, !taffo.constinfo !111, !llfi_index !1774
  br label %9, !llvm.loop !1775, !llfi_index !1776

22:                                               ; preds = %9
  br label %23, !llfi_index !1777

23:                                               ; preds = %22
  %24 = add nsw i32 %.01, 1, !taffo.info !199, !taffo.constinfo !111, !llfi_index !1778
  br label %5, !llvm.loop !1779, !llfi_index !1780

25:                                               ; preds = %5
  br label %26, !llfi_index !1781

26:                                               ; preds = %46, %25
  %.0 = phi i32 [ 0, %25 ], [ %47, %46 ], !taffo.info !298, !llfi_index !1782
  %matchop6 = getelementptr inbounds { i32, { i32, i32, i32, i32 }* }, { i32, { i32, i32, i32, i32 }* }* %".<u0_0fixp,<s20_12fixp,s20_12fixp,s20_12fixp,u0_0fixp>>", i32 0, i32 0, !taffo.info !140, !llfi_index !1783
  %27 = load i32, i32* %matchop6, align 8, !taffo.info !140, !taffo.initweight !27, !llfi_index !1784
  %28 = icmp slt i32 %.0, %27, !taffo.info !140, !taffo.initweight !138, !llfi_index !1785
  br i1 %28, label %29, label %48, !taffo.info !24, !taffo.initweight !150, !llfi_index !1786

29:                                               ; preds = %26
  %30 = getelementptr inbounds { i32, { i32, i32, i32, i32 }* }, { i32, { i32, i32, i32, i32 }* }* %".<u0_0fixp,<s20_12fixp,s20_12fixp,s20_12fixp,u0_0fixp>>", i32 0, i32 1, !llfi_index !1787
  %31 = load { i32, i32, i32, i32 }*, { i32, i32, i32, i32 }** %30, align 8, !llfi_index !1788
  %32 = sext i32 %.0 to i64, !taffo.info !0, !llfi_index !1789
  %33 = getelementptr inbounds { i32, i32, i32, i32 }, { i32, i32, i32, i32 }* %31, i64 %32, !llfi_index !1790
  %s20_12fixp = getelementptr inbounds { i32, i32, i32, i32 }, { i32, i32, i32, i32 }* %33, i32 0, i32 0, !taffo.info !1419, !llfi_index !1791
  store i32 0, i32* %s20_12fixp, align 4, !taffo.info !29, !taffo.constinfo !523, !llfi_index !1792
  %34 = getelementptr inbounds { i32, { i32, i32, i32, i32 }* }, { i32, { i32, i32, i32, i32 }* }* %".<u0_0fixp,<s20_12fixp,s20_12fixp,s20_12fixp,u0_0fixp>>", i32 0, i32 1, !llfi_index !1793
  %35 = load { i32, i32, i32, i32 }*, { i32, i32, i32, i32 }** %34, align 8, !llfi_index !1794
  %36 = sext i32 %.0 to i64, !taffo.info !0, !llfi_index !1795
  %37 = getelementptr inbounds { i32, i32, i32, i32 }, { i32, i32, i32, i32 }* %35, i64 %36, !llfi_index !1796
  %s20_12fixp8 = getelementptr inbounds { i32, i32, i32, i32 }, { i32, i32, i32, i32 }* %37, i32 0, i32 1, !taffo.info !1419, !llfi_index !1797
  store i32 0, i32* %s20_12fixp8, align 4, !taffo.info !29, !taffo.constinfo !523, !llfi_index !1798
  %38 = getelementptr inbounds { i32, { i32, i32, i32, i32 }* }, { i32, { i32, i32, i32, i32 }* }* %".<u0_0fixp,<s20_12fixp,s20_12fixp,s20_12fixp,u0_0fixp>>", i32 0, i32 1, !llfi_index !1799
  %39 = load { i32, i32, i32, i32 }*, { i32, i32, i32, i32 }** %38, align 8, !llfi_index !1800
  %40 = sext i32 %.0 to i64, !taffo.info !0, !llfi_index !1801
  %41 = getelementptr inbounds { i32, i32, i32, i32 }, { i32, i32, i32, i32 }* %39, i64 %40, !llfi_index !1802
  %s20_12fixp9 = getelementptr inbounds { i32, i32, i32, i32 }, { i32, i32, i32, i32 }* %41, i32 0, i32 2, !taffo.info !1419, !llfi_index !1803
  store i32 0, i32* %s20_12fixp9, align 4, !taffo.info !29, !taffo.constinfo !523, !llfi_index !1804
  %42 = getelementptr inbounds { i32, { i32, i32, i32, i32 }* }, { i32, { i32, i32, i32, i32 }* }* %".<u0_0fixp,<s20_12fixp,s20_12fixp,s20_12fixp,u0_0fixp>>", i32 0, i32 1, !llfi_index !1805
  %43 = load { i32, i32, i32, i32 }*, { i32, i32, i32, i32 }** %42, align 8, !llfi_index !1806
  %44 = sext i32 %.0 to i64, !taffo.info !0, !llfi_index !1807
  %45 = getelementptr inbounds { i32, i32, i32, i32 }, { i32, i32, i32, i32 }* %43, i64 %44, !llfi_index !1808
  %matchop10 = getelementptr inbounds { i32, i32, i32, i32 }, { i32, i32, i32, i32 }* %45, i32 0, i32 3, !taffo.info !1421, !llfi_index !1809
  store i32 0, i32* %matchop10, align 4, !taffo.info !133, !taffo.constinfo !111, !llfi_index !1810
  br label %46, !llfi_index !1811

46:                                               ; preds = %29
  %47 = add nsw i32 %.0, 1, !taffo.info !199, !taffo.constinfo !111, !llfi_index !1812
  br label %26, !llvm.loop !1813, !llfi_index !1814

48:                                               ; preds = %26
  br label %49, !llfi_index !1815

49:                                               ; preds = %134, %48
  %.12 = phi i32 [ 0, %48 ], [ %135, %134 ], !taffo.info !298, !llfi_index !1816
  %matchop2 = getelementptr inbounds { i32, i32, { i32, i32, i32, i32, i32 }**, i8* }, { i32, i32, { i32, i32, i32, i32, i32 }**, i8* }* %".<u0_0fixp,u0_0fixp,<u27_5fixp,u27_5fixp,u27_5fixp,u0_0fixp,u2_30fixp>,u0_0fixp>", i32 0, i32 1, !taffo.info !140, !llfi_index !1817
  %50 = load i32, i32* %matchop2, align 4, !taffo.info !140, !taffo.initweight !27, !llfi_index !1818
  %51 = icmp slt i32 %.12, %50, !taffo.info !140, !taffo.initweight !138, !llfi_index !1819
  br i1 %51, label %52, label %136, !taffo.info !24, !taffo.initweight !150, !llfi_index !1820

52:                                               ; preds = %49
  br label %53, !llfi_index !1821

53:                                               ; preds = %131, %52
  %.14 = phi i32 [ 0, %52 ], [ %132, %131 ], !taffo.info !298, !llfi_index !1822
  %matchop3 = getelementptr inbounds { i32, i32, { i32, i32, i32, i32, i32 }**, i8* }, { i32, i32, { i32, i32, i32, i32, i32 }**, i8* }* %".<u0_0fixp,u0_0fixp,<u27_5fixp,u27_5fixp,u27_5fixp,u0_0fixp,u2_30fixp>,u0_0fixp>", i32 0, i32 0, !taffo.info !140, !llfi_index !1823
  %54 = load i32, i32* %matchop3, align 8, !taffo.info !140, !taffo.initweight !27, !llfi_index !1824
  %55 = icmp slt i32 %.14, %54, !taffo.info !140, !taffo.initweight !138, !llfi_index !1825
  br i1 %55, label %56, label %133, !taffo.info !24, !taffo.initweight !150, !llfi_index !1826

56:                                               ; preds = %53
  %57 = getelementptr inbounds { i32, i32, { i32, i32, i32, i32, i32 }**, i8* }, { i32, i32, { i32, i32, i32, i32, i32 }**, i8* }* %".<u0_0fixp,u0_0fixp,<u27_5fixp,u27_5fixp,u27_5fixp,u0_0fixp,u2_30fixp>,u0_0fixp>", i32 0, i32 2, !llfi_index !1827
  %58 = load { i32, i32, i32, i32, i32 }**, { i32, i32, i32, i32, i32 }*** %57, align 8, !llfi_index !1828
  %59 = sext i32 %.12 to i64, !taffo.info !0, !llfi_index !1829
  %60 = getelementptr inbounds { i32, i32, i32, i32, i32 }*, { i32, i32, i32, i32, i32 }** %58, i64 %59, !llfi_index !1830
  %61 = load { i32, i32, i32, i32, i32 }*, { i32, i32, i32, i32, i32 }** %60, align 8, !llfi_index !1831
  %62 = sext i32 %.14 to i64, !taffo.info !0, !llfi_index !1832
  %63 = getelementptr inbounds { i32, i32, i32, i32, i32 }, { i32, i32, i32, i32, i32 }* %61, i64 %62, !llfi_index !1833
  %u27_5fixp = getelementptr inbounds { i32, i32, i32, i32, i32 }, { i32, i32, i32, i32, i32 }* %63, i32 0, i32 0, !taffo.info !1540, !llfi_index !1834
  %u27_5fixp36 = load i32, i32* %u27_5fixp, align 4, !taffo.info !1835, !llfi_index !1836
  %64 = getelementptr inbounds { i32, { i32, i32, i32, i32 }* }, { i32, { i32, i32, i32, i32 }* }* %".<u0_0fixp,<s20_12fixp,s20_12fixp,s20_12fixp,u0_0fixp>>", i32 0, i32 1, !llfi_index !1837
  %65 = load { i32, i32, i32, i32 }*, { i32, i32, i32, i32 }** %64, align 8, !llfi_index !1838
  %66 = getelementptr inbounds { i32, i32, { i32, i32, i32, i32, i32 }**, i8* }, { i32, i32, { i32, i32, i32, i32, i32 }**, i8* }* %".<u0_0fixp,u0_0fixp,<u27_5fixp,u27_5fixp,u27_5fixp,u0_0fixp,u2_30fixp>,u0_0fixp>", i32 0, i32 2, !llfi_index !1839
  %67 = load { i32, i32, i32, i32, i32 }**, { i32, i32, i32, i32, i32 }*** %66, align 8, !llfi_index !1840
  %68 = sext i32 %.12 to i64, !taffo.info !0, !llfi_index !1841
  %69 = getelementptr inbounds { i32, i32, i32, i32, i32 }*, { i32, i32, i32, i32, i32 }** %67, i64 %68, !llfi_index !1842
  %70 = load { i32, i32, i32, i32, i32 }*, { i32, i32, i32, i32, i32 }** %69, align 8, !llfi_index !1843
  %71 = sext i32 %.14 to i64, !taffo.info !0, !llfi_index !1844
  %72 = getelementptr inbounds { i32, i32, i32, i32, i32 }, { i32, i32, i32, i32, i32 }* %70, i64 %71, !llfi_index !1845
  %matchop24 = getelementptr inbounds { i32, i32, i32, i32, i32 }, { i32, i32, i32, i32, i32 }* %72, i32 0, i32 3, !taffo.info !140, !llfi_index !1846
  %73 = load i32, i32* %matchop24, align 4, !taffo.info !140, !taffo.initweight !606, !llfi_index !1847
  %74 = sext i32 %73 to i64, !taffo.info !140, !taffo.initweight !992, !llfi_index !1848
  %75 = getelementptr inbounds { i32, i32, i32, i32 }, { i32, i32, i32, i32 }* %65, i64 %74, !llfi_index !1849
  %s20_12fixp42 = getelementptr inbounds { i32, i32, i32, i32 }, { i32, i32, i32, i32 }* %75, i32 0, i32 0, !taffo.info !1419, !llfi_index !1850
  %s20_12fixp49 = load i32, i32* %s20_12fixp42, align 4, !taffo.info !1851, !llfi_index !1852
  %76 = shl i32 %u27_5fixp36, 7, !taffo.info !1835, !llfi_index !1853
  %s20_12fixp55 = add i32 %s20_12fixp49, %76, !taffo.info !29, !llfi_index !1854
  store i32 %s20_12fixp55, i32* %s20_12fixp42, align 4, !taffo.info !29, !llfi_index !1855
  %77 = getelementptr inbounds { i32, i32, { i32, i32, i32, i32, i32 }**, i8* }, { i32, i32, { i32, i32, i32, i32, i32 }**, i8* }* %".<u0_0fixp,u0_0fixp,<u27_5fixp,u27_5fixp,u27_5fixp,u0_0fixp,u2_30fixp>,u0_0fixp>", i32 0, i32 2, !llfi_index !1856
  %78 = load { i32, i32, i32, i32, i32 }**, { i32, i32, i32, i32, i32 }*** %77, align 8, !llfi_index !1857
  %79 = sext i32 %.12 to i64, !taffo.info !0, !llfi_index !1858
  %80 = getelementptr inbounds { i32, i32, i32, i32, i32 }*, { i32, i32, i32, i32, i32 }** %78, i64 %79, !llfi_index !1859
  %81 = load { i32, i32, i32, i32, i32 }*, { i32, i32, i32, i32, i32 }** %80, align 8, !llfi_index !1860
  %82 = sext i32 %.14 to i64, !taffo.info !0, !llfi_index !1861
  %83 = getelementptr inbounds { i32, i32, i32, i32, i32 }, { i32, i32, i32, i32, i32 }* %81, i64 %82, !llfi_index !1862
  %u27_5fixp25 = getelementptr inbounds { i32, i32, i32, i32, i32 }, { i32, i32, i32, i32, i32 }* %83, i32 0, i32 1, !taffo.info !1540, !llfi_index !1863
  %u27_5fixp37 = load i32, i32* %u27_5fixp25, align 4, !taffo.info !1835, !llfi_index !1864
  %84 = getelementptr inbounds { i32, { i32, i32, i32, i32 }* }, { i32, { i32, i32, i32, i32 }* }* %".<u0_0fixp,<s20_12fixp,s20_12fixp,s20_12fixp,u0_0fixp>>", i32 0, i32 1, !llfi_index !1865
  %85 = load { i32, i32, i32, i32 }*, { i32, i32, i32, i32 }** %84, align 8, !llfi_index !1866
  %86 = getelementptr inbounds { i32, i32, { i32, i32, i32, i32, i32 }**, i8* }, { i32, i32, { i32, i32, i32, i32, i32 }**, i8* }* %".<u0_0fixp,u0_0fixp,<u27_5fixp,u27_5fixp,u27_5fixp,u0_0fixp,u2_30fixp>,u0_0fixp>", i32 0, i32 2, !llfi_index !1867
  %87 = load { i32, i32, i32, i32, i32 }**, { i32, i32, i32, i32, i32 }*** %86, align 8, !llfi_index !1868
  %88 = sext i32 %.12 to i64, !taffo.info !0, !llfi_index !1869
  %89 = getelementptr inbounds { i32, i32, i32, i32, i32 }*, { i32, i32, i32, i32, i32 }** %87, i64 %88, !llfi_index !1870
  %90 = load { i32, i32, i32, i32, i32 }*, { i32, i32, i32, i32, i32 }** %89, align 8, !llfi_index !1871
  %91 = sext i32 %.14 to i64, !taffo.info !0, !llfi_index !1872
  %92 = getelementptr inbounds { i32, i32, i32, i32, i32 }, { i32, i32, i32, i32, i32 }* %90, i64 %91, !llfi_index !1873
  %matchop26 = getelementptr inbounds { i32, i32, i32, i32, i32 }, { i32, i32, i32, i32, i32 }* %92, i32 0, i32 3, !taffo.info !140, !llfi_index !1874
  %93 = load i32, i32* %matchop26, align 4, !taffo.info !140, !taffo.initweight !606, !llfi_index !1875
  %94 = sext i32 %93 to i64, !taffo.info !140, !taffo.initweight !992, !llfi_index !1876
  %95 = getelementptr inbounds { i32, i32, i32, i32 }, { i32, i32, i32, i32 }* %85, i64 %94, !llfi_index !1877
  %s20_12fixp43 = getelementptr inbounds { i32, i32, i32, i32 }, { i32, i32, i32, i32 }* %95, i32 0, i32 1, !taffo.info !1419, !llfi_index !1878
  %s20_12fixp50 = load i32, i32* %s20_12fixp43, align 4, !taffo.info !1851, !llfi_index !1879
  %96 = shl i32 %u27_5fixp37, 7, !taffo.info !1835, !llfi_index !1880
  %s20_12fixp56 = add i32 %s20_12fixp50, %96, !taffo.info !29, !llfi_index !1881
  store i32 %s20_12fixp56, i32* %s20_12fixp43, align 4, !taffo.info !29, !llfi_index !1882
  %97 = getelementptr inbounds { i32, i32, { i32, i32, i32, i32, i32 }**, i8* }, { i32, i32, { i32, i32, i32, i32, i32 }**, i8* }* %".<u0_0fixp,u0_0fixp,<u27_5fixp,u27_5fixp,u27_5fixp,u0_0fixp,u2_30fixp>,u0_0fixp>", i32 0, i32 2, !llfi_index !1883
  %98 = load { i32, i32, i32, i32, i32 }**, { i32, i32, i32, i32, i32 }*** %97, align 8, !llfi_index !1884
  %99 = sext i32 %.12 to i64, !taffo.info !0, !llfi_index !1885
  %100 = getelementptr inbounds { i32, i32, i32, i32, i32 }*, { i32, i32, i32, i32, i32 }** %98, i64 %99, !llfi_index !1886
  %101 = load { i32, i32, i32, i32, i32 }*, { i32, i32, i32, i32, i32 }** %100, align 8, !llfi_index !1887
  %102 = sext i32 %.14 to i64, !taffo.info !0, !llfi_index !1888
  %103 = getelementptr inbounds { i32, i32, i32, i32, i32 }, { i32, i32, i32, i32, i32 }* %101, i64 %102, !llfi_index !1889
  %u27_5fixp27 = getelementptr inbounds { i32, i32, i32, i32, i32 }, { i32, i32, i32, i32, i32 }* %103, i32 0, i32 2, !taffo.info !1540, !llfi_index !1890
  %u27_5fixp38 = load i32, i32* %u27_5fixp27, align 4, !taffo.info !1835, !llfi_index !1891
  %104 = getelementptr inbounds { i32, { i32, i32, i32, i32 }* }, { i32, { i32, i32, i32, i32 }* }* %".<u0_0fixp,<s20_12fixp,s20_12fixp,s20_12fixp,u0_0fixp>>", i32 0, i32 1, !llfi_index !1892
  %105 = load { i32, i32, i32, i32 }*, { i32, i32, i32, i32 }** %104, align 8, !llfi_index !1893
  %106 = getelementptr inbounds { i32, i32, { i32, i32, i32, i32, i32 }**, i8* }, { i32, i32, { i32, i32, i32, i32, i32 }**, i8* }* %".<u0_0fixp,u0_0fixp,<u27_5fixp,u27_5fixp,u27_5fixp,u0_0fixp,u2_30fixp>,u0_0fixp>", i32 0, i32 2, !llfi_index !1894
  %107 = load { i32, i32, i32, i32, i32 }**, { i32, i32, i32, i32, i32 }*** %106, align 8, !llfi_index !1895
  %108 = sext i32 %.12 to i64, !taffo.info !0, !llfi_index !1896
  %109 = getelementptr inbounds { i32, i32, i32, i32, i32 }*, { i32, i32, i32, i32, i32 }** %107, i64 %108, !llfi_index !1897
  %110 = load { i32, i32, i32, i32, i32 }*, { i32, i32, i32, i32, i32 }** %109, align 8, !llfi_index !1898
  %111 = sext i32 %.14 to i64, !taffo.info !0, !llfi_index !1899
  %112 = getelementptr inbounds { i32, i32, i32, i32, i32 }, { i32, i32, i32, i32, i32 }* %110, i64 %111, !llfi_index !1900
  %matchop28 = getelementptr inbounds { i32, i32, i32, i32, i32 }, { i32, i32, i32, i32, i32 }* %112, i32 0, i32 3, !taffo.info !140, !llfi_index !1901
  %113 = load i32, i32* %matchop28, align 4, !taffo.info !140, !taffo.initweight !606, !llfi_index !1902
  %114 = sext i32 %113 to i64, !taffo.info !140, !taffo.initweight !992, !llfi_index !1903
  %115 = getelementptr inbounds { i32, i32, i32, i32 }, { i32, i32, i32, i32 }* %105, i64 %114, !llfi_index !1904
  %s20_12fixp44 = getelementptr inbounds { i32, i32, i32, i32 }, { i32, i32, i32, i32 }* %115, i32 0, i32 2, !taffo.info !1419, !llfi_index !1905
  %s20_12fixp51 = load i32, i32* %s20_12fixp44, align 4, !taffo.info !1851, !llfi_index !1906
  %116 = shl i32 %u27_5fixp38, 7, !taffo.info !1835, !llfi_index !1907
  %s20_12fixp57 = add i32 %s20_12fixp51, %116, !taffo.info !29, !llfi_index !1908
  store i32 %s20_12fixp57, i32* %s20_12fixp44, align 4, !taffo.info !29, !llfi_index !1909
  %117 = getelementptr inbounds { i32, { i32, i32, i32, i32 }* }, { i32, { i32, i32, i32, i32 }* }* %".<u0_0fixp,<s20_12fixp,s20_12fixp,s20_12fixp,u0_0fixp>>", i32 0, i32 1, !llfi_index !1910
  %118 = load { i32, i32, i32, i32 }*, { i32, i32, i32, i32 }** %117, align 8, !llfi_index !1911
  %119 = getelementptr inbounds { i32, i32, { i32, i32, i32, i32, i32 }**, i8* }, { i32, i32, { i32, i32, i32, i32, i32 }**, i8* }* %".<u0_0fixp,u0_0fixp,<u27_5fixp,u27_5fixp,u27_5fixp,u0_0fixp,u2_30fixp>,u0_0fixp>", i32 0, i32 2, !llfi_index !1912
  %120 = load { i32, i32, i32, i32, i32 }**, { i32, i32, i32, i32, i32 }*** %119, align 8, !llfi_index !1913
  %121 = sext i32 %.12 to i64, !taffo.info !0, !llfi_index !1914
  %122 = getelementptr inbounds { i32, i32, i32, i32, i32 }*, { i32, i32, i32, i32, i32 }** %120, i64 %121, !llfi_index !1915
  %123 = load { i32, i32, i32, i32, i32 }*, { i32, i32, i32, i32, i32 }** %122, align 8, !llfi_index !1916
  %124 = sext i32 %.14 to i64, !taffo.info !0, !llfi_index !1917
  %125 = getelementptr inbounds { i32, i32, i32, i32, i32 }, { i32, i32, i32, i32, i32 }* %123, i64 %124, !llfi_index !1918
  %matchop29 = getelementptr inbounds { i32, i32, i32, i32, i32 }, { i32, i32, i32, i32, i32 }* %125, i32 0, i32 3, !taffo.info !140, !llfi_index !1919
  %126 = load i32, i32* %matchop29, align 4, !taffo.info !140, !taffo.initweight !606, !llfi_index !1920
  %127 = sext i32 %126 to i64, !taffo.info !140, !taffo.initweight !992, !llfi_index !1921
  %128 = getelementptr inbounds { i32, i32, i32, i32 }, { i32, i32, i32, i32 }* %118, i64 %127, !llfi_index !1922
  %matchop45 = getelementptr inbounds { i32, i32, i32, i32 }, { i32, i32, i32, i32 }* %128, i32 0, i32 3, !taffo.info !1421, !llfi_index !1923
  %129 = load i32, i32* %matchop45, align 4, !taffo.info !1924, !taffo.initweight !380, !llfi_index !1926
  %130 = add nsw i32 %129, 1, !taffo.info !1927, !taffo.initweight !382, !taffo.constinfo !111, !llfi_index !1929
  store i32 %130, i32* %matchop45, align 4, !taffo.info !133, !llfi_index !1930
  br label %131, !llfi_index !1931

131:                                              ; preds = %56
  %132 = add nsw i32 %.14, 1, !taffo.info !199, !taffo.constinfo !111, !llfi_index !1932
  br label %53, !llvm.loop !1933, !llfi_index !1934

133:                                              ; preds = %53
  br label %134, !llfi_index !1935

134:                                              ; preds = %133
  %135 = add nsw i32 %.12, 1, !taffo.info !199, !taffo.constinfo !111, !llfi_index !1936
  br label %49, !llvm.loop !1937, !llfi_index !1938

136:                                              ; preds = %49
  br label %137, !llfi_index !1939

137:                                              ; preds = %188, %136
  %.1 = phi i32 [ 0, %136 ], [ %189, %188 ], !taffo.info !298, !llfi_index !1940
  %matchop7 = getelementptr inbounds { i32, { i32, i32, i32, i32 }* }, { i32, { i32, i32, i32, i32 }* }* %".<u0_0fixp,<s20_12fixp,s20_12fixp,s20_12fixp,u0_0fixp>>", i32 0, i32 0, !taffo.info !140, !llfi_index !1941
  %138 = load i32, i32* %matchop7, align 8, !taffo.info !140, !taffo.initweight !27, !llfi_index !1942
  %139 = icmp slt i32 %.1, %138, !taffo.info !140, !taffo.initweight !138, !llfi_index !1943
  br i1 %139, label %140, label %190, !taffo.info !24, !taffo.initweight !150, !llfi_index !1944

140:                                              ; preds = %137
  %141 = getelementptr inbounds { i32, { i32, i32, i32, i32 }* }, { i32, { i32, i32, i32, i32 }* }* %".<u0_0fixp,<s20_12fixp,s20_12fixp,s20_12fixp,u0_0fixp>>", i32 0, i32 1, !llfi_index !1945
  %142 = load { i32, i32, i32, i32 }*, { i32, i32, i32, i32 }** %141, align 8, !llfi_index !1946
  %143 = sext i32 %.1 to i64, !taffo.info !0, !llfi_index !1947
  %144 = getelementptr inbounds { i32, i32, i32, i32 }, { i32, i32, i32, i32 }* %142, i64 %143, !llfi_index !1948
  %matchop11 = getelementptr inbounds { i32, i32, i32, i32 }, { i32, i32, i32, i32 }* %144, i32 0, i32 3, !taffo.info !1421, !llfi_index !1949
  %145 = load i32, i32* %matchop11, align 4, !taffo.info !1421, !taffo.initweight !380, !llfi_index !1950
  %146 = icmp ne i32 %145, 0, !taffo.info !298, !taffo.initweight !382, !llfi_index !1951
  br i1 %146, label %147, label %187, !taffo.info !133, !taffo.initweight !606, !llfi_index !1952

147:                                              ; preds = %140
  %148 = getelementptr inbounds { i32, { i32, i32, i32, i32 }* }, { i32, { i32, i32, i32, i32 }* }* %".<u0_0fixp,<s20_12fixp,s20_12fixp,s20_12fixp,u0_0fixp>>", i32 0, i32 1, !llfi_index !1953
  %149 = load { i32, i32, i32, i32 }*, { i32, i32, i32, i32 }** %148, align 8, !llfi_index !1954
  %150 = sext i32 %.1 to i64, !taffo.info !0, !llfi_index !1955
  %151 = getelementptr inbounds { i32, i32, i32, i32 }, { i32, i32, i32, i32 }* %149, i64 %150, !llfi_index !1956
  %s20_12fixp12 = getelementptr inbounds { i32, i32, i32, i32 }, { i32, i32, i32, i32 }* %151, i32 0, i32 0, !taffo.info !1419, !llfi_index !1957
  %s20_12fixp21 = load i32, i32* %s20_12fixp12, align 4, !taffo.info !1851, !llfi_index !1958
  %152 = getelementptr inbounds { i32, { i32, i32, i32, i32 }* }, { i32, { i32, i32, i32, i32 }* }* %".<u0_0fixp,<s20_12fixp,s20_12fixp,s20_12fixp,u0_0fixp>>", i32 0, i32 1, !llfi_index !1959
  %153 = load { i32, i32, i32, i32 }*, { i32, i32, i32, i32 }** %152, align 8, !llfi_index !1960
  %154 = sext i32 %.1 to i64, !taffo.info !0, !llfi_index !1961
  %155 = getelementptr inbounds { i32, i32, i32, i32 }, { i32, i32, i32, i32 }* %153, i64 %154, !llfi_index !1962
  %matchop13 = getelementptr inbounds { i32, i32, i32, i32 }, { i32, i32, i32, i32 }* %155, i32 0, i32 3, !taffo.info !1421, !llfi_index !1963
  %156 = load i32, i32* %matchop13, align 4, !taffo.info !1421, !taffo.initweight !380, !llfi_index !1964
  %s20_12fixp39 = sdiv i32 %s20_12fixp21, %156, !taffo.info !1419, !llfi_index !1965
  %157 = getelementptr inbounds { i32, { i32, i32, i32, i32 }* }, { i32, { i32, i32, i32, i32 }* }* %".<u0_0fixp,<s20_12fixp,s20_12fixp,s20_12fixp,u0_0fixp>>", i32 0, i32 1, !llfi_index !1966
  %158 = load { i32, i32, i32, i32 }*, { i32, i32, i32, i32 }** %157, align 8, !llfi_index !1967
  %159 = sext i32 %.1 to i64, !taffo.info !0, !llfi_index !1968
  %160 = getelementptr inbounds { i32, i32, i32, i32 }, { i32, i32, i32, i32 }* %158, i64 %159, !llfi_index !1969
  %s20_12fixp14 = getelementptr inbounds { i32, i32, i32, i32 }, { i32, i32, i32, i32 }* %160, i32 0, i32 0, !taffo.info !1419, !llfi_index !1970
  store i32 %s20_12fixp39, i32* %s20_12fixp14, align 4, !taffo.info !29, !llfi_index !1971
  %161 = getelementptr inbounds { i32, { i32, i32, i32, i32 }* }, { i32, { i32, i32, i32, i32 }* }* %".<u0_0fixp,<s20_12fixp,s20_12fixp,s20_12fixp,u0_0fixp>>", i32 0, i32 1, !llfi_index !1972
  %162 = load { i32, i32, i32, i32 }*, { i32, i32, i32, i32 }** %161, align 8, !llfi_index !1973
  %163 = sext i32 %.1 to i64, !taffo.info !0, !llfi_index !1974
  %164 = getelementptr inbounds { i32, i32, i32, i32 }, { i32, i32, i32, i32 }* %162, i64 %163, !llfi_index !1975
  %s20_12fixp15 = getelementptr inbounds { i32, i32, i32, i32 }, { i32, i32, i32, i32 }* %164, i32 0, i32 1, !taffo.info !1419, !llfi_index !1976
  %s20_12fixp22 = load i32, i32* %s20_12fixp15, align 4, !taffo.info !1851, !llfi_index !1977
  %165 = getelementptr inbounds { i32, { i32, i32, i32, i32 }* }, { i32, { i32, i32, i32, i32 }* }* %".<u0_0fixp,<s20_12fixp,s20_12fixp,s20_12fixp,u0_0fixp>>", i32 0, i32 1, !llfi_index !1978
  %166 = load { i32, i32, i32, i32 }*, { i32, i32, i32, i32 }** %165, align 8, !llfi_index !1979
  %167 = sext i32 %.1 to i64, !taffo.info !0, !llfi_index !1980
  %168 = getelementptr inbounds { i32, i32, i32, i32 }, { i32, i32, i32, i32 }* %166, i64 %167, !llfi_index !1981
  %matchop16 = getelementptr inbounds { i32, i32, i32, i32 }, { i32, i32, i32, i32 }* %168, i32 0, i32 3, !taffo.info !1421, !llfi_index !1982
  %169 = load i32, i32* %matchop16, align 4, !taffo.info !1421, !taffo.initweight !380, !llfi_index !1983
  %s20_12fixp40 = sdiv i32 %s20_12fixp22, %169, !taffo.info !1419, !llfi_index !1984
  %170 = getelementptr inbounds { i32, { i32, i32, i32, i32 }* }, { i32, { i32, i32, i32, i32 }* }* %".<u0_0fixp,<s20_12fixp,s20_12fixp,s20_12fixp,u0_0fixp>>", i32 0, i32 1, !llfi_index !1985
  %171 = load { i32, i32, i32, i32 }*, { i32, i32, i32, i32 }** %170, align 8, !llfi_index !1986
  %172 = sext i32 %.1 to i64, !taffo.info !0, !llfi_index !1987
  %173 = getelementptr inbounds { i32, i32, i32, i32 }, { i32, i32, i32, i32 }* %171, i64 %172, !llfi_index !1988
  %s20_12fixp17 = getelementptr inbounds { i32, i32, i32, i32 }, { i32, i32, i32, i32 }* %173, i32 0, i32 1, !taffo.info !1419, !llfi_index !1989
  store i32 %s20_12fixp40, i32* %s20_12fixp17, align 4, !taffo.info !29, !llfi_index !1990
  %174 = getelementptr inbounds { i32, { i32, i32, i32, i32 }* }, { i32, { i32, i32, i32, i32 }* }* %".<u0_0fixp,<s20_12fixp,s20_12fixp,s20_12fixp,u0_0fixp>>", i32 0, i32 1, !llfi_index !1991
  %175 = load { i32, i32, i32, i32 }*, { i32, i32, i32, i32 }** %174, align 8, !llfi_index !1992
  %176 = sext i32 %.1 to i64, !taffo.info !0, !llfi_index !1993
  %177 = getelementptr inbounds { i32, i32, i32, i32 }, { i32, i32, i32, i32 }* %175, i64 %176, !llfi_index !1994
  %s20_12fixp18 = getelementptr inbounds { i32, i32, i32, i32 }, { i32, i32, i32, i32 }* %177, i32 0, i32 2, !taffo.info !1419, !llfi_index !1995
  %s20_12fixp23 = load i32, i32* %s20_12fixp18, align 4, !taffo.info !1851, !llfi_index !1996
  %178 = getelementptr inbounds { i32, { i32, i32, i32, i32 }* }, { i32, { i32, i32, i32, i32 }* }* %".<u0_0fixp,<s20_12fixp,s20_12fixp,s20_12fixp,u0_0fixp>>", i32 0, i32 1, !llfi_index !1997
  %179 = load { i32, i32, i32, i32 }*, { i32, i32, i32, i32 }** %178, align 8, !llfi_index !1998
  %180 = sext i32 %.1 to i64, !taffo.info !0, !llfi_index !1999
  %181 = getelementptr inbounds { i32, i32, i32, i32 }, { i32, i32, i32, i32 }* %179, i64 %180, !llfi_index !2000
  %matchop19 = getelementptr inbounds { i32, i32, i32, i32 }, { i32, i32, i32, i32 }* %181, i32 0, i32 3, !taffo.info !1421, !llfi_index !2001
  %182 = load i32, i32* %matchop19, align 4, !taffo.info !1421, !taffo.initweight !380, !llfi_index !2002
  %s20_12fixp41 = sdiv i32 %s20_12fixp23, %182, !taffo.info !1419, !llfi_index !2003
  %183 = getelementptr inbounds { i32, { i32, i32, i32, i32 }* }, { i32, { i32, i32, i32, i32 }* }* %".<u0_0fixp,<s20_12fixp,s20_12fixp,s20_12fixp,u0_0fixp>>", i32 0, i32 1, !llfi_index !2004
  %184 = load { i32, i32, i32, i32 }*, { i32, i32, i32, i32 }** %183, align 8, !llfi_index !2005
  %185 = sext i32 %.1 to i64, !taffo.info !0, !llfi_index !2006
  %186 = getelementptr inbounds { i32, i32, i32, i32 }, { i32, i32, i32, i32 }* %184, i64 %185, !llfi_index !2007
  %s20_12fixp20 = getelementptr inbounds { i32, i32, i32, i32 }, { i32, i32, i32, i32 }* %186, i32 0, i32 2, !taffo.info !1419, !llfi_index !2008
  store i32 %s20_12fixp41, i32* %s20_12fixp20, align 4, !taffo.info !29, !llfi_index !2009
  br label %187, !llfi_index !2010

187:                                              ; preds = %147, %140
  br label %188, !llfi_index !2011

188:                                              ; preds = %187
  %189 = add nsw i32 %.1, 1, !taffo.info !199, !taffo.constinfo !111, !llfi_index !2012
  br label %137, !llvm.loop !2013, !llfi_index !2014

190:                                              ; preds = %137
  br label %191, !llfi_index !2015

191:                                              ; preds = %190
  %192 = add nsw i32 %.06, 1, !taffo.info !199, !taffo.constinfo !111, !llfi_index !2016
  br label %2, !llvm.loop !2017, !llfi_index !2018

193:                                              ; preds = %2
  br label %194, !llfi_index !2019

194:                                              ; preds = %265, %193
  %.2 = phi i32 [ 0, %193 ], [ %266, %265 ], !taffo.info !298, !llfi_index !2020
  %matchop4 = getelementptr inbounds { i32, i32, { i32, i32, i32, i32, i32 }**, i8* }, { i32, i32, { i32, i32, i32, i32, i32 }**, i8* }* %".<u0_0fixp,u0_0fixp,<u27_5fixp,u27_5fixp,u27_5fixp,u0_0fixp,u2_30fixp>,u0_0fixp>", i32 0, i32 1, !taffo.info !140, !llfi_index !2021
  %195 = load i32, i32* %matchop4, align 4, !taffo.info !140, !taffo.initweight !27, !llfi_index !2022
  %196 = icmp slt i32 %.2, %195, !taffo.info !140, !taffo.initweight !138, !llfi_index !2023
  br i1 %196, label %197, label %267, !taffo.info !24, !taffo.initweight !150, !llfi_index !2024

197:                                              ; preds = %194
  br label %198, !llfi_index !2025

198:                                              ; preds = %262, %197
  %.25 = phi i32 [ 0, %197 ], [ %263, %262 ], !taffo.info !298, !llfi_index !2026
  %matchop5 = getelementptr inbounds { i32, i32, { i32, i32, i32, i32, i32 }**, i8* }, { i32, i32, { i32, i32, i32, i32, i32 }**, i8* }* %".<u0_0fixp,u0_0fixp,<u27_5fixp,u27_5fixp,u27_5fixp,u0_0fixp,u2_30fixp>,u0_0fixp>", i32 0, i32 0, !taffo.info !140, !llfi_index !2027
  %199 = load i32, i32* %matchop5, align 8, !taffo.info !140, !taffo.initweight !27, !llfi_index !2028
  %200 = icmp slt i32 %.25, %199, !taffo.info !140, !taffo.initweight !138, !llfi_index !2029
  br i1 %200, label %201, label %264, !taffo.info !24, !taffo.initweight !150, !llfi_index !2030

201:                                              ; preds = %198
  %202 = getelementptr inbounds { i32, { i32, i32, i32, i32 }* }, { i32, { i32, i32, i32, i32 }* }* %".<u0_0fixp,<s20_12fixp,s20_12fixp,s20_12fixp,u0_0fixp>>", i32 0, i32 1, !llfi_index !2031
  %203 = load { i32, i32, i32, i32 }*, { i32, i32, i32, i32 }** %202, align 8, !llfi_index !2032
  %204 = getelementptr inbounds { i32, i32, { i32, i32, i32, i32, i32 }**, i8* }, { i32, i32, { i32, i32, i32, i32, i32 }**, i8* }* %".<u0_0fixp,u0_0fixp,<u27_5fixp,u27_5fixp,u27_5fixp,u0_0fixp,u2_30fixp>,u0_0fixp>", i32 0, i32 2, !llfi_index !2033
  %205 = load { i32, i32, i32, i32, i32 }**, { i32, i32, i32, i32, i32 }*** %204, align 8, !llfi_index !2034
  %206 = sext i32 %.2 to i64, !taffo.info !0, !llfi_index !2035
  %207 = getelementptr inbounds { i32, i32, i32, i32, i32 }*, { i32, i32, i32, i32, i32 }** %205, i64 %206, !llfi_index !2036
  %208 = load { i32, i32, i32, i32, i32 }*, { i32, i32, i32, i32, i32 }** %207, align 8, !llfi_index !2037
  %209 = sext i32 %.25 to i64, !taffo.info !0, !llfi_index !2038
  %210 = getelementptr inbounds { i32, i32, i32, i32, i32 }, { i32, i32, i32, i32, i32 }* %208, i64 %209, !llfi_index !2039
  %matchop30 = getelementptr inbounds { i32, i32, i32, i32, i32 }, { i32, i32, i32, i32, i32 }* %210, i32 0, i32 3, !taffo.info !140, !llfi_index !2040
  %211 = load i32, i32* %matchop30, align 4, !taffo.info !140, !taffo.initweight !606, !llfi_index !2041
  %212 = sext i32 %211 to i64, !taffo.info !140, !taffo.initweight !992, !llfi_index !2042
  %213 = getelementptr inbounds { i32, i32, i32, i32 }, { i32, i32, i32, i32 }* %203, i64 %212, !llfi_index !2043
  %s20_12fixp46 = getelementptr inbounds { i32, i32, i32, i32 }, { i32, i32, i32, i32 }* %213, i32 0, i32 0, !taffo.info !1419, !llfi_index !2044
  %s20_12fixp52 = load i32, i32* %s20_12fixp46, align 4, !taffo.info !1419, !llfi_index !2045
  %214 = getelementptr inbounds { i32, i32, { i32, i32, i32, i32, i32 }**, i8* }, { i32, i32, { i32, i32, i32, i32, i32 }**, i8* }* %".<u0_0fixp,u0_0fixp,<u27_5fixp,u27_5fixp,u27_5fixp,u0_0fixp,u2_30fixp>,u0_0fixp>", i32 0, i32 2, !llfi_index !2046
  %215 = load { i32, i32, i32, i32, i32 }**, { i32, i32, i32, i32, i32 }*** %214, align 8, !llfi_index !2047
  %216 = sext i32 %.2 to i64, !taffo.info !0, !llfi_index !2048
  %217 = getelementptr inbounds { i32, i32, i32, i32, i32 }*, { i32, i32, i32, i32, i32 }** %215, i64 %216, !llfi_index !2049
  %218 = load { i32, i32, i32, i32, i32 }*, { i32, i32, i32, i32, i32 }** %217, align 8, !llfi_index !2050
  %219 = sext i32 %.25 to i64, !taffo.info !0, !llfi_index !2051
  %220 = getelementptr inbounds { i32, i32, i32, i32, i32 }, { i32, i32, i32, i32, i32 }* %218, i64 %219, !llfi_index !2052
  %u27_5fixp31 = getelementptr inbounds { i32, i32, i32, i32, i32 }, { i32, i32, i32, i32, i32 }* %220, i32 0, i32 0, !taffo.info !1540, !llfi_index !2053
  %221 = ashr i32 %s20_12fixp52, 7, !taffo.info !1419, !llfi_index !2054
  store i32 %221, i32* %u27_5fixp31, align 4, !taffo.info !29, !llfi_index !2055
  %222 = getelementptr inbounds { i32, { i32, i32, i32, i32 }* }, { i32, { i32, i32, i32, i32 }* }* %".<u0_0fixp,<s20_12fixp,s20_12fixp,s20_12fixp,u0_0fixp>>", i32 0, i32 1, !llfi_index !2056
  %223 = load { i32, i32, i32, i32 }*, { i32, i32, i32, i32 }** %222, align 8, !llfi_index !2057
  %224 = getelementptr inbounds { i32, i32, { i32, i32, i32, i32, i32 }**, i8* }, { i32, i32, { i32, i32, i32, i32, i32 }**, i8* }* %".<u0_0fixp,u0_0fixp,<u27_5fixp,u27_5fixp,u27_5fixp,u0_0fixp,u2_30fixp>,u0_0fixp>", i32 0, i32 2, !llfi_index !2058
  %225 = load { i32, i32, i32, i32, i32 }**, { i32, i32, i32, i32, i32 }*** %224, align 8, !llfi_index !2059
  %226 = sext i32 %.2 to i64, !taffo.info !0, !llfi_index !2060
  %227 = getelementptr inbounds { i32, i32, i32, i32, i32 }*, { i32, i32, i32, i32, i32 }** %225, i64 %226, !llfi_index !2061
  %228 = load { i32, i32, i32, i32, i32 }*, { i32, i32, i32, i32, i32 }** %227, align 8, !llfi_index !2062
  %229 = sext i32 %.25 to i64, !taffo.info !0, !llfi_index !2063
  %230 = getelementptr inbounds { i32, i32, i32, i32, i32 }, { i32, i32, i32, i32, i32 }* %228, i64 %229, !llfi_index !2064
  %matchop32 = getelementptr inbounds { i32, i32, i32, i32, i32 }, { i32, i32, i32, i32, i32 }* %230, i32 0, i32 3, !taffo.info !140, !llfi_index !2065
  %231 = load i32, i32* %matchop32, align 4, !taffo.info !140, !taffo.initweight !606, !llfi_index !2066
  %232 = sext i32 %231 to i64, !taffo.info !140, !taffo.initweight !992, !llfi_index !2067
  %233 = getelementptr inbounds { i32, i32, i32, i32 }, { i32, i32, i32, i32 }* %223, i64 %232, !llfi_index !2068
  %s20_12fixp47 = getelementptr inbounds { i32, i32, i32, i32 }, { i32, i32, i32, i32 }* %233, i32 0, i32 1, !taffo.info !1419, !llfi_index !2069
  %s20_12fixp53 = load i32, i32* %s20_12fixp47, align 4, !taffo.info !1419, !llfi_index !2070
  %234 = getelementptr inbounds { i32, i32, { i32, i32, i32, i32, i32 }**, i8* }, { i32, i32, { i32, i32, i32, i32, i32 }**, i8* }* %".<u0_0fixp,u0_0fixp,<u27_5fixp,u27_5fixp,u27_5fixp,u0_0fixp,u2_30fixp>,u0_0fixp>", i32 0, i32 2, !llfi_index !2071
  %235 = load { i32, i32, i32, i32, i32 }**, { i32, i32, i32, i32, i32 }*** %234, align 8, !llfi_index !2072
  %236 = sext i32 %.2 to i64, !taffo.info !0, !llfi_index !2073
  %237 = getelementptr inbounds { i32, i32, i32, i32, i32 }*, { i32, i32, i32, i32, i32 }** %235, i64 %236, !llfi_index !2074
  %238 = load { i32, i32, i32, i32, i32 }*, { i32, i32, i32, i32, i32 }** %237, align 8, !llfi_index !2075
  %239 = sext i32 %.25 to i64, !taffo.info !0, !llfi_index !2076
  %240 = getelementptr inbounds { i32, i32, i32, i32, i32 }, { i32, i32, i32, i32, i32 }* %238, i64 %239, !llfi_index !2077
  %u27_5fixp33 = getelementptr inbounds { i32, i32, i32, i32, i32 }, { i32, i32, i32, i32, i32 }* %240, i32 0, i32 1, !taffo.info !1540, !llfi_index !2078
  %241 = ashr i32 %s20_12fixp53, 7, !taffo.info !1419, !llfi_index !2079
  store i32 %241, i32* %u27_5fixp33, align 4, !taffo.info !29, !llfi_index !2080
  %242 = getelementptr inbounds { i32, { i32, i32, i32, i32 }* }, { i32, { i32, i32, i32, i32 }* }* %".<u0_0fixp,<s20_12fixp,s20_12fixp,s20_12fixp,u0_0fixp>>", i32 0, i32 1, !llfi_index !2081
  %243 = load { i32, i32, i32, i32 }*, { i32, i32, i32, i32 }** %242, align 8, !llfi_index !2082
  %244 = getelementptr inbounds { i32, i32, { i32, i32, i32, i32, i32 }**, i8* }, { i32, i32, { i32, i32, i32, i32, i32 }**, i8* }* %".<u0_0fixp,u0_0fixp,<u27_5fixp,u27_5fixp,u27_5fixp,u0_0fixp,u2_30fixp>,u0_0fixp>", i32 0, i32 2, !llfi_index !2083
  %245 = load { i32, i32, i32, i32, i32 }**, { i32, i32, i32, i32, i32 }*** %244, align 8, !llfi_index !2084
  %246 = sext i32 %.2 to i64, !taffo.info !0, !llfi_index !2085
  %247 = getelementptr inbounds { i32, i32, i32, i32, i32 }*, { i32, i32, i32, i32, i32 }** %245, i64 %246, !llfi_index !2086
  %248 = load { i32, i32, i32, i32, i32 }*, { i32, i32, i32, i32, i32 }** %247, align 8, !llfi_index !2087
  %249 = sext i32 %.25 to i64, !taffo.info !0, !llfi_index !2088
  %250 = getelementptr inbounds { i32, i32, i32, i32, i32 }, { i32, i32, i32, i32, i32 }* %248, i64 %249, !llfi_index !2089
  %matchop34 = getelementptr inbounds { i32, i32, i32, i32, i32 }, { i32, i32, i32, i32, i32 }* %250, i32 0, i32 3, !taffo.info !140, !llfi_index !2090
  %251 = load i32, i32* %matchop34, align 4, !taffo.info !140, !taffo.initweight !606, !llfi_index !2091
  %252 = sext i32 %251 to i64, !taffo.info !140, !taffo.initweight !992, !llfi_index !2092
  %253 = getelementptr inbounds { i32, i32, i32, i32 }, { i32, i32, i32, i32 }* %243, i64 %252, !llfi_index !2093
  %s20_12fixp48 = getelementptr inbounds { i32, i32, i32, i32 }, { i32, i32, i32, i32 }* %253, i32 0, i32 2, !taffo.info !1419, !llfi_index !2094
  %s20_12fixp54 = load i32, i32* %s20_12fixp48, align 4, !taffo.info !1419, !llfi_index !2095
  %254 = getelementptr inbounds { i32, i32, { i32, i32, i32, i32, i32 }**, i8* }, { i32, i32, { i32, i32, i32, i32, i32 }**, i8* }* %".<u0_0fixp,u0_0fixp,<u27_5fixp,u27_5fixp,u27_5fixp,u0_0fixp,u2_30fixp>,u0_0fixp>", i32 0, i32 2, !llfi_index !2096
  %255 = load { i32, i32, i32, i32, i32 }**, { i32, i32, i32, i32, i32 }*** %254, align 8, !llfi_index !2097
  %256 = sext i32 %.2 to i64, !taffo.info !0, !llfi_index !2098
  %257 = getelementptr inbounds { i32, i32, i32, i32, i32 }*, { i32, i32, i32, i32, i32 }** %255, i64 %256, !llfi_index !2099
  %258 = load { i32, i32, i32, i32, i32 }*, { i32, i32, i32, i32, i32 }** %257, align 8, !llfi_index !2100
  %259 = sext i32 %.25 to i64, !taffo.info !0, !llfi_index !2101
  %260 = getelementptr inbounds { i32, i32, i32, i32, i32 }, { i32, i32, i32, i32, i32 }* %258, i64 %259, !llfi_index !2102
  %u27_5fixp35 = getelementptr inbounds { i32, i32, i32, i32, i32 }, { i32, i32, i32, i32, i32 }* %260, i32 0, i32 2, !taffo.info !1540, !llfi_index !2103
  %261 = ashr i32 %s20_12fixp54, 7, !taffo.info !1419, !llfi_index !2104
  store i32 %261, i32* %u27_5fixp35, align 4, !taffo.info !29, !llfi_index !2105
  br label %262, !llfi_index !2106

262:                                              ; preds = %201
  %263 = add nsw i32 %.25, 1, !taffo.info !199, !taffo.constinfo !111, !llfi_index !2107
  br label %198, !llvm.loop !2108, !llfi_index !2109

264:                                              ; preds = %198
  br label %265, !llfi_index !2110

265:                                              ; preds = %264
  %266 = add nsw i32 %.2, 1, !taffo.info !199, !taffo.constinfo !111, !llfi_index !2111
  br label %194, !llvm.loop !2112, !llfi_index !2113

267:                                              ; preds = %194
  ret void, !llfi_index !2114
}

; Function Attrs: mustprogress noinline uwtable
define internal noundef i32 @_Z12loadRgbImagePKcP8RgbImagef.3_fixp(i8* noundef %0, { i32, i32, { i32, i32, i32, i32, i32 }**, i8* }* noundef %".<u0_0fixp,u0_0fixp,<u27_5fixp,u27_5fixp,u27_5fixp,u0_0fixp,u2_30fixp>,u0_0fixp>", float noundef %1) #0 !taffo.initweight !2115 !taffo.funinfo !2116 !taffo.sourceFunction !2117 {
  %3 = fmul float 0x4160000000000000, %1, !taffo.info !195, !llfi_index !2118
  %4 = fptoui float %3 to i32, !taffo.info !195, !llfi_index !2119
  %5 = fmul float 0x4160000000000000, %1, !taffo.info !195, !llfi_index !2120
  %6 = fptoui float %5 to i32, !taffo.info !195, !llfi_index !2121
  %7 = fmul float 0x4160000000000000, %1, !taffo.info !195, !llfi_index !2122
  %8 = fptoui float %7 to i32, !taffo.info !195, !llfi_index !2123
  %9 = alloca [256 x i8], align 16, !taffo.info !288, !llfi_index !2124
  %10 = call noalias %struct._IO_FILE* @fopen(i8* noundef %0, i8* noundef getelementptr inbounds ([2 x i8], [2 x i8]* @.str.5.21, i64 0, i64 0)), !taffo.constinfo !120, !llfi_index !2125
  %11 = icmp ne %struct._IO_FILE* %10, null, !taffo.info !298, !llfi_index !2126
  br i1 %11, label %14, label %12, !llfi_index !2127

12:                                               ; preds = %2
  %13 = call i32 (i8*, ...) @printf(i8* noundef getelementptr inbounds ([32 x i8], [32 x i8]* @.str.6.22, i64 0, i64 0), i8* noundef %0), !taffo.constinfo !120, !llfi_index !2128
  br label %151, !llfi_index !2129

14:                                               ; preds = %2
  %15 = getelementptr inbounds [256 x i8], [256 x i8]* %9, i64 0, i64 0, !taffo.info !288, !llfi_index !2130
  %16 = call noundef i32 @_Z8readCellP8_IO_FILEPc(%struct._IO_FILE* noundef %10, i8* noundef %15), !taffo.info !294, !taffo.constinfo !120, !llfi_index !2131
  %17 = getelementptr inbounds [256 x i8], [256 x i8]* %9, i64 0, i64 0, !taffo.info !288, !llfi_index !2132
  %18 = call i32 @atoi(i8* noundef %17) #11, !taffo.constinfo !111, !llfi_index !2133
  %matchop = getelementptr inbounds { i32, i32, { i32, i32, i32, i32, i32 }**, i8* }, { i32, i32, { i32, i32, i32, i32, i32 }**, i8* }* %".<u0_0fixp,u0_0fixp,<u27_5fixp,u27_5fixp,u27_5fixp,u0_0fixp,u2_30fixp>,u0_0fixp>", i32 0, i32 0, !taffo.info !140, !llfi_index !2134
  store i32 %18, i32* %matchop, align 8, !taffo.info !24, !llfi_index !2135
  %19 = getelementptr inbounds [256 x i8], [256 x i8]* %9, i64 0, i64 0, !taffo.info !288, !llfi_index !2136
  %20 = call noundef i32 @_Z8readCellP8_IO_FILEPc(%struct._IO_FILE* noundef %10, i8* noundef %19), !taffo.constinfo !120, !llfi_index !2137
  %21 = getelementptr inbounds [256 x i8], [256 x i8]* %9, i64 0, i64 0, !taffo.info !288, !llfi_index !2138
  %22 = call i32 @atoi(i8* noundef %21) #11, !taffo.constinfo !111, !llfi_index !2139
  %matchop3 = getelementptr inbounds { i32, i32, { i32, i32, i32, i32, i32 }**, i8* }, { i32, i32, { i32, i32, i32, i32, i32 }**, i8* }* %".<u0_0fixp,u0_0fixp,<u27_5fixp,u27_5fixp,u27_5fixp,u0_0fixp,u2_30fixp>,u0_0fixp>", i32 0, i32 1, !taffo.info !140, !llfi_index !2140
  store i32 %22, i32* %matchop3, align 4, !taffo.info !24, !llfi_index !2141
  %matchop4 = getelementptr inbounds { i32, i32, { i32, i32, i32, i32, i32 }**, i8* }, { i32, i32, { i32, i32, i32, i32, i32 }**, i8* }* %".<u0_0fixp,u0_0fixp,<u27_5fixp,u27_5fixp,u27_5fixp,u0_0fixp,u2_30fixp>,u0_0fixp>", i32 0, i32 1, !taffo.info !140, !llfi_index !2142
  %23 = load i32, i32* %matchop4, align 4, !taffo.info !140, !taffo.initweight !27, !llfi_index !2143
  %24 = sext i32 %23 to i64, !taffo.info !140, !taffo.initweight !138, !llfi_index !2144
  %25 = mul i64 %24, 8, !taffo.info !140, !taffo.initweight !150, !taffo.constinfo !111, !llfi_index !2145
  %26 = call noalias i8* @malloc(i64 noundef %25) #12, !taffo.info !140, !taffo.initweight !380, !taffo.constinfo !111, !llfi_index !2146
  %27 = bitcast i8* %26 to %struct.RgbPixel**, !taffo.structinfo !206, !taffo.initweight !992, !llfi_index !2147
  %28 = icmp eq %struct.RgbPixel** %27, null, !taffo.info !2148, !taffo.initweight !25, !llfi_index !2149
  br i1 %28, label %29, label %32, !taffo.info !24, !taffo.initweight !27, !llfi_index !2150

29:                                               ; preds = %14
  %30 = call i32 (i8*, ...) @printf(i8* noundef getelementptr inbounds ([55 x i8], [55 x i8]* @.str.7.23, i64 0, i64 0)), !taffo.constinfo !111, !llfi_index !2151
  %31 = call i32 @fclose(%struct._IO_FILE* noundef %10), !taffo.constinfo !111, !llfi_index !2152
  br label %151, !llfi_index !2153

32:                                               ; preds = %14
  br label %33, !llfi_index !2154

33:                                               ; preds = %47, %32
  %.02 = phi i32 [ 0, %32 ], [ %48, %47 ], !taffo.info !298, !llfi_index !2155
  %matchop5 = getelementptr inbounds { i32, i32, { i32, i32, i32, i32, i32 }**, i8* }, { i32, i32, { i32, i32, i32, i32, i32 }**, i8* }* %".<u0_0fixp,u0_0fixp,<u27_5fixp,u27_5fixp,u27_5fixp,u0_0fixp,u2_30fixp>,u0_0fixp>", i32 0, i32 1, !taffo.info !140, !llfi_index !2156
  %34 = load i32, i32* %matchop5, align 4, !taffo.info !140, !taffo.initweight !27, !llfi_index !2157
  %35 = icmp slt i32 %.02, %34, !taffo.info !140, !taffo.initweight !138, !llfi_index !2158
  br i1 %35, label %36, label %49, !taffo.info !24, !taffo.initweight !150, !llfi_index !2159

36:                                               ; preds = %33
  %matchop6 = getelementptr inbounds { i32, i32, { i32, i32, i32, i32, i32 }**, i8* }, { i32, i32, { i32, i32, i32, i32, i32 }**, i8* }* %".<u0_0fixp,u0_0fixp,<u27_5fixp,u27_5fixp,u27_5fixp,u0_0fixp,u2_30fixp>,u0_0fixp>", i32 0, i32 0, !taffo.info !140, !llfi_index !2160
  %37 = load i32, i32* %matchop6, align 8, !taffo.info !140, !taffo.initweight !27, !llfi_index !2161
  %38 = sext i32 %37 to i64, !taffo.info !140, !taffo.initweight !138, !llfi_index !2162
  %39 = mul i64 %38, 20, !taffo.info !140, !taffo.initweight !150, !taffo.constinfo !111, !llfi_index !2163
  %40 = call noalias i8* @malloc(i64 noundef %39) #12, !taffo.info !140, !taffo.initweight !380, !taffo.constinfo !111, !llfi_index !2164
  %41 = bitcast i8* %40 to %struct.RgbPixel*, !taffo.structinfo !206, !taffo.initweight !992, !llfi_index !2165
  %42 = sext i32 %.02 to i64, !taffo.info !0, !llfi_index !2166
  %.flt22 = getelementptr inbounds %struct.RgbPixel*, %struct.RgbPixel** %27, i64 %42, !taffo.structinfo !402, !taffo.initweight !25, !llfi_index !2167
  store %struct.RgbPixel* %41, %struct.RgbPixel** %.flt22, align 8, !llfi_index !2168
  %43 = sext i32 %.02 to i64, !taffo.info !0, !llfi_index !2169
  %.flt21 = getelementptr inbounds %struct.RgbPixel*, %struct.RgbPixel** %27, i64 %43, !taffo.structinfo !402, !taffo.initweight !25, !llfi_index !2170
  %.flt30 = load %struct.RgbPixel*, %struct.RgbPixel** %.flt21, align 8, !taffo.structinfo !402, !taffo.initweight !27, !llfi_index !2171
  %44 = icmp eq %struct.RgbPixel* %.flt30, null, !taffo.info !2148, !taffo.initweight !138, !llfi_index !2172
  br i1 %44, label %45, label %46, !taffo.info !24, !taffo.initweight !150, !llfi_index !2173

45:                                               ; preds = %36
  br label %49, !llfi_index !2174

46:                                               ; preds = %36
  br label %47, !llfi_index !2175

47:                                               ; preds = %46
  %48 = add nsw i32 %.02, 1, !taffo.info !199, !taffo.constinfo !111, !llfi_index !2176
  br label %33, !llvm.loop !2177, !llfi_index !2178

49:                                               ; preds = %45, %33
  %.03 = phi i32 [ 1, %45 ], [ 0, %33 ], !taffo.info !298, !llfi_index !2179
  %50 = icmp eq i32 %.03, 1, !taffo.info !298, !llfi_index !2180
  br i1 %50, label %51, label %64, !llfi_index !2181

51:                                               ; preds = %49
  %52 = call i32 (i8*, ...) @printf(i8* noundef getelementptr inbounds ([55 x i8], [55 x i8]* @.str.7.23, i64 0, i64 0)), !taffo.constinfo !111, !llfi_index !2182
  %53 = add nsw i32 %.02, -1, !taffo.info !2183, !taffo.constinfo !111, !llfi_index !2185
  br label %54, !llfi_index !2186

54:                                               ; preds = %59, %51
  %.1 = phi i32 [ %53, %51 ], [ %60, %59 ], !taffo.info !2187, !llfi_index !2189
  %55 = icmp sge i32 %.1, 0, !taffo.info !298, !llfi_index !2190
  br i1 %55, label %56, label %61, !llfi_index !2191

56:                                               ; preds = %54
  %57 = sext i32 %.1 to i64, !taffo.info !2183, !llfi_index !2192
  %.flt20 = getelementptr inbounds %struct.RgbPixel*, %struct.RgbPixel** %27, i64 %57, !taffo.structinfo !402, !taffo.initweight !25, !llfi_index !2193
  %.flt29 = load %struct.RgbPixel*, %struct.RgbPixel** %.flt20, align 8, !taffo.structinfo !402, !taffo.initweight !27, !llfi_index !2194
  %58 = bitcast %struct.RgbPixel* %.flt29 to i8*, !taffo.info !24, !taffo.initweight !138, !llfi_index !2195
  call void @free(i8* noundef %58) #10, !taffo.info !24, !taffo.initweight !150, !taffo.constinfo !111, !llfi_index !2196
  br label %59, !llfi_index !2197

59:                                               ; preds = %56
  %60 = add nsw i32 %.1, -1, !taffo.info !2198, !taffo.constinfo !111, !llfi_index !2200
  br label %54, !llvm.loop !2201, !llfi_index !2202

61:                                               ; preds = %54
  %62 = bitcast %struct.RgbPixel** %27 to i8*, !taffo.info !24, !taffo.initweight !25, !llfi_index !2203
  call void @free(i8* noundef %62) #10, !taffo.info !24, !taffo.initweight !27, !taffo.constinfo !111, !llfi_index !2204
  %63 = call i32 @fclose(%struct._IO_FILE* noundef %10), !taffo.constinfo !111, !llfi_index !2205
  br label %151, !llfi_index !2206

64:                                               ; preds = %49
  br label %65, !llfi_index !2207

65:                                               ; preds = %121, %64
  %.2 = phi i32 [ 0, %64 ], [ %122, %121 ], !taffo.info !298, !llfi_index !2208
  %matchop7 = getelementptr inbounds { i32, i32, { i32, i32, i32, i32, i32 }**, i8* }, { i32, i32, { i32, i32, i32, i32, i32 }**, i8* }* %".<u0_0fixp,u0_0fixp,<u27_5fixp,u27_5fixp,u27_5fixp,u0_0fixp,u2_30fixp>,u0_0fixp>", i32 0, i32 1, !taffo.info !140, !llfi_index !2209
  %66 = load i32, i32* %matchop7, align 4, !taffo.info !140, !taffo.initweight !27, !llfi_index !2210
  %67 = icmp slt i32 %.2, %66, !taffo.info !140, !taffo.initweight !138, !llfi_index !2211
  br i1 %67, label %68, label %123, !taffo.info !24, !taffo.initweight !150, !llfi_index !2212

68:                                               ; preds = %65
  br label %69, !llfi_index !2213

69:                                               ; preds = %118, %68
  %.01 = phi i32 [ 0, %68 ], [ %119, %118 ], !taffo.info !298, !llfi_index !2214
  %matchop8 = getelementptr inbounds { i32, i32, { i32, i32, i32, i32, i32 }**, i8* }, { i32, i32, { i32, i32, i32, i32, i32 }**, i8* }* %".<u0_0fixp,u0_0fixp,<u27_5fixp,u27_5fixp,u27_5fixp,u0_0fixp,u2_30fixp>,u0_0fixp>", i32 0, i32 0, !taffo.info !140, !llfi_index !2215
  %70 = load i32, i32* %matchop8, align 8, !taffo.info !140, !taffo.initweight !27, !llfi_index !2216
  %71 = icmp slt i32 %.01, %70, !taffo.info !140, !taffo.initweight !138, !llfi_index !2217
  br i1 %71, label %72, label %120, !taffo.info !24, !taffo.initweight !150, !llfi_index !2218

72:                                               ; preds = %69
  %73 = getelementptr inbounds [256 x i8], [256 x i8]* %9, i64 0, i64 0, !taffo.info !288, !llfi_index !2219
  %74 = call noundef i32 @_Z8readCellP8_IO_FILEPc(%struct._IO_FILE* noundef %10, i8* noundef %73), !taffo.constinfo !120, !llfi_index !2220
  %75 = getelementptr inbounds [256 x i8], [256 x i8]* %9, i64 0, i64 0, !taffo.info !288, !llfi_index !2221
  %76 = call i32 @atoi(i8* noundef %75) #11, !taffo.constinfo !111, !llfi_index !2222
  %u8_24fixp1 = shl i32 %76, 24, !taffo.info !453, !taffo.constinfo !111, !llfi_index !2223
  %77 = zext i32 %u8_24fixp1 to i64, !taffo.info !453, !llfi_index !2224
  %78 = shl i64 %77, 30, !taffo.info !453, !taffo.constinfo !111, !llfi_index !2225
  %79 = zext i32 %6 to i64, !taffo.info !195, !llfi_index !2226
  %80 = udiv i64 %78, %79, !taffo.info !2227, !llfi_index !2230
  %u1_31fixp13 = trunc i64 %80 to i32, !taffo.info !2231, !llfi_index !2232
  %81 = uitofp i32 %u1_31fixp13 to float, !taffo.info !2231, !llfi_index !2233
  %82 = fdiv float %81, 0x41E0000000000000, !taffo.info !2231, !llfi_index !2234
  %83 = sext i32 %.2 to i64, !taffo.info !0, !llfi_index !2235
  %.flt19 = getelementptr inbounds %struct.RgbPixel*, %struct.RgbPixel** %27, i64 %83, !taffo.structinfo !402, !taffo.initweight !25, !llfi_index !2236
  %.flt28 = load %struct.RgbPixel*, %struct.RgbPixel** %.flt19, align 8, !taffo.structinfo !402, !taffo.initweight !27, !llfi_index !2237
  %84 = sext i32 %.01 to i64, !taffo.info !0, !llfi_index !2238
  %.flt35 = getelementptr inbounds %struct.RgbPixel, %struct.RgbPixel* %.flt28, i64 %84, !taffo.structinfo !402, !taffo.initweight !138, !llfi_index !2239
  %85 = getelementptr inbounds %struct.RgbPixel, %struct.RgbPixel* %.flt35, i32 0, i32 0, !taffo.info !24, !taffo.initweight !150, !llfi_index !2240
  store float %82, float* %85, align 4, !taffo.info !24, !llfi_index !2241
  %86 = getelementptr inbounds [256 x i8], [256 x i8]* %9, i64 0, i64 0, !taffo.info !288, !llfi_index !2242
  %87 = call noundef i32 @_Z8readCellP8_IO_FILEPc(%struct._IO_FILE* noundef %10, i8* noundef %86), !taffo.constinfo !120, !llfi_index !2243
  %88 = getelementptr inbounds [256 x i8], [256 x i8]* %9, i64 0, i64 0, !taffo.info !288, !llfi_index !2244
  %89 = call i32 @atoi(i8* noundef %88) #11, !taffo.constinfo !111, !llfi_index !2245
  %u8_24fixp = shl i32 %89, 24, !taffo.info !453, !taffo.constinfo !111, !llfi_index !2246
  %90 = zext i32 %u8_24fixp to i64, !taffo.info !453, !llfi_index !2247
  %91 = shl i64 %90, 30, !taffo.info !453, !taffo.constinfo !111, !llfi_index !2248
  %92 = zext i32 %8 to i64, !taffo.info !195, !llfi_index !2249
  %93 = udiv i64 %91, %92, !taffo.info !2227, !llfi_index !2250
  %u1_31fixp = trunc i64 %93 to i32, !taffo.info !2231, !llfi_index !2251
  %94 = uitofp i32 %u1_31fixp to float, !taffo.info !2231, !llfi_index !2252
  %95 = fdiv float %94, 0x41E0000000000000, !taffo.info !2231, !llfi_index !2253
  %96 = sext i32 %.2 to i64, !taffo.info !0, !llfi_index !2254
  %.flt18 = getelementptr inbounds %struct.RgbPixel*, %struct.RgbPixel** %27, i64 %96, !taffo.structinfo !402, !taffo.initweight !25, !llfi_index !2255
  %.flt27 = load %struct.RgbPixel*, %struct.RgbPixel** %.flt18, align 8, !taffo.structinfo !402, !taffo.initweight !27, !llfi_index !2256
  %97 = sext i32 %.01 to i64, !taffo.info !0, !llfi_index !2257
  %.flt34 = getelementptr inbounds %struct.RgbPixel, %struct.RgbPixel* %.flt27, i64 %97, !taffo.structinfo !402, !taffo.initweight !138, !llfi_index !2258
  %98 = getelementptr inbounds %struct.RgbPixel, %struct.RgbPixel* %.flt34, i32 0, i32 1, !taffo.info !24, !taffo.initweight !150, !llfi_index !2259
  store float %95, float* %98, align 4, !taffo.info !24, !llfi_index !2260
  %99 = getelementptr inbounds [256 x i8], [256 x i8]* %9, i64 0, i64 0, !taffo.info !288, !llfi_index !2261
  %100 = call noundef i32 @_Z8readCellP8_IO_FILEPc(%struct._IO_FILE* noundef %10, i8* noundef %99), !taffo.constinfo !120, !llfi_index !2262
  %101 = getelementptr inbounds [256 x i8], [256 x i8]* %9, i64 0, i64 0, !taffo.info !288, !llfi_index !2263
  %102 = call i32 @atoi(i8* noundef %101) #11, !taffo.constinfo !111, !llfi_index !2264
  %u8_24fixp2 = shl i32 %102, 24, !taffo.info !453, !taffo.constinfo !111, !llfi_index !2265
  %103 = zext i32 %u8_24fixp2 to i64, !taffo.info !453, !llfi_index !2266
  %104 = shl i64 %103, 30, !taffo.info !453, !taffo.constinfo !111, !llfi_index !2267
  %105 = zext i32 %4 to i64, !taffo.info !195, !llfi_index !2268
  %106 = udiv i64 %104, %105, !taffo.info !2227, !llfi_index !2269
  %u1_31fixp14 = trunc i64 %106 to i32, !taffo.info !2231, !llfi_index !2270
  %107 = uitofp i32 %u1_31fixp14 to float, !taffo.info !2231, !llfi_index !2271
  %108 = fdiv float %107, 0x41E0000000000000, !taffo.info !2231, !llfi_index !2272
  %109 = sext i32 %.2 to i64, !taffo.info !0, !llfi_index !2273
  %.flt17 = getelementptr inbounds %struct.RgbPixel*, %struct.RgbPixel** %27, i64 %109, !taffo.structinfo !402, !taffo.initweight !25, !llfi_index !2274
  %.flt26 = load %struct.RgbPixel*, %struct.RgbPixel** %.flt17, align 8, !taffo.structinfo !402, !taffo.initweight !27, !llfi_index !2275
  %110 = sext i32 %.01 to i64, !taffo.info !0, !llfi_index !2276
  %.flt33 = getelementptr inbounds %struct.RgbPixel, %struct.RgbPixel* %.flt26, i64 %110, !taffo.structinfo !402, !taffo.initweight !138, !llfi_index !2277
  %111 = getelementptr inbounds %struct.RgbPixel, %struct.RgbPixel* %.flt33, i32 0, i32 2, !taffo.info !24, !taffo.initweight !150, !llfi_index !2278
  store float %108, float* %111, align 4, !taffo.info !24, !llfi_index !2279
  %112 = sext i32 %.2 to i64, !taffo.info !0, !llfi_index !2280
  %.flt16 = getelementptr inbounds %struct.RgbPixel*, %struct.RgbPixel** %27, i64 %112, !taffo.structinfo !402, !taffo.initweight !25, !llfi_index !2281
  %.flt25 = load %struct.RgbPixel*, %struct.RgbPixel** %.flt16, align 8, !taffo.structinfo !402, !taffo.initweight !27, !llfi_index !2282
  %113 = sext i32 %.01 to i64, !taffo.info !0, !llfi_index !2283
  %.flt32 = getelementptr inbounds %struct.RgbPixel, %struct.RgbPixel* %.flt25, i64 %113, !taffo.structinfo !402, !taffo.initweight !138, !llfi_index !2284
  %114 = getelementptr inbounds %struct.RgbPixel, %struct.RgbPixel* %.flt32, i32 0, i32 3, !taffo.info !24, !taffo.initweight !150, !llfi_index !2285
  store i32 0, i32* %114, align 4, !taffo.info !24, !taffo.constinfo !111, !llfi_index !2286
  %115 = sext i32 %.2 to i64, !taffo.info !0, !llfi_index !2287
  %.flt15 = getelementptr inbounds %struct.RgbPixel*, %struct.RgbPixel** %27, i64 %115, !taffo.structinfo !402, !taffo.initweight !25, !llfi_index !2288
  %.flt24 = load %struct.RgbPixel*, %struct.RgbPixel** %.flt15, align 8, !taffo.structinfo !402, !taffo.initweight !27, !llfi_index !2289
  %116 = sext i32 %.01 to i64, !taffo.info !0, !llfi_index !2290
  %.flt31 = getelementptr inbounds %struct.RgbPixel, %struct.RgbPixel* %.flt24, i64 %116, !taffo.structinfo !402, !taffo.initweight !138, !llfi_index !2291
  %117 = getelementptr inbounds %struct.RgbPixel, %struct.RgbPixel* %.flt31, i32 0, i32 4, !taffo.info !24, !taffo.initweight !150, !llfi_index !2292
  store float 0.000000e+00, float* %117, align 4, !taffo.info !24, !taffo.constinfo !523, !llfi_index !2293
  br label %118, !llfi_index !2294

118:                                              ; preds = %72
  %119 = add nsw i32 %.01, 1, !taffo.info !199, !taffo.constinfo !111, !llfi_index !2295
  br label %69, !llvm.loop !2296, !llfi_index !2297

120:                                              ; preds = %69
  br label %121, !llfi_index !2298

121:                                              ; preds = %120
  %122 = add nsw i32 %.2, 1, !taffo.info !199, !taffo.constinfo !111, !llfi_index !2299
  br label %65, !llvm.loop !2300, !llfi_index !2301

123:                                              ; preds = %65
  %124 = getelementptr inbounds { i32, i32, { i32, i32, i32, i32, i32 }**, i8* }, { i32, i32, { i32, i32, i32, i32, i32 }**, i8* }* %".<u0_0fixp,u0_0fixp,<u27_5fixp,u27_5fixp,u27_5fixp,u0_0fixp,u2_30fixp>,u0_0fixp>", i32 0, i32 2, !llfi_index !2302
  %125 = bitcast %struct.RgbPixel** %27 to { i32, i32, i32, i32, i32 }**, !llfi_index !2303
  store { i32, i32, i32, i32, i32 }** %125, { i32, i32, i32, i32, i32 }*** %124, align 8, !llfi_index !2304
  %126 = getelementptr inbounds [256 x i8], [256 x i8]* %9, i64 0, i64 0, !taffo.info !288, !llfi_index !2305
  %127 = call noundef i32 @_Z8readCellP8_IO_FILEPc(%struct._IO_FILE* noundef %10, i8* noundef %126), !taffo.constinfo !120, !llfi_index !2306
  %128 = getelementptr inbounds [256 x i8], [256 x i8]* %9, i64 0, i64 0, !taffo.info !288, !llfi_index !2307
  %129 = call i64 @strlen(i8* noundef %128) #11, !taffo.constinfo !111, !llfi_index !2308
  %130 = mul i64 %129, 1, !taffo.constinfo !111, !llfi_index !2309
  %131 = call noalias i8* @malloc(i64 noundef %130) #12, !taffo.constinfo !111, !llfi_index !2310
  %matchop9 = getelementptr inbounds { i32, i32, { i32, i32, i32, i32, i32 }**, i8* }, { i32, i32, { i32, i32, i32, i32, i32 }**, i8* }* %".<u0_0fixp,u0_0fixp,<u27_5fixp,u27_5fixp,u27_5fixp,u0_0fixp,u2_30fixp>,u0_0fixp>", i32 0, i32 3, !taffo.info !140, !llfi_index !2311
  store i8* %131, i8** %matchop9, align 8, !taffo.info !24, !llfi_index !2312
  %matchop10 = getelementptr inbounds { i32, i32, { i32, i32, i32, i32, i32 }**, i8* }, { i32, i32, { i32, i32, i32, i32, i32 }**, i8* }* %".<u0_0fixp,u0_0fixp,<u27_5fixp,u27_5fixp,u27_5fixp,u0_0fixp,u2_30fixp>,u0_0fixp>", i32 0, i32 3, !taffo.info !140, !llfi_index !2313
  %132 = load i8*, i8** %matchop10, align 8, !taffo.info !140, !taffo.initweight !27, !llfi_index !2314
  %133 = icmp eq i8* %132, null, !taffo.info !140, !taffo.initweight !138, !llfi_index !2315
  br i1 %133, label %134, label %147, !taffo.info !24, !taffo.initweight !150, !llfi_index !2316

134:                                              ; preds = %123
  %135 = call i32 (i8*, ...) @printf(i8* noundef getelementptr inbounds ([55 x i8], [55 x i8]* @.str.7.23, i64 0, i64 0)), !taffo.constinfo !111, !llfi_index !2317
  br label %136, !llfi_index !2318

136:                                              ; preds = %142, %134
  %.3 = phi i32 [ 0, %134 ], [ %143, %142 ], !taffo.info !298, !llfi_index !2319
  %matchop11 = getelementptr inbounds { i32, i32, { i32, i32, i32, i32, i32 }**, i8* }, { i32, i32, { i32, i32, i32, i32, i32 }**, i8* }* %".<u0_0fixp,u0_0fixp,<u27_5fixp,u27_5fixp,u27_5fixp,u0_0fixp,u2_30fixp>,u0_0fixp>", i32 0, i32 1, !taffo.info !140, !llfi_index !2320
  %137 = load i32, i32* %matchop11, align 4, !taffo.info !140, !taffo.initweight !27, !llfi_index !2321
  %138 = icmp slt i32 %.3, %137, !taffo.info !140, !taffo.initweight !138, !llfi_index !2322
  br i1 %138, label %139, label %144, !taffo.info !24, !taffo.initweight !150, !llfi_index !2323

139:                                              ; preds = %136
  %140 = sext i32 %.3 to i64, !taffo.info !0, !llfi_index !2324
